   1              	 .cpu cortex-m0
   2              	 .fpu softvfp
   3              	 .eabi_attribute 20,1
   4              	 .eabi_attribute 21,1
   5              	 .eabi_attribute 23,3
   6              	 .eabi_attribute 24,1
   7              	 .eabi_attribute 25,1
   8              	 .eabi_attribute 26,1
   9              	 .eabi_attribute 30,1
  10              	 .eabi_attribute 34,0
  11              	 .eabi_attribute 18,4
  12              	 .code 16
  13              	 .file "portserial.c"
  14              	 .text
  15              	.Ltext0:
  16              	 .cfi_sections .debug_frame
  17              	 .section .text.MB_register_UART,"ax",%progbits
  18              	 .align 2
  19              	 .global MB_register_UART
  20              	 .code 16
  21              	 .thumb_func
  23              	MB_register_UART:
  24              	.LFB494:
  25              	 .file 1 "../freemodbus-v1.5.0/port/portserial.c"
   1:../freemodbus-v1.5.0/port/portserial.c **** /******************************************************************************
   2:../freemodbus-v1.5.0/port/portserial.c **** * Software License Agreement
   3:../freemodbus-v1.5.0/port/portserial.c **** *
   4:../freemodbus-v1.5.0/port/portserial.c **** * Copyright (c) 2016, Infineon Technologies AG
   5:../freemodbus-v1.5.0/port/portserial.c **** * All rights reserved.
   6:../freemodbus-v1.5.0/port/portserial.c **** *
   7:../freemodbus-v1.5.0/port/portserial.c **** * Redistribution and use in source and binary forms, with or without
   8:../freemodbus-v1.5.0/port/portserial.c **** * modification, are permitted provided that the following conditions are met:
   9:../freemodbus-v1.5.0/port/portserial.c **** *
  10:../freemodbus-v1.5.0/port/portserial.c **** * Redistributions of source code must retain the above copyright notice,
  11:../freemodbus-v1.5.0/port/portserial.c **** * this list of conditions and the following disclaimer.
  12:../freemodbus-v1.5.0/port/portserial.c **** *
  13:../freemodbus-v1.5.0/port/portserial.c **** * Redistributions in binary form must reproduce the above copyright notice,
  14:../freemodbus-v1.5.0/port/portserial.c **** * this list of conditions and the following disclaimer in the documentation
  15:../freemodbus-v1.5.0/port/portserial.c **** * and/or other materials provided with the distribution.
  16:../freemodbus-v1.5.0/port/portserial.c **** *
  17:../freemodbus-v1.5.0/port/portserial.c **** * Neither the name of the copyright holders nor the names of its contributors
  18:../freemodbus-v1.5.0/port/portserial.c **** * may be used to endorse or promote products derived from this software
  19:../freemodbus-v1.5.0/port/portserial.c **** * without specific prior written permission
  20:../freemodbus-v1.5.0/port/portserial.c **** 
  21:../freemodbus-v1.5.0/port/portserial.c **** * THIS SOFTWARE IS PROVIDED BY THE COPYRIGHT HOLDERS AND CONTRIBUTORS "AS IS"
  22:../freemodbus-v1.5.0/port/portserial.c **** * AND ANY EXPRESS OR IMPLIED WARRANTIES, INCLUDING, BUT NOT LIMITED TO, THE
  23:../freemodbus-v1.5.0/port/portserial.c **** * IMPLIED WARRANTIES OF MERCHANTABILITY AND FITNESS FOR A PARTICULAR PURPOSE
  24:../freemodbus-v1.5.0/port/portserial.c **** * ARE DISCLAIMED. IN NO EVENT SHALL THE COPYRIGHT HOLDER OR CONTRIBUTORS BE
  25:../freemodbus-v1.5.0/port/portserial.c **** * LIABLE FOR ANY DIRECT, INDIRECT, INCIDENTAL, SPECIAL, EXEMPLARY, OR
  26:../freemodbus-v1.5.0/port/portserial.c **** * CONSEQUENTIAL DAMAGES (INCLUDING, BUT NOT LIMITED TO, PROCUREMENT OF
  27:../freemodbus-v1.5.0/port/portserial.c **** * SUBSTITUTE GOODS OR SERVICES; LOSS OF USE, DATA, OR PROFITS; OR BUSINESS
  28:../freemodbus-v1.5.0/port/portserial.c **** * INTERRUPTION) HOWEVER CAUSED AND ON ANY THEORY OF LIABILITY, WHETHER IN
  29:../freemodbus-v1.5.0/port/portserial.c **** * CONTRACT, STRICT LIABILITY,OR TORT (INCLUDING NEGLIGENCE OR OTHERWISE)
  30:../freemodbus-v1.5.0/port/portserial.c **** * ARISING IN ANY WAY OUT OF THE USE OF THIS SOFTWARE, EVEN IF ADVISED OF THE
  31:../freemodbus-v1.5.0/port/portserial.c **** * POSSIBILITY OF SUCH DAMAGE.
  32:../freemodbus-v1.5.0/port/portserial.c **** *
  33:../freemodbus-v1.5.0/port/portserial.c **** * To improve the quality of the software, users are encouraged to share
  34:../freemodbus-v1.5.0/port/portserial.c **** * modifications, enhancements or bug fixes with Infineon Technologies AG
  35:../freemodbus-v1.5.0/port/portserial.c **** * (dave@infineon.com).
  36:../freemodbus-v1.5.0/port/portserial.c **** *
  37:../freemodbus-v1.5.0/port/portserial.c **** *****************************************************************************/
  38:../freemodbus-v1.5.0/port/portserial.c **** 
  39:../freemodbus-v1.5.0/port/portserial.c **** /****************************************************************
  40:../freemodbus-v1.5.0/port/portserial.c **** * HEADER FILES
  41:../freemodbus-v1.5.0/port/portserial.c **** ***************************************************************/
  42:../freemodbus-v1.5.0/port/portserial.c **** /* Enter MCU Includes here */
  43:../freemodbus-v1.5.0/port/portserial.c **** #include "XMC1100.h"
  44:../freemodbus-v1.5.0/port/portserial.c **** #include "xmc_uart.h"
  45:../freemodbus-v1.5.0/port/portserial.c **** #include "xmc_gpio.h"
  46:../freemodbus-v1.5.0/port/portserial.c **** #include "GPIO.h"
  47:../freemodbus-v1.5.0/port/portserial.c **** 
  48:../freemodbus-v1.5.0/port/portserial.c **** #include "port.h"
  49:../freemodbus-v1.5.0/port/portserial.c **** #include "mb.h"
  50:../freemodbus-v1.5.0/port/portserial.c **** #include "mbport.h"
  51:../freemodbus-v1.5.0/port/portserial.c **** #include "mbconfig.h"
  52:../freemodbus-v1.5.0/port/portserial.c **** 
  53:../freemodbus-v1.5.0/port/portserial.c **** #if ((MB_RTU_ENABLED|MB_ASCII_ENABLED) > 0U)
  54:../freemodbus-v1.5.0/port/portserial.c **** /****************************************************************
  55:../freemodbus-v1.5.0/port/portserial.c **** * LOCAL DATA
  56:../freemodbus-v1.5.0/port/portserial.c **** ***************************************************************/
  57:../freemodbus-v1.5.0/port/portserial.c **** 
  58:../freemodbus-v1.5.0/port/portserial.c **** static XMC_USIC_CH_t *ptr_uart = 0;
  59:../freemodbus-v1.5.0/port/portserial.c **** 
  60:../freemodbus-v1.5.0/port/portserial.c **** /****************************************************************
  61:../freemodbus-v1.5.0/port/portserial.c **** * API IMPLEMENTATION
  62:../freemodbus-v1.5.0/port/portserial.c **** ***************************************************************/
  63:../freemodbus-v1.5.0/port/portserial.c **** void MB_register_UART(XMC_USIC_CH_t *uart)
  64:../freemodbus-v1.5.0/port/portserial.c **** {
  26              	 .loc 1 64 0
  27              	 .cfi_startproc
  28              	.LVL0:
  65:../freemodbus-v1.5.0/port/portserial.c **** 	ptr_uart = uart;
  29              	 .loc 1 65 0
  30 0000 014B     	 ldr r3,.L2
  31 0002 1860     	 str r0,[r3]
  66:../freemodbus-v1.5.0/port/portserial.c **** }
  32              	 .loc 1 66 0
  33              	 
  34 0004 7047     	 bx lr
  35              	.L3:
  36 0006 C046     	 .align 2
  37              	.L2:
  38 0008 00000000 	 .word .LANCHOR0
  39              	 .cfi_endproc
  40              	.LFE494:
  42              	 .section .text.vMBPortSerialEnable,"ax",%progbits
  43              	 .align 2
  44              	 .global vMBPortSerialEnable
  45              	 .code 16
  46              	 .thumb_func
  48              	vMBPortSerialEnable:
  49              	.LFB495:
  67:../freemodbus-v1.5.0/port/portserial.c **** 
  68:../freemodbus-v1.5.0/port/portserial.c **** void  vMBPortSerialEnable( BOOL xRxEnable, BOOL xTxEnable )
  69:../freemodbus-v1.5.0/port/portserial.c **** {
  50              	 .loc 1 69 0
  51              	 .cfi_startproc
  52              	.LVL1:
  53 0000 08B5     	 push {r3,lr}
  54              	.LCFI0:
  55              	 .cfi_def_cfa_offset 8
  56              	 .cfi_offset 3,-8
  57              	 .cfi_offset 14,-4
  70:../freemodbus-v1.5.0/port/portserial.c **** 	/* We check if only TX or RX is active else we have a problem */
  71:../freemodbus-v1.5.0/port/portserial.c **** 	if( ( TRUE == xRxEnable ) && ( TRUE == xTxEnable ) ){ /* COVERS TX=TRUE and RX=TRUE */
  58              	 .loc 1 71 0
  59 0002 0128     	 cmp r0,#1
  60 0004 01D1     	 bne .L5
  61              	 .loc 1 71 0 is_stmt 0 discriminator 1
  62 0006 0129     	 cmp r1,#1
  63 0008 1CD0     	 beq .L4
  64              	.L5:
  72:../freemodbus-v1.5.0/port/portserial.c **** 		/* This is an unsupported configuration */
  73:../freemodbus-v1.5.0/port/portserial.c **** 		/* We fall back to RX only and if supported report an error */
  74:../freemodbus-v1.5.0/port/portserial.c **** 	} else if(TRUE==xTxEnable ){ /* Covers TX = TRUE and RX =FALSE */
  65              	 .loc 1 74 0 is_stmt 1
  66 000a 0129     	 cmp r1,#1
  67 000c 09D1     	 bne .L7
  68              	.LVL2:
  69              	.LBB25:
  70              	.LBB26:
  71              	 .file 2 "C:/Projekte/Infineon_Dave/eHaJo/FlapFlap/Libraries/XMCLib/inc/xmc_gpio.h"
   1:C:/Projekte/Infineon_Dave/eHaJo/FlapFlap/Libraries/XMCLib/inc\xmc_gpio.h **** /**
   2:C:/Projekte/Infineon_Dave/eHaJo/FlapFlap/Libraries/XMCLib/inc\xmc_gpio.h ****  * @file xmc_gpio.h
   3:C:/Projekte/Infineon_Dave/eHaJo/FlapFlap/Libraries/XMCLib/inc\xmc_gpio.h ****  * @date 2015-06-20
   4:C:/Projekte/Infineon_Dave/eHaJo/FlapFlap/Libraries/XMCLib/inc\xmc_gpio.h ****  *
   5:C:/Projekte/Infineon_Dave/eHaJo/FlapFlap/Libraries/XMCLib/inc\xmc_gpio.h ****  * @cond
   6:C:/Projekte/Infineon_Dave/eHaJo/FlapFlap/Libraries/XMCLib/inc\xmc_gpio.h ****  **************************************************************************************************
   7:C:/Projekte/Infineon_Dave/eHaJo/FlapFlap/Libraries/XMCLib/inc\xmc_gpio.h ****  * XMClib v2.1.16 - XMC Peripheral Driver Library 
   8:C:/Projekte/Infineon_Dave/eHaJo/FlapFlap/Libraries/XMCLib/inc\xmc_gpio.h ****  *
   9:C:/Projekte/Infineon_Dave/eHaJo/FlapFlap/Libraries/XMCLib/inc\xmc_gpio.h ****  * Copyright (c) 2015-2017, Infineon Technologies AG
  10:C:/Projekte/Infineon_Dave/eHaJo/FlapFlap/Libraries/XMCLib/inc\xmc_gpio.h ****  * All rights reserved.                        
  11:C:/Projekte/Infineon_Dave/eHaJo/FlapFlap/Libraries/XMCLib/inc\xmc_gpio.h ****  *                                             
  12:C:/Projekte/Infineon_Dave/eHaJo/FlapFlap/Libraries/XMCLib/inc\xmc_gpio.h ****  * Redistribution and use in source and binary forms, with or without modification,are permitted pr
  13:C:/Projekte/Infineon_Dave/eHaJo/FlapFlap/Libraries/XMCLib/inc\xmc_gpio.h ****  * following conditions are met:   
  14:C:/Projekte/Infineon_Dave/eHaJo/FlapFlap/Libraries/XMCLib/inc\xmc_gpio.h ****  *                                                                              
  15:C:/Projekte/Infineon_Dave/eHaJo/FlapFlap/Libraries/XMCLib/inc\xmc_gpio.h ****  * Redistributions of source code must retain the above copyright notice, this list of conditions a
  16:C:/Projekte/Infineon_Dave/eHaJo/FlapFlap/Libraries/XMCLib/inc\xmc_gpio.h ****  * disclaimer.                        
  17:C:/Projekte/Infineon_Dave/eHaJo/FlapFlap/Libraries/XMCLib/inc\xmc_gpio.h ****  * 
  18:C:/Projekte/Infineon_Dave/eHaJo/FlapFlap/Libraries/XMCLib/inc\xmc_gpio.h ****  * Redistributions in binary form must reproduce the above copyright notice, this list of condition
  19:C:/Projekte/Infineon_Dave/eHaJo/FlapFlap/Libraries/XMCLib/inc\xmc_gpio.h ****  * disclaimer in the documentation and/or other materials provided with the distribution.          
  20:C:/Projekte/Infineon_Dave/eHaJo/FlapFlap/Libraries/XMCLib/inc\xmc_gpio.h ****  * 
  21:C:/Projekte/Infineon_Dave/eHaJo/FlapFlap/Libraries/XMCLib/inc\xmc_gpio.h ****  * Neither the name of the copyright holders nor the names of its contributors may be used to endor
  22:C:/Projekte/Infineon_Dave/eHaJo/FlapFlap/Libraries/XMCLib/inc\xmc_gpio.h ****  * products derived from this software without specific prior written permission.                  
  23:C:/Projekte/Infineon_Dave/eHaJo/FlapFlap/Libraries/XMCLib/inc\xmc_gpio.h ****  *                                                                              
  24:C:/Projekte/Infineon_Dave/eHaJo/FlapFlap/Libraries/XMCLib/inc\xmc_gpio.h ****  * THIS SOFTWARE IS PROVIDED BY THE COPYRIGHT HOLDERS AND CONTRIBUTORS "AS IS" AND ANY EXPRESS OR I
  25:C:/Projekte/Infineon_Dave/eHaJo/FlapFlap/Libraries/XMCLib/inc\xmc_gpio.h ****  * INCLUDING, BUT NOT LIMITED TO, THE IMPLIED WARRANTIES OF MERCHANTABILITY AND FITNESS FOR A PARTI
  26:C:/Projekte/Infineon_Dave/eHaJo/FlapFlap/Libraries/XMCLib/inc\xmc_gpio.h ****  * DISCLAIMED. IN NO EVENT SHALL THE COPYRIGHT HOLDER OR CONTRIBUTORS BE LIABLE  FOR ANY DIRECT, IN
  27:C:/Projekte/Infineon_Dave/eHaJo/FlapFlap/Libraries/XMCLib/inc\xmc_gpio.h ****  * SPECIAL, EXEMPLARY, OR CONSEQUENTIAL DAMAGES (INCLUDING, BUT NOT LIMITED TO, PROCUREMENT OF SUBS
  28:C:/Projekte/Infineon_Dave/eHaJo/FlapFlap/Libraries/XMCLib/inc\xmc_gpio.h ****  * SERVICES; LOSS OF USE, DATA, OR PROFITS; OR BUSINESS INTERRUPTION) HOWEVER CAUSED AND ON ANY THE
  29:C:/Projekte/Infineon_Dave/eHaJo/FlapFlap/Libraries/XMCLib/inc\xmc_gpio.h ****  * WHETHER IN CONTRACT, STRICT LIABILITY,OR TORT (INCLUDING NEGLIGENCE OR OTHERWISE) ARISING IN ANY
  30:C:/Projekte/Infineon_Dave/eHaJo/FlapFlap/Libraries/XMCLib/inc\xmc_gpio.h ****  * OF THIS SOFTWARE, EVEN IF ADVISED OF THE POSSIBILITY OF SUCH DAMAGE.                            
  31:C:/Projekte/Infineon_Dave/eHaJo/FlapFlap/Libraries/XMCLib/inc\xmc_gpio.h ****  *                                                                              
  32:C:/Projekte/Infineon_Dave/eHaJo/FlapFlap/Libraries/XMCLib/inc\xmc_gpio.h ****  * To improve the quality of the software, users are encouraged to share modifications, enhancement
  33:C:/Projekte/Infineon_Dave/eHaJo/FlapFlap/Libraries/XMCLib/inc\xmc_gpio.h ****  * Infineon Technologies AG dave@infineon.com).                                                    
  34:C:/Projekte/Infineon_Dave/eHaJo/FlapFlap/Libraries/XMCLib/inc\xmc_gpio.h ****  **************************************************************************************************
  35:C:/Projekte/Infineon_Dave/eHaJo/FlapFlap/Libraries/XMCLib/inc\xmc_gpio.h ****  *
  36:C:/Projekte/Infineon_Dave/eHaJo/FlapFlap/Libraries/XMCLib/inc\xmc_gpio.h ****  * Change History
  37:C:/Projekte/Infineon_Dave/eHaJo/FlapFlap/Libraries/XMCLib/inc\xmc_gpio.h ****  * --------------
  38:C:/Projekte/Infineon_Dave/eHaJo/FlapFlap/Libraries/XMCLib/inc\xmc_gpio.h ****  *
  39:C:/Projekte/Infineon_Dave/eHaJo/FlapFlap/Libraries/XMCLib/inc\xmc_gpio.h ****  * 2015-02-20:
  40:C:/Projekte/Infineon_Dave/eHaJo/FlapFlap/Libraries/XMCLib/inc\xmc_gpio.h ****  *     - Initial draft<br>
  41:C:/Projekte/Infineon_Dave/eHaJo/FlapFlap/Libraries/XMCLib/inc\xmc_gpio.h ****  *     - Documentation improved <br>
  42:C:/Projekte/Infineon_Dave/eHaJo/FlapFlap/Libraries/XMCLib/inc\xmc_gpio.h ****  *      
  43:C:/Projekte/Infineon_Dave/eHaJo/FlapFlap/Libraries/XMCLib/inc\xmc_gpio.h ****  * 2015-06-20:
  44:C:/Projekte/Infineon_Dave/eHaJo/FlapFlap/Libraries/XMCLib/inc\xmc_gpio.h ****  *     - Removed version macros and declaration of GetDriverVersion API
  45:C:/Projekte/Infineon_Dave/eHaJo/FlapFlap/Libraries/XMCLib/inc\xmc_gpio.h ****  *
  46:C:/Projekte/Infineon_Dave/eHaJo/FlapFlap/Libraries/XMCLib/inc\xmc_gpio.h ****  * @endcond
  47:C:/Projekte/Infineon_Dave/eHaJo/FlapFlap/Libraries/XMCLib/inc\xmc_gpio.h ****  *
  48:C:/Projekte/Infineon_Dave/eHaJo/FlapFlap/Libraries/XMCLib/inc\xmc_gpio.h ****  */
  49:C:/Projekte/Infineon_Dave/eHaJo/FlapFlap/Libraries/XMCLib/inc\xmc_gpio.h **** 
  50:C:/Projekte/Infineon_Dave/eHaJo/FlapFlap/Libraries/XMCLib/inc\xmc_gpio.h **** #ifndef XMC_GPIO_H
  51:C:/Projekte/Infineon_Dave/eHaJo/FlapFlap/Libraries/XMCLib/inc\xmc_gpio.h **** #define XMC_GPIO_H
  52:C:/Projekte/Infineon_Dave/eHaJo/FlapFlap/Libraries/XMCLib/inc\xmc_gpio.h **** 
  53:C:/Projekte/Infineon_Dave/eHaJo/FlapFlap/Libraries/XMCLib/inc\xmc_gpio.h **** /**************************************************************************************************
  54:C:/Projekte/Infineon_Dave/eHaJo/FlapFlap/Libraries/XMCLib/inc\xmc_gpio.h ****  * HEADER FILES
  55:C:/Projekte/Infineon_Dave/eHaJo/FlapFlap/Libraries/XMCLib/inc\xmc_gpio.h ****  **************************************************************************************************
  56:C:/Projekte/Infineon_Dave/eHaJo/FlapFlap/Libraries/XMCLib/inc\xmc_gpio.h **** 
  57:C:/Projekte/Infineon_Dave/eHaJo/FlapFlap/Libraries/XMCLib/inc\xmc_gpio.h **** #include "xmc_common.h"
  58:C:/Projekte/Infineon_Dave/eHaJo/FlapFlap/Libraries/XMCLib/inc\xmc_gpio.h **** 
  59:C:/Projekte/Infineon_Dave/eHaJo/FlapFlap/Libraries/XMCLib/inc\xmc_gpio.h **** /**
  60:C:/Projekte/Infineon_Dave/eHaJo/FlapFlap/Libraries/XMCLib/inc\xmc_gpio.h ****  * @addtogroup XMClib XMC Peripheral Library
  61:C:/Projekte/Infineon_Dave/eHaJo/FlapFlap/Libraries/XMCLib/inc\xmc_gpio.h ****  * @{
  62:C:/Projekte/Infineon_Dave/eHaJo/FlapFlap/Libraries/XMCLib/inc\xmc_gpio.h ****  */
  63:C:/Projekte/Infineon_Dave/eHaJo/FlapFlap/Libraries/XMCLib/inc\xmc_gpio.h **** 
  64:C:/Projekte/Infineon_Dave/eHaJo/FlapFlap/Libraries/XMCLib/inc\xmc_gpio.h **** /**
  65:C:/Projekte/Infineon_Dave/eHaJo/FlapFlap/Libraries/XMCLib/inc\xmc_gpio.h ****  * @addtogroup GPIO
  66:C:/Projekte/Infineon_Dave/eHaJo/FlapFlap/Libraries/XMCLib/inc\xmc_gpio.h ****  * @brief General Purpose Input Output (GPIO) driver for the XMC microcontroller family.
  67:C:/Projekte/Infineon_Dave/eHaJo/FlapFlap/Libraries/XMCLib/inc\xmc_gpio.h ****  *
  68:C:/Projekte/Infineon_Dave/eHaJo/FlapFlap/Libraries/XMCLib/inc\xmc_gpio.h ****  * GPIO driver provide a generic and very flexible software interface for all standard digital I/O 
  69:C:/Projekte/Infineon_Dave/eHaJo/FlapFlap/Libraries/XMCLib/inc\xmc_gpio.h ****  * Each port slice has individual interfaces for the operation as General Purpose I/O and it furthe
  70:C:/Projekte/Infineon_Dave/eHaJo/FlapFlap/Libraries/XMCLib/inc\xmc_gpio.h ****  * connectivity to the on-chip periphery and the control for the pad characteristics. 
  71:C:/Projekte/Infineon_Dave/eHaJo/FlapFlap/Libraries/XMCLib/inc\xmc_gpio.h ****  *
  72:C:/Projekte/Infineon_Dave/eHaJo/FlapFlap/Libraries/XMCLib/inc\xmc_gpio.h ****  * The driver is divided into Input and Output mode.
  73:C:/Projekte/Infineon_Dave/eHaJo/FlapFlap/Libraries/XMCLib/inc\xmc_gpio.h ****  *
  74:C:/Projekte/Infineon_Dave/eHaJo/FlapFlap/Libraries/XMCLib/inc\xmc_gpio.h ****  * Input mode features:
  75:C:/Projekte/Infineon_Dave/eHaJo/FlapFlap/Libraries/XMCLib/inc\xmc_gpio.h ****  * -# Configuration structure XMC_GPIO_CONFIG_t and initialization function XMC_GPIO_Init()
  76:C:/Projekte/Infineon_Dave/eHaJo/FlapFlap/Libraries/XMCLib/inc\xmc_gpio.h ****  * -# Allows the selection of weak pull-up or pull-down device. Configuration structure XMC_GPIO_MO
  77:C:/Projekte/Infineon_Dave/eHaJo/FlapFlap/Libraries/XMCLib/inc\xmc_gpio.h ****  * \if XMC1
  78:C:/Projekte/Infineon_Dave/eHaJo/FlapFlap/Libraries/XMCLib/inc\xmc_gpio.h ****  * -# Allows the selection of input hysteresis. XMC_GPIO_SetInputHysteresis()
  79:C:/Projekte/Infineon_Dave/eHaJo/FlapFlap/Libraries/XMCLib/inc\xmc_gpio.h ****  * \endif
  80:C:/Projekte/Infineon_Dave/eHaJo/FlapFlap/Libraries/XMCLib/inc\xmc_gpio.h ****  *
  81:C:/Projekte/Infineon_Dave/eHaJo/FlapFlap/Libraries/XMCLib/inc\xmc_gpio.h ****  * 
  82:C:/Projekte/Infineon_Dave/eHaJo/FlapFlap/Libraries/XMCLib/inc\xmc_gpio.h ****  * Output mode features:
  83:C:/Projekte/Infineon_Dave/eHaJo/FlapFlap/Libraries/XMCLib/inc\xmc_gpio.h ****  * -# Allows the selection of push pull/open drain and Alternate output. Configuration structure XM
  84:C:/Projekte/Infineon_Dave/eHaJo/FlapFlap/Libraries/XMCLib/inc\xmc_gpio.h ****  * \if XMC4
  85:C:/Projekte/Infineon_Dave/eHaJo/FlapFlap/Libraries/XMCLib/inc\xmc_gpio.h ****  * -# Allows the selection of pad driver strength. Configuration structure XMC_GPIO_OUTPUT_STRENGTH
  86:C:/Projekte/Infineon_Dave/eHaJo/FlapFlap/Libraries/XMCLib/inc\xmc_gpio.h ****  * \endif
  87:C:/Projekte/Infineon_Dave/eHaJo/FlapFlap/Libraries/XMCLib/inc\xmc_gpio.h ****  *
  88:C:/Projekte/Infineon_Dave/eHaJo/FlapFlap/Libraries/XMCLib/inc\xmc_gpio.h ****  * -# Allows the selection of initial output level. Configuration structure XMC_GPIO_OUTPUT_LEVEL_t
  89:C:/Projekte/Infineon_Dave/eHaJo/FlapFlap/Libraries/XMCLib/inc\xmc_gpio.h ****  *
  90:C:/Projekte/Infineon_Dave/eHaJo/FlapFlap/Libraries/XMCLib/inc\xmc_gpio.h ****  *@{
  91:C:/Projekte/Infineon_Dave/eHaJo/FlapFlap/Libraries/XMCLib/inc\xmc_gpio.h ****  */
  92:C:/Projekte/Infineon_Dave/eHaJo/FlapFlap/Libraries/XMCLib/inc\xmc_gpio.h ****  
  93:C:/Projekte/Infineon_Dave/eHaJo/FlapFlap/Libraries/XMCLib/inc\xmc_gpio.h **** /**************************************************************************************************
  94:C:/Projekte/Infineon_Dave/eHaJo/FlapFlap/Libraries/XMCLib/inc\xmc_gpio.h ****  * MACROS
  95:C:/Projekte/Infineon_Dave/eHaJo/FlapFlap/Libraries/XMCLib/inc\xmc_gpio.h ****  **************************************************************************************************
  96:C:/Projekte/Infineon_Dave/eHaJo/FlapFlap/Libraries/XMCLib/inc\xmc_gpio.h **** 
  97:C:/Projekte/Infineon_Dave/eHaJo/FlapFlap/Libraries/XMCLib/inc\xmc_gpio.h **** #define PORT_IOCR_PC_Pos PORT0_IOCR0_PC0_Pos
  98:C:/Projekte/Infineon_Dave/eHaJo/FlapFlap/Libraries/XMCLib/inc\xmc_gpio.h **** #define PORT_IOCR_PC_Msk PORT0_IOCR0_PC0_Msk
  99:C:/Projekte/Infineon_Dave/eHaJo/FlapFlap/Libraries/XMCLib/inc\xmc_gpio.h **** 
 100:C:/Projekte/Infineon_Dave/eHaJo/FlapFlap/Libraries/XMCLib/inc\xmc_gpio.h **** #define PORT_IOCR_PC_Size 				(8U)
 101:C:/Projekte/Infineon_Dave/eHaJo/FlapFlap/Libraries/XMCLib/inc\xmc_gpio.h **** 											
 102:C:/Projekte/Infineon_Dave/eHaJo/FlapFlap/Libraries/XMCLib/inc\xmc_gpio.h **** 
 103:C:/Projekte/Infineon_Dave/eHaJo/FlapFlap/Libraries/XMCLib/inc\xmc_gpio.h **** #define XMC_GPIO_CHECK_OUTPUT_LEVEL(level) ((level == XMC_GPIO_OUTPUT_LEVEL_LOW) || \
 104:C:/Projekte/Infineon_Dave/eHaJo/FlapFlap/Libraries/XMCLib/inc\xmc_gpio.h ****                                             (level == XMC_GPIO_OUTPUT_LEVEL_HIGH))
 105:C:/Projekte/Infineon_Dave/eHaJo/FlapFlap/Libraries/XMCLib/inc\xmc_gpio.h ****                                             
 106:C:/Projekte/Infineon_Dave/eHaJo/FlapFlap/Libraries/XMCLib/inc\xmc_gpio.h **** #define XMC_GPIO_CHECK_HWCTRL(hwctrl) ((hwctrl == XMC_GPIO_HWCTRL_DISABLED) || \
 107:C:/Projekte/Infineon_Dave/eHaJo/FlapFlap/Libraries/XMCLib/inc\xmc_gpio.h ****                                        (hwctrl == XMC_GPIO_HWCTRL_PERIPHERAL1) || \
 108:C:/Projekte/Infineon_Dave/eHaJo/FlapFlap/Libraries/XMCLib/inc\xmc_gpio.h ****                                        (hwctrl == XMC_GPIO_HWCTRL_PERIPHERAL2))                    
 109:C:/Projekte/Infineon_Dave/eHaJo/FlapFlap/Libraries/XMCLib/inc\xmc_gpio.h ****                                             
 110:C:/Projekte/Infineon_Dave/eHaJo/FlapFlap/Libraries/XMCLib/inc\xmc_gpio.h **** /**************************************************************************************************
 111:C:/Projekte/Infineon_Dave/eHaJo/FlapFlap/Libraries/XMCLib/inc\xmc_gpio.h ****  * ENUMS
 112:C:/Projekte/Infineon_Dave/eHaJo/FlapFlap/Libraries/XMCLib/inc\xmc_gpio.h ****  **************************************************************************************************
 113:C:/Projekte/Infineon_Dave/eHaJo/FlapFlap/Libraries/XMCLib/inc\xmc_gpio.h **** 
 114:C:/Projekte/Infineon_Dave/eHaJo/FlapFlap/Libraries/XMCLib/inc\xmc_gpio.h **** 
 115:C:/Projekte/Infineon_Dave/eHaJo/FlapFlap/Libraries/XMCLib/inc\xmc_gpio.h **** /**
 116:C:/Projekte/Infineon_Dave/eHaJo/FlapFlap/Libraries/XMCLib/inc\xmc_gpio.h ****  * Defines output level of a pin. Use type \a XMC_GPIO_OUTPUT_LEVEL_t for this enum.
 117:C:/Projekte/Infineon_Dave/eHaJo/FlapFlap/Libraries/XMCLib/inc\xmc_gpio.h ****  */
 118:C:/Projekte/Infineon_Dave/eHaJo/FlapFlap/Libraries/XMCLib/inc\xmc_gpio.h **** typedef enum XMC_GPIO_OUTPUT_LEVEL
 119:C:/Projekte/Infineon_Dave/eHaJo/FlapFlap/Libraries/XMCLib/inc\xmc_gpio.h **** {
 120:C:/Projekte/Infineon_Dave/eHaJo/FlapFlap/Libraries/XMCLib/inc\xmc_gpio.h ****   XMC_GPIO_OUTPUT_LEVEL_LOW  = 0x10000U, /**<  Reset bit */
 121:C:/Projekte/Infineon_Dave/eHaJo/FlapFlap/Libraries/XMCLib/inc\xmc_gpio.h ****   XMC_GPIO_OUTPUT_LEVEL_HIGH = 0x1U, 	/**< Set bit  */
 122:C:/Projekte/Infineon_Dave/eHaJo/FlapFlap/Libraries/XMCLib/inc\xmc_gpio.h **** } XMC_GPIO_OUTPUT_LEVEL_t;
 123:C:/Projekte/Infineon_Dave/eHaJo/FlapFlap/Libraries/XMCLib/inc\xmc_gpio.h **** 
 124:C:/Projekte/Infineon_Dave/eHaJo/FlapFlap/Libraries/XMCLib/inc\xmc_gpio.h **** /**
 125:C:/Projekte/Infineon_Dave/eHaJo/FlapFlap/Libraries/XMCLib/inc\xmc_gpio.h ****  * Defines direct hardware control characteristics of the pin . Use type \a XMC_GPIO_HWCTRL_t for t
 126:C:/Projekte/Infineon_Dave/eHaJo/FlapFlap/Libraries/XMCLib/inc\xmc_gpio.h ****  */
 127:C:/Projekte/Infineon_Dave/eHaJo/FlapFlap/Libraries/XMCLib/inc\xmc_gpio.h **** typedef enum XMC_GPIO_HWCTRL
 128:C:/Projekte/Infineon_Dave/eHaJo/FlapFlap/Libraries/XMCLib/inc\xmc_gpio.h **** {
 129:C:/Projekte/Infineon_Dave/eHaJo/FlapFlap/Libraries/XMCLib/inc\xmc_gpio.h ****   XMC_GPIO_HWCTRL_DISABLED     = 0x0U, /**<  Software control only */
 130:C:/Projekte/Infineon_Dave/eHaJo/FlapFlap/Libraries/XMCLib/inc\xmc_gpio.h ****   XMC_GPIO_HWCTRL_PERIPHERAL1  = 0x1U, /**<  HWI0/HWO0 control path can override the software confi
 131:C:/Projekte/Infineon_Dave/eHaJo/FlapFlap/Libraries/XMCLib/inc\xmc_gpio.h ****   XMC_GPIO_HWCTRL_PERIPHERAL2  = 0x2U  /**<  HWI1/HWO1 control path can override the software confi
 132:C:/Projekte/Infineon_Dave/eHaJo/FlapFlap/Libraries/XMCLib/inc\xmc_gpio.h **** } XMC_GPIO_HWCTRL_t;
 133:C:/Projekte/Infineon_Dave/eHaJo/FlapFlap/Libraries/XMCLib/inc\xmc_gpio.h **** 
 134:C:/Projekte/Infineon_Dave/eHaJo/FlapFlap/Libraries/XMCLib/inc\xmc_gpio.h **** /**************************************************************************************************
 135:C:/Projekte/Infineon_Dave/eHaJo/FlapFlap/Libraries/XMCLib/inc\xmc_gpio.h ****  * DEVICE FAMILY EXTENSIONS
 136:C:/Projekte/Infineon_Dave/eHaJo/FlapFlap/Libraries/XMCLib/inc\xmc_gpio.h ****  **************************************************************************************************
 137:C:/Projekte/Infineon_Dave/eHaJo/FlapFlap/Libraries/XMCLib/inc\xmc_gpio.h **** 
 138:C:/Projekte/Infineon_Dave/eHaJo/FlapFlap/Libraries/XMCLib/inc\xmc_gpio.h ****  #if UC_FAMILY == XMC1
 139:C:/Projekte/Infineon_Dave/eHaJo/FlapFlap/Libraries/XMCLib/inc\xmc_gpio.h **** #include "xmc1_gpio.h"
 140:C:/Projekte/Infineon_Dave/eHaJo/FlapFlap/Libraries/XMCLib/inc\xmc_gpio.h **** #elif UC_FAMILY == XMC4
 141:C:/Projekte/Infineon_Dave/eHaJo/FlapFlap/Libraries/XMCLib/inc\xmc_gpio.h **** #include "xmc4_gpio.h"
 142:C:/Projekte/Infineon_Dave/eHaJo/FlapFlap/Libraries/XMCLib/inc\xmc_gpio.h **** #else
 143:C:/Projekte/Infineon_Dave/eHaJo/FlapFlap/Libraries/XMCLib/inc\xmc_gpio.h **** #error "xmc_gpio.h: family device not supported"
 144:C:/Projekte/Infineon_Dave/eHaJo/FlapFlap/Libraries/XMCLib/inc\xmc_gpio.h **** #endif
 145:C:/Projekte/Infineon_Dave/eHaJo/FlapFlap/Libraries/XMCLib/inc\xmc_gpio.h **** 
 146:C:/Projekte/Infineon_Dave/eHaJo/FlapFlap/Libraries/XMCLib/inc\xmc_gpio.h **** /**************************************************************************************************
 147:C:/Projekte/Infineon_Dave/eHaJo/FlapFlap/Libraries/XMCLib/inc\xmc_gpio.h ****  * API PROTOTYPES
 148:C:/Projekte/Infineon_Dave/eHaJo/FlapFlap/Libraries/XMCLib/inc\xmc_gpio.h ****  **************************************************************************************************
 149:C:/Projekte/Infineon_Dave/eHaJo/FlapFlap/Libraries/XMCLib/inc\xmc_gpio.h **** 
 150:C:/Projekte/Infineon_Dave/eHaJo/FlapFlap/Libraries/XMCLib/inc\xmc_gpio.h **** #ifdef __cplusplus
 151:C:/Projekte/Infineon_Dave/eHaJo/FlapFlap/Libraries/XMCLib/inc\xmc_gpio.h **** extern "C" {
 152:C:/Projekte/Infineon_Dave/eHaJo/FlapFlap/Libraries/XMCLib/inc\xmc_gpio.h **** #endif
 153:C:/Projekte/Infineon_Dave/eHaJo/FlapFlap/Libraries/XMCLib/inc\xmc_gpio.h **** 
 154:C:/Projekte/Infineon_Dave/eHaJo/FlapFlap/Libraries/XMCLib/inc\xmc_gpio.h **** 
 155:C:/Projekte/Infineon_Dave/eHaJo/FlapFlap/Libraries/XMCLib/inc\xmc_gpio.h **** /**
 156:C:/Projekte/Infineon_Dave/eHaJo/FlapFlap/Libraries/XMCLib/inc\xmc_gpio.h ****  * @param  port	  Constant pointer pointing to GPIO port, to access port registers like Pn_OUT,Pn_O
 157:C:/Projekte/Infineon_Dave/eHaJo/FlapFlap/Libraries/XMCLib/inc\xmc_gpio.h ****  * @param  pin	  Port pin number.
 158:C:/Projekte/Infineon_Dave/eHaJo/FlapFlap/Libraries/XMCLib/inc\xmc_gpio.h ****  * @param  config GPIO configuration data structure. Refer data structure @ref XMC_GPIO_CONFIG_t fo
 159:C:/Projekte/Infineon_Dave/eHaJo/FlapFlap/Libraries/XMCLib/inc\xmc_gpio.h ****  *
 160:C:/Projekte/Infineon_Dave/eHaJo/FlapFlap/Libraries/XMCLib/inc\xmc_gpio.h ****  * @return None
 161:C:/Projekte/Infineon_Dave/eHaJo/FlapFlap/Libraries/XMCLib/inc\xmc_gpio.h ****  *
 162:C:/Projekte/Infineon_Dave/eHaJo/FlapFlap/Libraries/XMCLib/inc\xmc_gpio.h ****  * \par<b>Description:</b><br>
 163:C:/Projekte/Infineon_Dave/eHaJo/FlapFlap/Libraries/XMCLib/inc\xmc_gpio.h ****  * \if XMC1
 164:C:/Projekte/Infineon_Dave/eHaJo/FlapFlap/Libraries/XMCLib/inc\xmc_gpio.h ****  * Initializes input / output mode settings like, pull up / pull down devices,hysteresis, push pull
 165:C:/Projekte/Infineon_Dave/eHaJo/FlapFlap/Libraries/XMCLib/inc\xmc_gpio.h ****  * Also configures alternate function outputs and clears hardware port control for a selected \a po
 166:C:/Projekte/Infineon_Dave/eHaJo/FlapFlap/Libraries/XMCLib/inc\xmc_gpio.h ****  * \a config provides selected I/O settings. It configures hardware registers Pn_IOCR,Pn_OUT, Pn_OM
 167:C:/Projekte/Infineon_Dave/eHaJo/FlapFlap/Libraries/XMCLib/inc\xmc_gpio.h ****  * \endif
 168:C:/Projekte/Infineon_Dave/eHaJo/FlapFlap/Libraries/XMCLib/inc\xmc_gpio.h ****  * \if XMC4
 169:C:/Projekte/Infineon_Dave/eHaJo/FlapFlap/Libraries/XMCLib/inc\xmc_gpio.h ****  * Initializes input / output mode settings like, pull up / pull down devices,push pull /open drain
 170:C:/Projekte/Infineon_Dave/eHaJo/FlapFlap/Libraries/XMCLib/inc\xmc_gpio.h ****  * Also configures alternate function outputs and clears hardware port control for selected \a port
 171:C:/Projekte/Infineon_Dave/eHaJo/FlapFlap/Libraries/XMCLib/inc\xmc_gpio.h ****  * It configures hardware registers Pn_IOCR,Pn_OUT,Pn_OMR,Pn_PDISC and Pn_PDR.\n
 172:C:/Projekte/Infineon_Dave/eHaJo/FlapFlap/Libraries/XMCLib/inc\xmc_gpio.h ****  * \endif
 173:C:/Projekte/Infineon_Dave/eHaJo/FlapFlap/Libraries/XMCLib/inc\xmc_gpio.h ****  *
 174:C:/Projekte/Infineon_Dave/eHaJo/FlapFlap/Libraries/XMCLib/inc\xmc_gpio.h ****  * \par<b>Related APIs:</b><BR>
 175:C:/Projekte/Infineon_Dave/eHaJo/FlapFlap/Libraries/XMCLib/inc\xmc_gpio.h ****  *  None
 176:C:/Projekte/Infineon_Dave/eHaJo/FlapFlap/Libraries/XMCLib/inc\xmc_gpio.h ****  *
 177:C:/Projekte/Infineon_Dave/eHaJo/FlapFlap/Libraries/XMCLib/inc\xmc_gpio.h ****  * \par<b>Note:</b><br>
 178:C:/Projekte/Infineon_Dave/eHaJo/FlapFlap/Libraries/XMCLib/inc\xmc_gpio.h ****  * This API is called in definition of DAVE_init by code generation and therefore should not be exp
 179:C:/Projekte/Infineon_Dave/eHaJo/FlapFlap/Libraries/XMCLib/inc\xmc_gpio.h ****  * for the normal operation. Use other APIs only after DAVE_init is called successfully (returns DA
 180:C:/Projekte/Infineon_Dave/eHaJo/FlapFlap/Libraries/XMCLib/inc\xmc_gpio.h ****  *
 181:C:/Projekte/Infineon_Dave/eHaJo/FlapFlap/Libraries/XMCLib/inc\xmc_gpio.h ****  *
 182:C:/Projekte/Infineon_Dave/eHaJo/FlapFlap/Libraries/XMCLib/inc\xmc_gpio.h ****  */
 183:C:/Projekte/Infineon_Dave/eHaJo/FlapFlap/Libraries/XMCLib/inc\xmc_gpio.h **** 
 184:C:/Projekte/Infineon_Dave/eHaJo/FlapFlap/Libraries/XMCLib/inc\xmc_gpio.h ****  
 185:C:/Projekte/Infineon_Dave/eHaJo/FlapFlap/Libraries/XMCLib/inc\xmc_gpio.h **** void XMC_GPIO_Init(XMC_GPIO_PORT_t *const port, const uint8_t pin, const XMC_GPIO_CONFIG_t *const c
 186:C:/Projekte/Infineon_Dave/eHaJo/FlapFlap/Libraries/XMCLib/inc\xmc_gpio.h ****  
 187:C:/Projekte/Infineon_Dave/eHaJo/FlapFlap/Libraries/XMCLib/inc\xmc_gpio.h **** /**
 188:C:/Projekte/Infineon_Dave/eHaJo/FlapFlap/Libraries/XMCLib/inc\xmc_gpio.h ****  *
 189:C:/Projekte/Infineon_Dave/eHaJo/FlapFlap/Libraries/XMCLib/inc\xmc_gpio.h ****  * @param  port	Constant pointer pointing to GPIO port, to access hardware register Pn_IOCR.
 190:C:/Projekte/Infineon_Dave/eHaJo/FlapFlap/Libraries/XMCLib/inc\xmc_gpio.h ****  * @param  pin	Port pin number.
 191:C:/Projekte/Infineon_Dave/eHaJo/FlapFlap/Libraries/XMCLib/inc\xmc_gpio.h ****  * @param  mode input / output functionality selection. Refer @ref XMC_GPIO_MODE_t for valid values
 192:C:/Projekte/Infineon_Dave/eHaJo/FlapFlap/Libraries/XMCLib/inc\xmc_gpio.h ****  *
 193:C:/Projekte/Infineon_Dave/eHaJo/FlapFlap/Libraries/XMCLib/inc\xmc_gpio.h ****  * @return None
 194:C:/Projekte/Infineon_Dave/eHaJo/FlapFlap/Libraries/XMCLib/inc\xmc_gpio.h ****  *
 195:C:/Projekte/Infineon_Dave/eHaJo/FlapFlap/Libraries/XMCLib/inc\xmc_gpio.h ****  * \par<b>Description:</b><br>
 196:C:/Projekte/Infineon_Dave/eHaJo/FlapFlap/Libraries/XMCLib/inc\xmc_gpio.h ****  * Sets digital input and output driver functionality and characteristics of a GPIO port pin. It co
 197:C:/Projekte/Infineon_Dave/eHaJo/FlapFlap/Libraries/XMCLib/inc\xmc_gpio.h ****  * registers Pn_IOCR. \a mode is initially configured during initialization in XMC_GPIO_Init(). Cal
 198:C:/Projekte/Infineon_Dave/eHaJo/FlapFlap/Libraries/XMCLib/inc\xmc_gpio.h ****  * the port direction functionality as needed later in the program.
 199:C:/Projekte/Infineon_Dave/eHaJo/FlapFlap/Libraries/XMCLib/inc\xmc_gpio.h ****  *
 200:C:/Projekte/Infineon_Dave/eHaJo/FlapFlap/Libraries/XMCLib/inc\xmc_gpio.h ****  * \par<b>Related APIs:</b><BR>
 201:C:/Projekte/Infineon_Dave/eHaJo/FlapFlap/Libraries/XMCLib/inc\xmc_gpio.h ****  *  None
 202:C:/Projekte/Infineon_Dave/eHaJo/FlapFlap/Libraries/XMCLib/inc\xmc_gpio.h ****  *
 203:C:/Projekte/Infineon_Dave/eHaJo/FlapFlap/Libraries/XMCLib/inc\xmc_gpio.h ****  */
 204:C:/Projekte/Infineon_Dave/eHaJo/FlapFlap/Libraries/XMCLib/inc\xmc_gpio.h **** 
 205:C:/Projekte/Infineon_Dave/eHaJo/FlapFlap/Libraries/XMCLib/inc\xmc_gpio.h **** void XMC_GPIO_SetMode(XMC_GPIO_PORT_t *const port, const uint8_t pin, const XMC_GPIO_MODE_t mode);
 206:C:/Projekte/Infineon_Dave/eHaJo/FlapFlap/Libraries/XMCLib/inc\xmc_gpio.h **** 
 207:C:/Projekte/Infineon_Dave/eHaJo/FlapFlap/Libraries/XMCLib/inc\xmc_gpio.h **** 
 208:C:/Projekte/Infineon_Dave/eHaJo/FlapFlap/Libraries/XMCLib/inc\xmc_gpio.h **** /**
 209:C:/Projekte/Infineon_Dave/eHaJo/FlapFlap/Libraries/XMCLib/inc\xmc_gpio.h ****  *
 210:C:/Projekte/Infineon_Dave/eHaJo/FlapFlap/Libraries/XMCLib/inc\xmc_gpio.h ****  * @param  port	 Constant pointer pointing to GPIO port, to access hardware register Pn_OMR.
 211:C:/Projekte/Infineon_Dave/eHaJo/FlapFlap/Libraries/XMCLib/inc\xmc_gpio.h ****  * @param  pin	 Port pin number.
 212:C:/Projekte/Infineon_Dave/eHaJo/FlapFlap/Libraries/XMCLib/inc\xmc_gpio.h ****  * @param  level output level selection. Refer @ref XMC_GPIO_OUTPUT_LEVEL_t for valid values.
 213:C:/Projekte/Infineon_Dave/eHaJo/FlapFlap/Libraries/XMCLib/inc\xmc_gpio.h ****  *
 214:C:/Projekte/Infineon_Dave/eHaJo/FlapFlap/Libraries/XMCLib/inc\xmc_gpio.h ****  * @return None
 215:C:/Projekte/Infineon_Dave/eHaJo/FlapFlap/Libraries/XMCLib/inc\xmc_gpio.h ****  *
 216:C:/Projekte/Infineon_Dave/eHaJo/FlapFlap/Libraries/XMCLib/inc\xmc_gpio.h ****  * \par<b>Description:</b><br>
 217:C:/Projekte/Infineon_Dave/eHaJo/FlapFlap/Libraries/XMCLib/inc\xmc_gpio.h ****  * Set port pin output level to high or low.It configures hardware registers Pn_OMR.\a level is ini
 218:C:/Projekte/Infineon_Dave/eHaJo/FlapFlap/Libraries/XMCLib/inc\xmc_gpio.h ****  * configured during initialization in XMC_GPIO_Init(). Call this API to alter output level as need
 219:C:/Projekte/Infineon_Dave/eHaJo/FlapFlap/Libraries/XMCLib/inc\xmc_gpio.h ****  *
 220:C:/Projekte/Infineon_Dave/eHaJo/FlapFlap/Libraries/XMCLib/inc\xmc_gpio.h ****  * \par<b>Related APIs:</b><BR>
 221:C:/Projekte/Infineon_Dave/eHaJo/FlapFlap/Libraries/XMCLib/inc\xmc_gpio.h ****  *  XMC_GPIO_SetOutputHigh(), XMC_GPIO_SetOutputLow().
 222:C:/Projekte/Infineon_Dave/eHaJo/FlapFlap/Libraries/XMCLib/inc\xmc_gpio.h ****  *
 223:C:/Projekte/Infineon_Dave/eHaJo/FlapFlap/Libraries/XMCLib/inc\xmc_gpio.h ****  * \par<b>Note:</b><br>
 224:C:/Projekte/Infineon_Dave/eHaJo/FlapFlap/Libraries/XMCLib/inc\xmc_gpio.h ****  * Prior to this api, user has to configure port pin to output mode using XMC_GPIO_SetMode().
 225:C:/Projekte/Infineon_Dave/eHaJo/FlapFlap/Libraries/XMCLib/inc\xmc_gpio.h ****  *
 226:C:/Projekte/Infineon_Dave/eHaJo/FlapFlap/Libraries/XMCLib/inc\xmc_gpio.h ****  */
 227:C:/Projekte/Infineon_Dave/eHaJo/FlapFlap/Libraries/XMCLib/inc\xmc_gpio.h **** 
 228:C:/Projekte/Infineon_Dave/eHaJo/FlapFlap/Libraries/XMCLib/inc\xmc_gpio.h **** 
 229:C:/Projekte/Infineon_Dave/eHaJo/FlapFlap/Libraries/XMCLib/inc\xmc_gpio.h **** __STATIC_INLINE void XMC_GPIO_SetOutputLevel(XMC_GPIO_PORT_t *const port, const uint8_t pin, const 
 230:C:/Projekte/Infineon_Dave/eHaJo/FlapFlap/Libraries/XMCLib/inc\xmc_gpio.h **** {
 231:C:/Projekte/Infineon_Dave/eHaJo/FlapFlap/Libraries/XMCLib/inc\xmc_gpio.h ****   XMC_ASSERT("XMC_GPIO_SetOutputLevel: Invalid port", XMC_GPIO_CHECK_OUTPUT_PORT(port));
 232:C:/Projekte/Infineon_Dave/eHaJo/FlapFlap/Libraries/XMCLib/inc\xmc_gpio.h ****   XMC_ASSERT("XMC_GPIO_SetOutputLevel: Invalid output level", XMC_GPIO_CHECK_OUTPUT_LEVEL(level));
 233:C:/Projekte/Infineon_Dave/eHaJo/FlapFlap/Libraries/XMCLib/inc\xmc_gpio.h ****   
 234:C:/Projekte/Infineon_Dave/eHaJo/FlapFlap/Libraries/XMCLib/inc\xmc_gpio.h ****   port->OMR = (uint32_t)level << pin;
 235:C:/Projekte/Infineon_Dave/eHaJo/FlapFlap/Libraries/XMCLib/inc\xmc_gpio.h **** }
 236:C:/Projekte/Infineon_Dave/eHaJo/FlapFlap/Libraries/XMCLib/inc\xmc_gpio.h **** 
 237:C:/Projekte/Infineon_Dave/eHaJo/FlapFlap/Libraries/XMCLib/inc\xmc_gpio.h **** 
 238:C:/Projekte/Infineon_Dave/eHaJo/FlapFlap/Libraries/XMCLib/inc\xmc_gpio.h **** /**
 239:C:/Projekte/Infineon_Dave/eHaJo/FlapFlap/Libraries/XMCLib/inc\xmc_gpio.h ****  * @param  port constant pointer pointing to GPIO port, to access hardware register Pn_OMR.
 240:C:/Projekte/Infineon_Dave/eHaJo/FlapFlap/Libraries/XMCLib/inc\xmc_gpio.h ****  * @param  pin	Port pin number.
 241:C:/Projekte/Infineon_Dave/eHaJo/FlapFlap/Libraries/XMCLib/inc\xmc_gpio.h ****  *
 242:C:/Projekte/Infineon_Dave/eHaJo/FlapFlap/Libraries/XMCLib/inc\xmc_gpio.h ****  * @return None
 243:C:/Projekte/Infineon_Dave/eHaJo/FlapFlap/Libraries/XMCLib/inc\xmc_gpio.h ****  *
 244:C:/Projekte/Infineon_Dave/eHaJo/FlapFlap/Libraries/XMCLib/inc\xmc_gpio.h ****  * \par<b>Description:</b><br>
 245:C:/Projekte/Infineon_Dave/eHaJo/FlapFlap/Libraries/XMCLib/inc\xmc_gpio.h ****  *  Sets port pin output to high. It configures hardware registers Pn_OMR.
 246:C:/Projekte/Infineon_Dave/eHaJo/FlapFlap/Libraries/XMCLib/inc\xmc_gpio.h ****  *
 247:C:/Projekte/Infineon_Dave/eHaJo/FlapFlap/Libraries/XMCLib/inc\xmc_gpio.h ****  *  \par<b>Related APIs:</b><BR>
 248:C:/Projekte/Infineon_Dave/eHaJo/FlapFlap/Libraries/XMCLib/inc\xmc_gpio.h ****  *  XMC_GPIO_SetOutputLow()
 249:C:/Projekte/Infineon_Dave/eHaJo/FlapFlap/Libraries/XMCLib/inc\xmc_gpio.h ****  *
 250:C:/Projekte/Infineon_Dave/eHaJo/FlapFlap/Libraries/XMCLib/inc\xmc_gpio.h ****  * \par<b>Note:</b><br>
 251:C:/Projekte/Infineon_Dave/eHaJo/FlapFlap/Libraries/XMCLib/inc\xmc_gpio.h ****  * Prior to this api, user has to configure port pin to output mode using XMC_GPIO_SetMode().\n
 252:C:/Projekte/Infineon_Dave/eHaJo/FlapFlap/Libraries/XMCLib/inc\xmc_gpio.h ****  * Register Pn_OMR is virtual and does not contain any flip-flop. A read action delivers the value 
 253:C:/Projekte/Infineon_Dave/eHaJo/FlapFlap/Libraries/XMCLib/inc\xmc_gpio.h ****  *
 254:C:/Projekte/Infineon_Dave/eHaJo/FlapFlap/Libraries/XMCLib/inc\xmc_gpio.h ****  */
 255:C:/Projekte/Infineon_Dave/eHaJo/FlapFlap/Libraries/XMCLib/inc\xmc_gpio.h **** 
 256:C:/Projekte/Infineon_Dave/eHaJo/FlapFlap/Libraries/XMCLib/inc\xmc_gpio.h **** __STATIC_INLINE void XMC_GPIO_SetOutputHigh(XMC_GPIO_PORT_t *const port, const uint8_t pin)
 257:C:/Projekte/Infineon_Dave/eHaJo/FlapFlap/Libraries/XMCLib/inc\xmc_gpio.h **** {
 258:C:/Projekte/Infineon_Dave/eHaJo/FlapFlap/Libraries/XMCLib/inc\xmc_gpio.h ****   XMC_ASSERT("XMC_GPIO_SetOutputHigh: Invalid port", XMC_GPIO_CHECK_OUTPUT_PORT(port));
 259:C:/Projekte/Infineon_Dave/eHaJo/FlapFlap/Libraries/XMCLib/inc\xmc_gpio.h **** 
 260:C:/Projekte/Infineon_Dave/eHaJo/FlapFlap/Libraries/XMCLib/inc\xmc_gpio.h ****   port->OMR = (uint32_t)0x1U << pin;
  72              	 .loc 2 260 0
  73 000e 0E4B     	 ldr r3,.L9
  74 0010 0822     	 mov r2,#8
  75 0012 5A60     	 str r2,[r3,#4]
  76              	.LVL3:
  77              	.LBE26:
  78              	.LBE25:
  79              	.LBB27:
  80              	.LBB28:
 261:C:/Projekte/Infineon_Dave/eHaJo/FlapFlap/Libraries/XMCLib/inc\xmc_gpio.h **** }
 262:C:/Projekte/Infineon_Dave/eHaJo/FlapFlap/Libraries/XMCLib/inc\xmc_gpio.h **** 
 263:C:/Projekte/Infineon_Dave/eHaJo/FlapFlap/Libraries/XMCLib/inc\xmc_gpio.h **** /**
 264:C:/Projekte/Infineon_Dave/eHaJo/FlapFlap/Libraries/XMCLib/inc\xmc_gpio.h ****  *
 265:C:/Projekte/Infineon_Dave/eHaJo/FlapFlap/Libraries/XMCLib/inc\xmc_gpio.h ****  * @param  port	constant pointer pointing to GPIO port, to access hardware register Pn_OMR.
 266:C:/Projekte/Infineon_Dave/eHaJo/FlapFlap/Libraries/XMCLib/inc\xmc_gpio.h ****  * @param  pin	port pin number.
 267:C:/Projekte/Infineon_Dave/eHaJo/FlapFlap/Libraries/XMCLib/inc\xmc_gpio.h ****  *
 268:C:/Projekte/Infineon_Dave/eHaJo/FlapFlap/Libraries/XMCLib/inc\xmc_gpio.h ****  * @return  None
 269:C:/Projekte/Infineon_Dave/eHaJo/FlapFlap/Libraries/XMCLib/inc\xmc_gpio.h ****  *
 270:C:/Projekte/Infineon_Dave/eHaJo/FlapFlap/Libraries/XMCLib/inc\xmc_gpio.h ****  *\par<b>Description:</b><br>
 271:C:/Projekte/Infineon_Dave/eHaJo/FlapFlap/Libraries/XMCLib/inc\xmc_gpio.h ****  * Sets port pin output to low. It configures hardware registers Pn_OMR.\n
 272:C:/Projekte/Infineon_Dave/eHaJo/FlapFlap/Libraries/XMCLib/inc\xmc_gpio.h ****  *
 273:C:/Projekte/Infineon_Dave/eHaJo/FlapFlap/Libraries/XMCLib/inc\xmc_gpio.h ****  * \par<b>Related APIs:</b><BR>>
 274:C:/Projekte/Infineon_Dave/eHaJo/FlapFlap/Libraries/XMCLib/inc\xmc_gpio.h ****  * XMC_GPIO_SetOutputHigh()
 275:C:/Projekte/Infineon_Dave/eHaJo/FlapFlap/Libraries/XMCLib/inc\xmc_gpio.h ****  *
 276:C:/Projekte/Infineon_Dave/eHaJo/FlapFlap/Libraries/XMCLib/inc\xmc_gpio.h ****  *\par<b>Note:</b><br>
 277:C:/Projekte/Infineon_Dave/eHaJo/FlapFlap/Libraries/XMCLib/inc\xmc_gpio.h ****  * Prior to this api, user has to configure port pin to output mode using XMC_GPIO_SetMode().
 278:C:/Projekte/Infineon_Dave/eHaJo/FlapFlap/Libraries/XMCLib/inc\xmc_gpio.h ****  * Register Pn_OMR is virtual and does not contain any flip-flop. A read action delivers the value 
 279:C:/Projekte/Infineon_Dave/eHaJo/FlapFlap/Libraries/XMCLib/inc\xmc_gpio.h ****  *
 280:C:/Projekte/Infineon_Dave/eHaJo/FlapFlap/Libraries/XMCLib/inc\xmc_gpio.h ****  */
 281:C:/Projekte/Infineon_Dave/eHaJo/FlapFlap/Libraries/XMCLib/inc\xmc_gpio.h **** 
 282:C:/Projekte/Infineon_Dave/eHaJo/FlapFlap/Libraries/XMCLib/inc\xmc_gpio.h **** __STATIC_INLINE void XMC_GPIO_SetOutputLow(XMC_GPIO_PORT_t *const port, const uint8_t pin)
 283:C:/Projekte/Infineon_Dave/eHaJo/FlapFlap/Libraries/XMCLib/inc\xmc_gpio.h **** {
 284:C:/Projekte/Infineon_Dave/eHaJo/FlapFlap/Libraries/XMCLib/inc\xmc_gpio.h ****   XMC_ASSERT("XMC_GPIO_SetOutputLow: Invalid port", XMC_GPIO_CHECK_OUTPUT_PORT(port));
 285:C:/Projekte/Infineon_Dave/eHaJo/FlapFlap/Libraries/XMCLib/inc\xmc_gpio.h **** 
 286:C:/Projekte/Infineon_Dave/eHaJo/FlapFlap/Libraries/XMCLib/inc\xmc_gpio.h ****   port->OMR = 0x10000U << pin;
  81              	 .loc 2 286 0
  82 0014 8022     	 mov r2,#128
  83 0016 5203     	 lsl r2,r2,#13
  84 0018 5A60     	 str r2,[r3,#4]
  85              	.LBE28:
  86              	.LBE27:
  75:../freemodbus-v1.5.0/port/portserial.c **** 		/* Set the RS485 Transreceiver to TX */
  76:../freemodbus-v1.5.0/port/portserial.c **** 		XMC_GPIO_SetOutputHigh(P0_3);
  77:../freemodbus-v1.5.0/port/portserial.c **** 		XMC_GPIO_SetOutputLow(P0_4);
  78:../freemodbus-v1.5.0/port/portserial.c **** 
  79:../freemodbus-v1.5.0/port/portserial.c **** 
  80:../freemodbus-v1.5.0/port/portserial.c **** 
  81:../freemodbus-v1.5.0/port/portserial.c **** 		(void)pxMBFrameCBTransmitterEmpty();
  87              	 .loc 1 81 0
  88 001a 0C4B     	 ldr r3,.L9+4
  89 001c 1B68     	 ldr r3,[r3]
  90 001e 9847     	 blx r3
  91              	.LVL4:
  92 0020 10E0     	 b .L4
  93              	.LVL5:
  94              	.L7:
  82:../freemodbus-v1.5.0/port/portserial.c **** 	} else if(TRUE==xRxEnable){ /* COVERS TX = FALSE and RX = TRUE */
  95              	 .loc 1 82 0
  96 0022 0128     	 cmp r0,#1
  97 0024 06D1     	 bne .L8
  98              	.LVL6:
  99              	.LBB29:
 100              	.LBB30:
 101              	 .loc 2 286 0
 102 0026 084B     	 ldr r3,.L9
 103 0028 8022     	 mov r2,#128
 104 002a 1203     	 lsl r2,r2,#12
 105 002c 5A60     	 str r2,[r3,#4]
 106              	.LVL7:
 107              	.LBE30:
 108              	.LBE29:
 109              	.LBB31:
 110              	.LBB32:
 260:C:/Projekte/Infineon_Dave/eHaJo/FlapFlap/Libraries/XMCLib/inc\xmc_gpio.h **** }
 111              	 .loc 2 260 0
 112 002e 1022     	 mov r2,#16
 113 0030 5A60     	 str r2,[r3,#4]
 114 0032 07E0     	 b .L4
 115              	.LVL8:
 116              	.L8:
 117              	.LBE32:
 118              	.LBE31:
  83:../freemodbus-v1.5.0/port/portserial.c **** 		XMC_GPIO_SetOutputLow(P0_3);
  84:../freemodbus-v1.5.0/port/portserial.c **** 		XMC_GPIO_SetOutputHigh(P0_4);
  85:../freemodbus-v1.5.0/port/portserial.c **** 
  86:../freemodbus-v1.5.0/port/portserial.c **** 
  87:../freemodbus-v1.5.0/port/portserial.c **** 	} else if( ( FALSE == xRxEnable ) && ( FALSE == xTxEnable ) ){ /* COVERS TX = FALSE and RX = FALSE
 119              	 .loc 1 87 0
 120 0034 0143     	 orr r1,r0
 121              	.LVL9:
 122 0036 05D1     	 bne .L4
 123              	.LVL10:
 124              	.LBB33:
 125              	.LBB34:
 126              	 .loc 2 286 0
 127 0038 034B     	 ldr r3,.L9
 128 003a 8022     	 mov r2,#128
 129 003c 1203     	 lsl r2,r2,#12
 130 003e 5A60     	 str r2,[r3,#4]
 131              	.LVL11:
 132              	.LBE34:
 133              	.LBE33:
 134              	.LBB35:
 135              	.LBB36:
 260:C:/Projekte/Infineon_Dave/eHaJo/FlapFlap/Libraries/XMCLib/inc\xmc_gpio.h **** }
 136              	 .loc 2 260 0
 137 0040 1022     	 mov r2,#16
 138 0042 5A60     	 str r2,[r3,#4]
 139              	.LVL12:
 140              	.L4:
 141              	.LBE36:
 142              	.LBE35:
  88:../freemodbus-v1.5.0/port/portserial.c **** 		XMC_GPIO_SetOutputLow(P0_3);
  89:../freemodbus-v1.5.0/port/portserial.c **** 		XMC_GPIO_SetOutputHigh(P0_4);
  90:../freemodbus-v1.5.0/port/portserial.c **** 
  91:../freemodbus-v1.5.0/port/portserial.c **** 
  92:../freemodbus-v1.5.0/port/portserial.c **** 	} else {
  93:../freemodbus-v1.5.0/port/portserial.c **** 	  /* Shall not happen */
  94:../freemodbus-v1.5.0/port/portserial.c **** 	}
  95:../freemodbus-v1.5.0/port/portserial.c **** }
 143              	 .loc 1 95 0
 144              	 
 145 0044 08BD     	 pop {r3,pc}
 146              	.L10:
 147 0046 C046     	 .align 2
 148              	.L9:
 149 0048 00000440 	 .word 1074003968
 150 004c 00000000 	 .word pxMBFrameCBTransmitterEmpty
 151              	 .cfi_endproc
 152              	.LFE495:
 154              	 .section .text.vMBPortClose,"ax",%progbits
 155              	 .align 2
 156              	 .global vMBPortClose
 157              	 .code 16
 158              	 .thumb_func
 160              	vMBPortClose:
 161              	.LFB496:
  96:../freemodbus-v1.5.0/port/portserial.c **** 
  97:../freemodbus-v1.5.0/port/portserial.c **** void
  98:../freemodbus-v1.5.0/port/portserial.c **** vMBPortClose( void )
  99:../freemodbus-v1.5.0/port/portserial.c **** {
 162              	 .loc 1 99 0
 163              	 .cfi_startproc
 100:../freemodbus-v1.5.0/port/portserial.c **** }
 164              	 .loc 1 100 0
 165              	 
 166 0000 7047     	 bx lr
 167              	 .cfi_endproc
 168              	.LFE496:
 170 0002 C046     	 .section .text.xMBPortSerialInit,"ax",%progbits
 171              	 .align 2
 172              	 .global xMBPortSerialInit
 173              	 .code 16
 174              	 .thumb_func
 176              	xMBPortSerialInit:
 177              	.LFB497:
 101:../freemodbus-v1.5.0/port/portserial.c **** 
 102:../freemodbus-v1.5.0/port/portserial.c **** BOOL
 103:../freemodbus-v1.5.0/port/portserial.c **** xMBPortSerialInit( UCHAR ucPORT, ULONG ulBaudRate, UCHAR ucDataBits, eMBParity eParity )
 104:../freemodbus-v1.5.0/port/portserial.c **** {
 178              	 .loc 1 104 0
 179              	 .cfi_startproc
 180              	.LVL13:
 181 0000 30B5     	 push {r4,r5,lr}
 182              	.LCFI1:
 183              	 .cfi_def_cfa_offset 12
 184              	 .cfi_offset 4,-12
 185              	 .cfi_offset 5,-8
 186              	 .cfi_offset 14,-4
 187 0002 89B0     	 sub sp,sp,#36
 188              	.LCFI2:
 189              	 .cfi_def_cfa_offset 48
 190              	.LVL14:
 105:../freemodbus-v1.5.0/port/portserial.c ****   BOOL return_value=false;
 106:../freemodbus-v1.5.0/port/portserial.c **** 
 107:../freemodbus-v1.5.0/port/portserial.c ****   if (ptr_uart == XMC_UART0_CH0)
 191              	 .loc 1 107 0
 192 0004 2948     	 ldr r0,.L21
 193              	.LVL15:
 194 0006 0468     	 ldr r4,[r0]
 195 0008 9020     	 mov r0,#144
 196 000a C005     	 lsl r0,r0,#23
 197 000c 8442     	 cmp r4,r0
 198 000e 4AD1     	 bne .L19
 199              	.LBB37:
 108:../freemodbus-v1.5.0/port/portserial.c ****   {
 109:../freemodbus-v1.5.0/port/portserial.c **** 
 110:../freemodbus-v1.5.0/port/portserial.c **** 	  XMC_UART_CH_CONFIG_t uart_config;
 111:../freemodbus-v1.5.0/port/portserial.c **** 	  uart_config.data_bits = ucDataBits;
 200              	 .loc 1 111 0
 201 0010 05A8     	 add r0,sp,#20
 202 0012 0271     	 strb r2,[r0,#4]
 112:../freemodbus-v1.5.0/port/portserial.c **** 	  uart_config.frame_length=0;
 203              	 .loc 1 112 0
 204 0014 0022     	 mov r2,#0
 205              	.LVL16:
 206 0016 4271     	 strb r2,[r0,#5]
 113:../freemodbus-v1.5.0/port/portserial.c **** 	  uart_config.stop_bits = 1U; /* As we don't use ASCII 7Bit stopbits will be one */
 207              	 .loc 1 113 0
 208 0018 0132     	 add r2,r2,#1
 209 001a 8271     	 strb r2,[r0,#6]
 114:../freemodbus-v1.5.0/port/portserial.c **** 	  /* eParity */
 115:../freemodbus-v1.5.0/port/portserial.c **** 	  switch(eParity){
 210              	 .loc 1 115 0
 211 001c 012B     	 cmp r3,#1
 212 001e 0DD0     	 beq .L15
 213 0020 002B     	 cmp r3,#0
 214 0022 02D0     	 beq .L16
 215 0024 022B     	 cmp r3,#2
 216 0026 04D0     	 beq .L17
 217 0028 0DE0     	 b .L20
 218              	.L16:
 116:../freemodbus-v1.5.0/port/portserial.c **** 
 117:../freemodbus-v1.5.0/port/portserial.c **** 		  case MB_PAR_NONE:{
 118:../freemodbus-v1.5.0/port/portserial.c **** 			  uart_config.parity_mode = XMC_USIC_CH_PARITY_MODE_NONE;
 219              	 .loc 1 118 0
 220 002a 0022     	 mov r2,#0
 221 002c 05AB     	 add r3,sp,#20
 222              	.LVL17:
 223 002e 1A81     	 strh r2,[r3,#8]
 119:../freemodbus-v1.5.0/port/portserial.c **** 		  } break;
 224              	 .loc 1 119 0
 225 0030 0CE0     	 b .L18
 226              	.LVL18:
 227              	.L17:
 120:../freemodbus-v1.5.0/port/portserial.c **** 
 121:../freemodbus-v1.5.0/port/portserial.c **** 		  case MB_PAR_EVEN:{
 122:../freemodbus-v1.5.0/port/portserial.c **** 			  uart_config.parity_mode = XMC_USIC_CH_PARITY_MODE_EVEN;
 228              	 .loc 1 122 0
 229 0032 8022     	 mov r2,#128
 230 0034 9200     	 lsl r2,r2,#2
 231 0036 05AB     	 add r3,sp,#20
 232              	.LVL19:
 233 0038 1A81     	 strh r2,[r3,#8]
 123:../freemodbus-v1.5.0/port/portserial.c **** 		  } break;
 234              	 .loc 1 123 0
 235 003a 07E0     	 b .L18
 236              	.LVL20:
 237              	.L15:
 124:../freemodbus-v1.5.0/port/portserial.c **** 
 125:../freemodbus-v1.5.0/port/portserial.c **** 		  case MB_PAR_ODD:{
 126:../freemodbus-v1.5.0/port/portserial.c **** 			  uart_config.parity_mode = XMC_USIC_CH_PARITY_MODE_ODD;
 238              	 .loc 1 126 0
 239 003c C022     	 mov r2,#192
 240 003e 9200     	 lsl r2,r2,#2
 241 0040 05AB     	 add r3,sp,#20
 242              	.LVL21:
 243 0042 1A81     	 strh r2,[r3,#8]
 127:../freemodbus-v1.5.0/port/portserial.c **** 		  } break;
 244              	 .loc 1 127 0
 245 0044 02E0     	 b .L18
 246              	.LVL22:
 247              	.L20:
 128:../freemodbus-v1.5.0/port/portserial.c **** 
 129:../freemodbus-v1.5.0/port/portserial.c **** 		  default:{
 130:../freemodbus-v1.5.0/port/portserial.c **** 			  uart_config.parity_mode = XMC_USIC_CH_PARITY_MODE_NONE;
 248              	 .loc 1 130 0
 249 0046 0022     	 mov r2,#0
 250 0048 05AB     	 add r3,sp,#20
 251              	.LVL23:
 252 004a 1A81     	 strh r2,[r3,#8]
 253              	.L18:
 131:../freemodbus-v1.5.0/port/portserial.c **** 		  } break;
 132:../freemodbus-v1.5.0/port/portserial.c **** 
 133:../freemodbus-v1.5.0/port/portserial.c **** 	  }
 134:../freemodbus-v1.5.0/port/portserial.c **** 
 135:../freemodbus-v1.5.0/port/portserial.c **** 	  uart_config.baudrate = ulBaudRate;
 254              	 .loc 1 135 0
 255 004c 0591     	 str r1,[sp,#20]
 136:../freemodbus-v1.5.0/port/portserial.c **** 	  /* Configure UART channel */
 137:../freemodbus-v1.5.0/port/portserial.c **** 	  XMC_UART_CH_Init(XMC_UART0_CH0, &uart_config);
 256              	 .loc 1 137 0
 257 004e 9024     	 mov r4,#144
 258 0050 E405     	 lsl r4,r4,#23
 259 0052 201C     	 mov r0,r4
 260              	.LVL24:
 261 0054 05A9     	 add r1,sp,#20
 262              	.LVL25:
 263 0056 FFF7FEFF 	 bl XMC_UART_CH_Init
 264              	.LVL26:
 138:../freemodbus-v1.5.0/port/portserial.c **** 
 139:../freemodbus-v1.5.0/port/portserial.c **** 
 140:../freemodbus-v1.5.0/port/portserial.c **** 	  /* Configure RX pin */
 141:../freemodbus-v1.5.0/port/portserial.c **** 	  XMC_GPIO_CONFIG_t rx_pin_config;
 142:../freemodbus-v1.5.0/port/portserial.c **** 	  rx_pin_config.mode = XMC_GPIO_MODE_INPUT_TRISTATE;
 265              	 .loc 1 142 0
 266 005a 01AA     	 add r2,sp,#4
 267 005c 0023     	 mov r3,#0
 268 005e 1370     	 strb r3,[r2]
 143:../freemodbus-v1.5.0/port/portserial.c **** 	  XMC_GPIO_Init(XMC_GPIO_PORT2,1, &rx_pin_config);
 269              	 .loc 1 143 0
 270 0060 134D     	 ldr r5,.L21+4
 271 0062 281C     	 mov r0,r5
 272 0064 0121     	 mov r1,#1
 273 0066 FFF7FEFF 	 bl XMC_GPIO_Init
 274              	.LVL27:
 275              	.LBB38:
 276              	.LBB39:
 277              	 .file 3 "C:/Projekte/Infineon_Dave/eHaJo/FlapFlap/Libraries/XMCLib/inc/xmc_uart.h"
   1:C:/Projekte/Infineon_Dave/eHaJo/FlapFlap/Libraries/XMCLib/inc\xmc_uart.h ****  /**
   2:C:/Projekte/Infineon_Dave/eHaJo/FlapFlap/Libraries/XMCLib/inc\xmc_uart.h ****  * @file xmc_uart.h
   3:C:/Projekte/Infineon_Dave/eHaJo/FlapFlap/Libraries/XMCLib/inc\xmc_uart.h ****  * @date 2016-05-20
   4:C:/Projekte/Infineon_Dave/eHaJo/FlapFlap/Libraries/XMCLib/inc\xmc_uart.h ****  *
   5:C:/Projekte/Infineon_Dave/eHaJo/FlapFlap/Libraries/XMCLib/inc\xmc_uart.h ****  * @cond
   6:C:/Projekte/Infineon_Dave/eHaJo/FlapFlap/Libraries/XMCLib/inc\xmc_uart.h ****  **************************************************************************************************
   7:C:/Projekte/Infineon_Dave/eHaJo/FlapFlap/Libraries/XMCLib/inc\xmc_uart.h ****  * XMClib v2.1.16 - XMC Peripheral Driver Library 
   8:C:/Projekte/Infineon_Dave/eHaJo/FlapFlap/Libraries/XMCLib/inc\xmc_uart.h ****  *
   9:C:/Projekte/Infineon_Dave/eHaJo/FlapFlap/Libraries/XMCLib/inc\xmc_uart.h ****  * Copyright (c) 2015-2017, Infineon Technologies AG
  10:C:/Projekte/Infineon_Dave/eHaJo/FlapFlap/Libraries/XMCLib/inc\xmc_uart.h ****  * All rights reserved.                        
  11:C:/Projekte/Infineon_Dave/eHaJo/FlapFlap/Libraries/XMCLib/inc\xmc_uart.h ****  *                                             
  12:C:/Projekte/Infineon_Dave/eHaJo/FlapFlap/Libraries/XMCLib/inc\xmc_uart.h ****  * Redistribution and use in source and binary forms, with or without modification,are permitted pr
  13:C:/Projekte/Infineon_Dave/eHaJo/FlapFlap/Libraries/XMCLib/inc\xmc_uart.h ****  * following conditions are met:   
  14:C:/Projekte/Infineon_Dave/eHaJo/FlapFlap/Libraries/XMCLib/inc\xmc_uart.h ****  *                                                                              
  15:C:/Projekte/Infineon_Dave/eHaJo/FlapFlap/Libraries/XMCLib/inc\xmc_uart.h ****  * Redistributions of source code must retain the above copyright notice, this list of conditions a
  16:C:/Projekte/Infineon_Dave/eHaJo/FlapFlap/Libraries/XMCLib/inc\xmc_uart.h ****  * disclaimer.                        
  17:C:/Projekte/Infineon_Dave/eHaJo/FlapFlap/Libraries/XMCLib/inc\xmc_uart.h ****  * 
  18:C:/Projekte/Infineon_Dave/eHaJo/FlapFlap/Libraries/XMCLib/inc\xmc_uart.h ****  * Redistributions in binary form must reproduce the above copyright notice, this list of condition
  19:C:/Projekte/Infineon_Dave/eHaJo/FlapFlap/Libraries/XMCLib/inc\xmc_uart.h ****  * disclaimer in the documentation and/or other materials provided with the distribution.          
  20:C:/Projekte/Infineon_Dave/eHaJo/FlapFlap/Libraries/XMCLib/inc\xmc_uart.h ****  * 
  21:C:/Projekte/Infineon_Dave/eHaJo/FlapFlap/Libraries/XMCLib/inc\xmc_uart.h ****  * Neither the name of the copyright holders nor the names of its contributors may be used to endor
  22:C:/Projekte/Infineon_Dave/eHaJo/FlapFlap/Libraries/XMCLib/inc\xmc_uart.h ****  * products derived from this software without specific prior written permission.                  
  23:C:/Projekte/Infineon_Dave/eHaJo/FlapFlap/Libraries/XMCLib/inc\xmc_uart.h ****  *                                                                              
  24:C:/Projekte/Infineon_Dave/eHaJo/FlapFlap/Libraries/XMCLib/inc\xmc_uart.h ****  * THIS SOFTWARE IS PROVIDED BY THE COPYRIGHT HOLDERS AND CONTRIBUTORS "AS IS" AND ANY EXPRESS OR I
  25:C:/Projekte/Infineon_Dave/eHaJo/FlapFlap/Libraries/XMCLib/inc\xmc_uart.h ****  * INCLUDING, BUT NOT LIMITED TO, THE IMPLIED WARRANTIES OF MERCHANTABILITY AND FITNESS FOR A PARTI
  26:C:/Projekte/Infineon_Dave/eHaJo/FlapFlap/Libraries/XMCLib/inc\xmc_uart.h ****  * DISCLAIMED. IN NO EVENT SHALL THE COPYRIGHT HOLDER OR CONTRIBUTORS BE LIABLE  FOR ANY DIRECT, IN
  27:C:/Projekte/Infineon_Dave/eHaJo/FlapFlap/Libraries/XMCLib/inc\xmc_uart.h ****  * SPECIAL, EXEMPLARY, OR CONSEQUENTIAL DAMAGES (INCLUDING, BUT NOT LIMITED TO, PROCUREMENT OF SUBS
  28:C:/Projekte/Infineon_Dave/eHaJo/FlapFlap/Libraries/XMCLib/inc\xmc_uart.h ****  * SERVICES; LOSS OF USE, DATA, OR PROFITS; OR BUSINESS INTERRUPTION) HOWEVER CAUSED AND ON ANY THE
  29:C:/Projekte/Infineon_Dave/eHaJo/FlapFlap/Libraries/XMCLib/inc\xmc_uart.h ****  * WHETHER IN CONTRACT, STRICT LIABILITY,OR TORT (INCLUDING NEGLIGENCE OR OTHERWISE) ARISING IN ANY
  30:C:/Projekte/Infineon_Dave/eHaJo/FlapFlap/Libraries/XMCLib/inc\xmc_uart.h ****  * OF THIS SOFTWARE, EVEN IF ADVISED OF THE POSSIBILITY OF SUCH DAMAGE.                            
  31:C:/Projekte/Infineon_Dave/eHaJo/FlapFlap/Libraries/XMCLib/inc\xmc_uart.h ****  *                                                                              
  32:C:/Projekte/Infineon_Dave/eHaJo/FlapFlap/Libraries/XMCLib/inc\xmc_uart.h ****  * To improve the quality of the software, users are encouraged to share modifications, enhancement
  33:C:/Projekte/Infineon_Dave/eHaJo/FlapFlap/Libraries/XMCLib/inc\xmc_uart.h ****  * Infineon Technologies AG dave@infineon.com).                                                    
  34:C:/Projekte/Infineon_Dave/eHaJo/FlapFlap/Libraries/XMCLib/inc\xmc_uart.h ****  **************************************************************************************************
  35:C:/Projekte/Infineon_Dave/eHaJo/FlapFlap/Libraries/XMCLib/inc\xmc_uart.h ****  *
  36:C:/Projekte/Infineon_Dave/eHaJo/FlapFlap/Libraries/XMCLib/inc\xmc_uart.h ****  * Change History
  37:C:/Projekte/Infineon_Dave/eHaJo/FlapFlap/Libraries/XMCLib/inc\xmc_uart.h ****  * --------------
  38:C:/Projekte/Infineon_Dave/eHaJo/FlapFlap/Libraries/XMCLib/inc\xmc_uart.h ****  *
  39:C:/Projekte/Infineon_Dave/eHaJo/FlapFlap/Libraries/XMCLib/inc\xmc_uart.h ****  * 2015-02-20:
  40:C:/Projekte/Infineon_Dave/eHaJo/FlapFlap/Libraries/XMCLib/inc\xmc_uart.h ****  *     - Initial
  41:C:/Projekte/Infineon_Dave/eHaJo/FlapFlap/Libraries/XMCLib/inc\xmc_uart.h ****  *      
  42:C:/Projekte/Infineon_Dave/eHaJo/FlapFlap/Libraries/XMCLib/inc\xmc_uart.h ****  * 2015-05-20:
  43:C:/Projekte/Infineon_Dave/eHaJo/FlapFlap/Libraries/XMCLib/inc\xmc_uart.h ****  *     - Description updated <br>
  44:C:/Projekte/Infineon_Dave/eHaJo/FlapFlap/Libraries/XMCLib/inc\xmc_uart.h ****  *     - Added XMC_UART_CH_TriggerServiceRequest() and XMC_UART_CH_SelectInterruptNodePointer <br>
  45:C:/Projekte/Infineon_Dave/eHaJo/FlapFlap/Libraries/XMCLib/inc\xmc_uart.h ****  *
  46:C:/Projekte/Infineon_Dave/eHaJo/FlapFlap/Libraries/XMCLib/inc\xmc_uart.h ****  * 2015-06-20:
  47:C:/Projekte/Infineon_Dave/eHaJo/FlapFlap/Libraries/XMCLib/inc\xmc_uart.h ****  *     - Removed version macros and declaration of GetDriverVersion API <br>
  48:C:/Projekte/Infineon_Dave/eHaJo/FlapFlap/Libraries/XMCLib/inc\xmc_uart.h ****  *
  49:C:/Projekte/Infineon_Dave/eHaJo/FlapFlap/Libraries/XMCLib/inc\xmc_uart.h ****  * 2015-09-01:
  50:C:/Projekte/Infineon_Dave/eHaJo/FlapFlap/Libraries/XMCLib/inc\xmc_uart.h ****  *     - Modified XMC_UART_CH_SetInputSource() for avoiding complete DXCR register overwriting. <br
  51:C:/Projekte/Infineon_Dave/eHaJo/FlapFlap/Libraries/XMCLib/inc\xmc_uart.h ****  *     - Modified XMC_UART_CH_EVENT_t enum for supporting XMC_UART_CH_EnableEvent() and XMC_UART_CH
  52:C:/Projekte/Infineon_Dave/eHaJo/FlapFlap/Libraries/XMCLib/inc\xmc_uart.h ****  *       for supporting multiple events configuration <br>
  53:C:/Projekte/Infineon_Dave/eHaJo/FlapFlap/Libraries/XMCLib/inc\xmc_uart.h ****  * 
  54:C:/Projekte/Infineon_Dave/eHaJo/FlapFlap/Libraries/XMCLib/inc\xmc_uart.h ****  * 2016-05-20:
  55:C:/Projekte/Infineon_Dave/eHaJo/FlapFlap/Libraries/XMCLib/inc\xmc_uart.h ****  *     - Added XMC_UART_CH_EnableDataTransmission() and XMC_UART_CH_DisableDataTransmission()
  56:C:/Projekte/Infineon_Dave/eHaJo/FlapFlap/Libraries/XMCLib/inc\xmc_uart.h ****  *
  57:C:/Projekte/Infineon_Dave/eHaJo/FlapFlap/Libraries/XMCLib/inc\xmc_uart.h ****  * @endcond 
  58:C:/Projekte/Infineon_Dave/eHaJo/FlapFlap/Libraries/XMCLib/inc\xmc_uart.h ****  *
  59:C:/Projekte/Infineon_Dave/eHaJo/FlapFlap/Libraries/XMCLib/inc\xmc_uart.h ****  */
  60:C:/Projekte/Infineon_Dave/eHaJo/FlapFlap/Libraries/XMCLib/inc\xmc_uart.h **** 
  61:C:/Projekte/Infineon_Dave/eHaJo/FlapFlap/Libraries/XMCLib/inc\xmc_uart.h **** #ifndef XMC_UART_H
  62:C:/Projekte/Infineon_Dave/eHaJo/FlapFlap/Libraries/XMCLib/inc\xmc_uart.h **** #define XMC_UART_H
  63:C:/Projekte/Infineon_Dave/eHaJo/FlapFlap/Libraries/XMCLib/inc\xmc_uart.h **** 
  64:C:/Projekte/Infineon_Dave/eHaJo/FlapFlap/Libraries/XMCLib/inc\xmc_uart.h **** /**************************************************************************************************
  65:C:/Projekte/Infineon_Dave/eHaJo/FlapFlap/Libraries/XMCLib/inc\xmc_uart.h ****  * HEADER FILES
  66:C:/Projekte/Infineon_Dave/eHaJo/FlapFlap/Libraries/XMCLib/inc\xmc_uart.h ****  **************************************************************************************************
  67:C:/Projekte/Infineon_Dave/eHaJo/FlapFlap/Libraries/XMCLib/inc\xmc_uart.h **** 
  68:C:/Projekte/Infineon_Dave/eHaJo/FlapFlap/Libraries/XMCLib/inc\xmc_uart.h **** #include "xmc_usic.h"
  69:C:/Projekte/Infineon_Dave/eHaJo/FlapFlap/Libraries/XMCLib/inc\xmc_uart.h **** 
  70:C:/Projekte/Infineon_Dave/eHaJo/FlapFlap/Libraries/XMCLib/inc\xmc_uart.h **** /**
  71:C:/Projekte/Infineon_Dave/eHaJo/FlapFlap/Libraries/XMCLib/inc\xmc_uart.h ****  * @addtogroup XMClib XMC Peripheral Library
  72:C:/Projekte/Infineon_Dave/eHaJo/FlapFlap/Libraries/XMCLib/inc\xmc_uart.h ****  * @{
  73:C:/Projekte/Infineon_Dave/eHaJo/FlapFlap/Libraries/XMCLib/inc\xmc_uart.h ****  */
  74:C:/Projekte/Infineon_Dave/eHaJo/FlapFlap/Libraries/XMCLib/inc\xmc_uart.h **** 
  75:C:/Projekte/Infineon_Dave/eHaJo/FlapFlap/Libraries/XMCLib/inc\xmc_uart.h **** /**
  76:C:/Projekte/Infineon_Dave/eHaJo/FlapFlap/Libraries/XMCLib/inc\xmc_uart.h ****  * @addtogroup UART
  77:C:/Projekte/Infineon_Dave/eHaJo/FlapFlap/Libraries/XMCLib/inc\xmc_uart.h ****  * @brief Universal Asynchronous Receiver/Transmitter (UART) driver for XMC microcontroller family.
  78:C:/Projekte/Infineon_Dave/eHaJo/FlapFlap/Libraries/XMCLib/inc\xmc_uart.h ****  *
  79:C:/Projekte/Infineon_Dave/eHaJo/FlapFlap/Libraries/XMCLib/inc\xmc_uart.h ****  * The UART driver uses Universal Serial Interface Channel(USIC) module to implement UART protocol.
  80:C:/Projekte/Infineon_Dave/eHaJo/FlapFlap/Libraries/XMCLib/inc\xmc_uart.h ****  * It provides APIs to configure USIC channel for UART communication. The driver enables the user
  81:C:/Projekte/Infineon_Dave/eHaJo/FlapFlap/Libraries/XMCLib/inc\xmc_uart.h ****  * in getting the status of UART protocol events, configuring interrupt service requests, protocol
  82:C:/Projekte/Infineon_Dave/eHaJo/FlapFlap/Libraries/XMCLib/inc\xmc_uart.h ****  * related parameter configuration etc.
  83:C:/Projekte/Infineon_Dave/eHaJo/FlapFlap/Libraries/XMCLib/inc\xmc_uart.h ****  * 
  84:C:/Projekte/Infineon_Dave/eHaJo/FlapFlap/Libraries/XMCLib/inc\xmc_uart.h ****  * UART driver features:
  85:C:/Projekte/Infineon_Dave/eHaJo/FlapFlap/Libraries/XMCLib/inc\xmc_uart.h ****  * -# Configuration structure XMC_UART_CH_CONFIG_t and initialization function XMC_UART_CH_Init()
  86:C:/Projekte/Infineon_Dave/eHaJo/FlapFlap/Libraries/XMCLib/inc\xmc_uart.h ****  * -# Enumeration of events with their bit masks @ref XMC_UART_CH_EVENT_t, @ref XMC_UART_CH_STATUS_
  87:C:/Projekte/Infineon_Dave/eHaJo/FlapFlap/Libraries/XMCLib/inc\xmc_uart.h ****  * -# Allows the selection of input source for the DX0 input stage using the API XMC_UART_CH_SetInp
  88:C:/Projekte/Infineon_Dave/eHaJo/FlapFlap/Libraries/XMCLib/inc\xmc_uart.h ****  * -# Allows configuration of baudrate using XMC_UART_CH_SetBaudrate() and configuration of data le
  89:C:/Projekte/Infineon_Dave/eHaJo/FlapFlap/Libraries/XMCLib/inc\xmc_uart.h ****  XMC_UART_CH_SetWordLength() and XMC_UART_CH_SetFrameLength()
  90:C:/Projekte/Infineon_Dave/eHaJo/FlapFlap/Libraries/XMCLib/inc\xmc_uart.h ****  * -# Provides the status of UART protocol events, XMC_UART_CH_GetStatusFlag()
  91:C:/Projekte/Infineon_Dave/eHaJo/FlapFlap/Libraries/XMCLib/inc\xmc_uart.h ****  * -# Allows transmission of data using XMC_UART_CH_Transmit() and gets received data using XMC_UAR
  92:C:/Projekte/Infineon_Dave/eHaJo/FlapFlap/Libraries/XMCLib/inc\xmc_uart.h ****  * 
  93:C:/Projekte/Infineon_Dave/eHaJo/FlapFlap/Libraries/XMCLib/inc\xmc_uart.h ****  * @{
  94:C:/Projekte/Infineon_Dave/eHaJo/FlapFlap/Libraries/XMCLib/inc\xmc_uart.h ****  */
  95:C:/Projekte/Infineon_Dave/eHaJo/FlapFlap/Libraries/XMCLib/inc\xmc_uart.h **** 
  96:C:/Projekte/Infineon_Dave/eHaJo/FlapFlap/Libraries/XMCLib/inc\xmc_uart.h **** /**************************************************************************************************
  97:C:/Projekte/Infineon_Dave/eHaJo/FlapFlap/Libraries/XMCLib/inc\xmc_uart.h ****  * MACROS
  98:C:/Projekte/Infineon_Dave/eHaJo/FlapFlap/Libraries/XMCLib/inc\xmc_uart.h ****  **************************************************************************************************
  99:C:/Projekte/Infineon_Dave/eHaJo/FlapFlap/Libraries/XMCLib/inc\xmc_uart.h **** 
 100:C:/Projekte/Infineon_Dave/eHaJo/FlapFlap/Libraries/XMCLib/inc\xmc_uart.h **** #if defined(USIC0)
 101:C:/Projekte/Infineon_Dave/eHaJo/FlapFlap/Libraries/XMCLib/inc\xmc_uart.h **** #define XMC_UART0_CH0 XMC_USIC0_CH0 /**< USIC0 channel 0 base address */
 102:C:/Projekte/Infineon_Dave/eHaJo/FlapFlap/Libraries/XMCLib/inc\xmc_uart.h **** #define XMC_UART0_CH1 XMC_USIC0_CH1 /**< USIC0 channel 1 base address */
 103:C:/Projekte/Infineon_Dave/eHaJo/FlapFlap/Libraries/XMCLib/inc\xmc_uart.h **** #endif
 104:C:/Projekte/Infineon_Dave/eHaJo/FlapFlap/Libraries/XMCLib/inc\xmc_uart.h **** 
 105:C:/Projekte/Infineon_Dave/eHaJo/FlapFlap/Libraries/XMCLib/inc\xmc_uart.h **** #if defined(USIC1)
 106:C:/Projekte/Infineon_Dave/eHaJo/FlapFlap/Libraries/XMCLib/inc\xmc_uart.h **** #define XMC_UART1_CH0 XMC_USIC1_CH0 /**< USIC1 channel 0 base address */
 107:C:/Projekte/Infineon_Dave/eHaJo/FlapFlap/Libraries/XMCLib/inc\xmc_uart.h **** #define XMC_UART1_CH1 XMC_USIC1_CH1 /**< USIC1 channel 1 base address */
 108:C:/Projekte/Infineon_Dave/eHaJo/FlapFlap/Libraries/XMCLib/inc\xmc_uart.h **** #endif
 109:C:/Projekte/Infineon_Dave/eHaJo/FlapFlap/Libraries/XMCLib/inc\xmc_uart.h **** 
 110:C:/Projekte/Infineon_Dave/eHaJo/FlapFlap/Libraries/XMCLib/inc\xmc_uart.h **** #if defined(USIC2)
 111:C:/Projekte/Infineon_Dave/eHaJo/FlapFlap/Libraries/XMCLib/inc\xmc_uart.h **** #define XMC_UART2_CH0 XMC_USIC2_CH0 /**< USIC2 channel 0 base address */
 112:C:/Projekte/Infineon_Dave/eHaJo/FlapFlap/Libraries/XMCLib/inc\xmc_uart.h **** #define XMC_UART2_CH1 XMC_USIC2_CH1 /**< USIC2 channel 1 base address */
 113:C:/Projekte/Infineon_Dave/eHaJo/FlapFlap/Libraries/XMCLib/inc\xmc_uart.h **** #endif
 114:C:/Projekte/Infineon_Dave/eHaJo/FlapFlap/Libraries/XMCLib/inc\xmc_uart.h **** 
 115:C:/Projekte/Infineon_Dave/eHaJo/FlapFlap/Libraries/XMCLib/inc\xmc_uart.h **** /**************************************************************************************************
 116:C:/Projekte/Infineon_Dave/eHaJo/FlapFlap/Libraries/XMCLib/inc\xmc_uart.h ****  * ENUMS
 117:C:/Projekte/Infineon_Dave/eHaJo/FlapFlap/Libraries/XMCLib/inc\xmc_uart.h ****  **************************************************************************************************
 118:C:/Projekte/Infineon_Dave/eHaJo/FlapFlap/Libraries/XMCLib/inc\xmc_uart.h **** 
 119:C:/Projekte/Infineon_Dave/eHaJo/FlapFlap/Libraries/XMCLib/inc\xmc_uart.h **** /**
 120:C:/Projekte/Infineon_Dave/eHaJo/FlapFlap/Libraries/XMCLib/inc\xmc_uart.h ****  * UART driver status
 121:C:/Projekte/Infineon_Dave/eHaJo/FlapFlap/Libraries/XMCLib/inc\xmc_uart.h ****  */
 122:C:/Projekte/Infineon_Dave/eHaJo/FlapFlap/Libraries/XMCLib/inc\xmc_uart.h **** typedef enum XMC_UART_CH_STATUS
 123:C:/Projekte/Infineon_Dave/eHaJo/FlapFlap/Libraries/XMCLib/inc\xmc_uart.h **** {
 124:C:/Projekte/Infineon_Dave/eHaJo/FlapFlap/Libraries/XMCLib/inc\xmc_uart.h ****   XMC_UART_CH_STATUS_OK,     /**< UART driver status : OK*/
 125:C:/Projekte/Infineon_Dave/eHaJo/FlapFlap/Libraries/XMCLib/inc\xmc_uart.h ****   XMC_UART_CH_STATUS_ERROR,  /**< UART driver status : ERROR */
 126:C:/Projekte/Infineon_Dave/eHaJo/FlapFlap/Libraries/XMCLib/inc\xmc_uart.h ****   XMC_UART_CH_STATUS_BUSY    /**< UART driver status : BUSY */
 127:C:/Projekte/Infineon_Dave/eHaJo/FlapFlap/Libraries/XMCLib/inc\xmc_uart.h **** } XMC_UART_CH_STATUS_t;
 128:C:/Projekte/Infineon_Dave/eHaJo/FlapFlap/Libraries/XMCLib/inc\xmc_uart.h **** 
 129:C:/Projekte/Infineon_Dave/eHaJo/FlapFlap/Libraries/XMCLib/inc\xmc_uart.h **** /**
 130:C:/Projekte/Infineon_Dave/eHaJo/FlapFlap/Libraries/XMCLib/inc\xmc_uart.h **** * UART portocol status. The enum values can be used for getting the status of UART channel.
 131:C:/Projekte/Infineon_Dave/eHaJo/FlapFlap/Libraries/XMCLib/inc\xmc_uart.h **** *
 132:C:/Projekte/Infineon_Dave/eHaJo/FlapFlap/Libraries/XMCLib/inc\xmc_uart.h **** */
 133:C:/Projekte/Infineon_Dave/eHaJo/FlapFlap/Libraries/XMCLib/inc\xmc_uart.h **** typedef enum XMC_UART_CH_STATUS_FLAG
 134:C:/Projekte/Infineon_Dave/eHaJo/FlapFlap/Libraries/XMCLib/inc\xmc_uart.h **** {
 135:C:/Projekte/Infineon_Dave/eHaJo/FlapFlap/Libraries/XMCLib/inc\xmc_uart.h ****   XMC_UART_CH_STATUS_FLAG_TRANSMISSION_IDLE = USIC_CH_PSR_ASCMode_TXIDLE_Msk,                 /**< 
 136:C:/Projekte/Infineon_Dave/eHaJo/FlapFlap/Libraries/XMCLib/inc\xmc_uart.h ****   XMC_UART_CH_STATUS_FLAG_RECEPTION_IDLE = USIC_CH_PSR_ASCMode_RXIDLE_Msk,                    /**< 
 137:C:/Projekte/Infineon_Dave/eHaJo/FlapFlap/Libraries/XMCLib/inc\xmc_uart.h ****   XMC_UART_CH_STATUS_FLAG_SYNCHRONIZATION_BREAK_DETECTED = USIC_CH_PSR_ASCMode_SBD_Msk,       /**< 
 138:C:/Projekte/Infineon_Dave/eHaJo/FlapFlap/Libraries/XMCLib/inc\xmc_uart.h ****   XMC_UART_CH_STATUS_FLAG_COLLISION_DETECTED = USIC_CH_PSR_ASCMode_COL_Msk,                   /**< 
 139:C:/Projekte/Infineon_Dave/eHaJo/FlapFlap/Libraries/XMCLib/inc\xmc_uart.h ****   XMC_UART_CH_STATUS_FLAG_RECEIVER_NOISE_DETECTED = USIC_CH_PSR_ASCMode_RNS_Msk,              /**< 
 140:C:/Projekte/Infineon_Dave/eHaJo/FlapFlap/Libraries/XMCLib/inc\xmc_uart.h ****   XMC_UART_CH_STATUS_FLAG_FORMAT_ERROR_IN_STOP_BIT_0 = USIC_CH_PSR_ASCMode_FER0_Msk,          /**< 
 141:C:/Projekte/Infineon_Dave/eHaJo/FlapFlap/Libraries/XMCLib/inc\xmc_uart.h ****   XMC_UART_CH_STATUS_FLAG_FORMAT_ERROR_IN_STOP_BIT_1 = USIC_CH_PSR_ASCMode_FER1_Msk,          /**< 
 142:C:/Projekte/Infineon_Dave/eHaJo/FlapFlap/Libraries/XMCLib/inc\xmc_uart.h ****   XMC_UART_CH_STATUS_FLAG_RECEIVE_FRAME_FINISHED = USIC_CH_PSR_ASCMode_RFF_Msk,               /**< 
 143:C:/Projekte/Infineon_Dave/eHaJo/FlapFlap/Libraries/XMCLib/inc\xmc_uart.h ****   XMC_UART_CH_STATUS_FLAG_TRANSMITTER_FRAME_FINISHED = USIC_CH_PSR_ASCMode_TFF_Msk,           /**< 
 144:C:/Projekte/Infineon_Dave/eHaJo/FlapFlap/Libraries/XMCLib/inc\xmc_uart.h ****   XMC_UART_CH_STATUS_FLAG_TRANSFER_STATUS_BUSY = USIC_CH_PSR_ASCMode_BUSY_Msk,                /**< 
 145:C:/Projekte/Infineon_Dave/eHaJo/FlapFlap/Libraries/XMCLib/inc\xmc_uart.h ****   XMC_UART_CH_STATUS_FLAG_RECEIVER_START_INDICATION = USIC_CH_PSR_ASCMode_RSIF_Msk,           /**< 
 146:C:/Projekte/Infineon_Dave/eHaJo/FlapFlap/Libraries/XMCLib/inc\xmc_uart.h ****   XMC_UART_CH_STATUS_FLAG_DATA_LOST_INDICATION = USIC_CH_PSR_ASCMode_DLIF_Msk,                /**< 
 147:C:/Projekte/Infineon_Dave/eHaJo/FlapFlap/Libraries/XMCLib/inc\xmc_uart.h ****   XMC_UART_CH_STATUS_FLAG_TRANSMIT_SHIFT_INDICATION = USIC_CH_PSR_ASCMode_TSIF_Msk,           /**< 
 148:C:/Projekte/Infineon_Dave/eHaJo/FlapFlap/Libraries/XMCLib/inc\xmc_uart.h ****   XMC_UART_CH_STATUS_FLAG_TRANSMIT_BUFFER_INDICATION = USIC_CH_PSR_ASCMode_TBIF_Msk,          /**< 
 149:C:/Projekte/Infineon_Dave/eHaJo/FlapFlap/Libraries/XMCLib/inc\xmc_uart.h ****   XMC_UART_CH_STATUS_FLAG_RECEIVE_INDICATION = USIC_CH_PSR_ASCMode_RIF_Msk,                   /**< 
 150:C:/Projekte/Infineon_Dave/eHaJo/FlapFlap/Libraries/XMCLib/inc\xmc_uart.h ****   XMC_UART_CH_STATUS_FLAG_ALTERNATIVE_RECEIVE_INDICATION = USIC_CH_PSR_ASCMode_AIF_Msk,       /**< 
 151:C:/Projekte/Infineon_Dave/eHaJo/FlapFlap/Libraries/XMCLib/inc\xmc_uart.h ****   XMC_UART_CH_STATUS_FLAG_BAUD_RATE_GENERATOR_INDICATION = USIC_CH_PSR_ASCMode_BRGIF_Msk      /**< 
 152:C:/Projekte/Infineon_Dave/eHaJo/FlapFlap/Libraries/XMCLib/inc\xmc_uart.h **** } XMC_UART_CH_STATUS_FLAG_t;
 153:C:/Projekte/Infineon_Dave/eHaJo/FlapFlap/Libraries/XMCLib/inc\xmc_uart.h **** 
 154:C:/Projekte/Infineon_Dave/eHaJo/FlapFlap/Libraries/XMCLib/inc\xmc_uart.h **** /**
 155:C:/Projekte/Infineon_Dave/eHaJo/FlapFlap/Libraries/XMCLib/inc\xmc_uart.h **** * UART configuration events. The enums can be used for configuring events using the CCR register.
 156:C:/Projekte/Infineon_Dave/eHaJo/FlapFlap/Libraries/XMCLib/inc\xmc_uart.h **** */
 157:C:/Projekte/Infineon_Dave/eHaJo/FlapFlap/Libraries/XMCLib/inc\xmc_uart.h **** typedef enum XMC_CH_UART_EVENT
 158:C:/Projekte/Infineon_Dave/eHaJo/FlapFlap/Libraries/XMCLib/inc\xmc_uart.h **** {
 159:C:/Projekte/Infineon_Dave/eHaJo/FlapFlap/Libraries/XMCLib/inc\xmc_uart.h ****   XMC_UART_CH_EVENT_RECEIVE_START       = USIC_CH_CCR_RSIEN_Msk,  /**< Receive start event */
 160:C:/Projekte/Infineon_Dave/eHaJo/FlapFlap/Libraries/XMCLib/inc\xmc_uart.h ****   XMC_UART_CH_EVENT_DATA_LOST           = USIC_CH_CCR_DLIEN_Msk,  /**< Data lost event */
 161:C:/Projekte/Infineon_Dave/eHaJo/FlapFlap/Libraries/XMCLib/inc\xmc_uart.h ****   XMC_UART_CH_EVENT_TRANSMIT_SHIFT      = USIC_CH_CCR_TSIEN_Msk,  /**< Transmit shift event */
 162:C:/Projekte/Infineon_Dave/eHaJo/FlapFlap/Libraries/XMCLib/inc\xmc_uart.h ****   XMC_UART_CH_EVENT_TRANSMIT_BUFFER     = USIC_CH_CCR_TBIEN_Msk,  /**< Transmit buffer event */
 163:C:/Projekte/Infineon_Dave/eHaJo/FlapFlap/Libraries/XMCLib/inc\xmc_uart.h ****   XMC_UART_CH_EVENT_STANDARD_RECEIVE    = USIC_CH_CCR_RIEN_Msk,   /**< Receive event */
 164:C:/Projekte/Infineon_Dave/eHaJo/FlapFlap/Libraries/XMCLib/inc\xmc_uart.h ****   XMC_UART_CH_EVENT_ALTERNATIVE_RECEIVE = USIC_CH_CCR_AIEN_Msk,   /**< Alternate receive event */
 165:C:/Projekte/Infineon_Dave/eHaJo/FlapFlap/Libraries/XMCLib/inc\xmc_uart.h ****   XMC_UART_CH_EVENT_BAUD_RATE_GENERATOR = USIC_CH_CCR_BRGIEN_Msk, /**< Baudrate generator event */
 166:C:/Projekte/Infineon_Dave/eHaJo/FlapFlap/Libraries/XMCLib/inc\xmc_uart.h ****   
 167:C:/Projekte/Infineon_Dave/eHaJo/FlapFlap/Libraries/XMCLib/inc\xmc_uart.h ****   XMC_UART_CH_EVENT_SYNCHRONIZATION_BREAK = USIC_CH_PCR_ASCMode_SBIEN_Msk, /**< Event synchronizati
 168:C:/Projekte/Infineon_Dave/eHaJo/FlapFlap/Libraries/XMCLib/inc\xmc_uart.h ****   XMC_UART_CH_EVENT_COLLISION = USIC_CH_PCR_ASCMode_CDEN_Msk,              /**< Event collision */
 169:C:/Projekte/Infineon_Dave/eHaJo/FlapFlap/Libraries/XMCLib/inc\xmc_uart.h ****   XMC_UART_CH_EVENT_RECEIVER_NOISE = USIC_CH_PCR_ASCMode_RNIEN_Msk,        /**< Event receiver nois
 170:C:/Projekte/Infineon_Dave/eHaJo/FlapFlap/Libraries/XMCLib/inc\xmc_uart.h ****   XMC_UART_CH_EVENT_FORMAT_ERROR = USIC_CH_PCR_ASCMode_FEIEN_Msk,          /**< Event format error 
 171:C:/Projekte/Infineon_Dave/eHaJo/FlapFlap/Libraries/XMCLib/inc\xmc_uart.h ****   XMC_UART_CH_EVENT_FRAME_FINISHED = USIC_CH_PCR_ASCMode_FFIEN_Msk         /**< Event frame finishe
 172:C:/Projekte/Infineon_Dave/eHaJo/FlapFlap/Libraries/XMCLib/inc\xmc_uart.h **** } XMC_UART_CH_EVENT_t;
 173:C:/Projekte/Infineon_Dave/eHaJo/FlapFlap/Libraries/XMCLib/inc\xmc_uart.h **** 
 174:C:/Projekte/Infineon_Dave/eHaJo/FlapFlap/Libraries/XMCLib/inc\xmc_uart.h **** /**
 175:C:/Projekte/Infineon_Dave/eHaJo/FlapFlap/Libraries/XMCLib/inc\xmc_uart.h ****  * UART Input sampling frequency options
 176:C:/Projekte/Infineon_Dave/eHaJo/FlapFlap/Libraries/XMCLib/inc\xmc_uart.h ****  */
 177:C:/Projekte/Infineon_Dave/eHaJo/FlapFlap/Libraries/XMCLib/inc\xmc_uart.h **** typedef enum XMC_UART_CH_INPUT_SAMPLING_FREQ
 178:C:/Projekte/Infineon_Dave/eHaJo/FlapFlap/Libraries/XMCLib/inc\xmc_uart.h **** {
 179:C:/Projekte/Infineon_Dave/eHaJo/FlapFlap/Libraries/XMCLib/inc\xmc_uart.h ****   XMC_UART_CH_INPUT_SAMPLING_FREQ_FPERIPH            = XMC_USIC_CH_INPUT_SAMPLING_FREQ_FPERIPH,    
 180:C:/Projekte/Infineon_Dave/eHaJo/FlapFlap/Libraries/XMCLib/inc\xmc_uart.h ****   XMC_UART_CH_INPUT_SAMPLING_FREQ_FRACTIONAL_DIVIDER = XMC_USIC_CH_INPUT_SAMPLING_FREQ_FRACTIONAL_D
 181:C:/Projekte/Infineon_Dave/eHaJo/FlapFlap/Libraries/XMCLib/inc\xmc_uart.h **** } XMC_UART_CH_INPUT_SAMPLING_FREQ_t;
 182:C:/Projekte/Infineon_Dave/eHaJo/FlapFlap/Libraries/XMCLib/inc\xmc_uart.h **** 
 183:C:/Projekte/Infineon_Dave/eHaJo/FlapFlap/Libraries/XMCLib/inc\xmc_uart.h **** /**
 184:C:/Projekte/Infineon_Dave/eHaJo/FlapFlap/Libraries/XMCLib/inc\xmc_uart.h ****  * UART input stages
 185:C:/Projekte/Infineon_Dave/eHaJo/FlapFlap/Libraries/XMCLib/inc\xmc_uart.h ****  */
 186:C:/Projekte/Infineon_Dave/eHaJo/FlapFlap/Libraries/XMCLib/inc\xmc_uart.h **** typedef enum XMC_UART_CH_INPUT
 187:C:/Projekte/Infineon_Dave/eHaJo/FlapFlap/Libraries/XMCLib/inc\xmc_uart.h **** {
 188:C:/Projekte/Infineon_Dave/eHaJo/FlapFlap/Libraries/XMCLib/inc\xmc_uart.h ****   XMC_UART_CH_INPUT_RXD = 0UL   /**< UART input stage DX0*/
 189:C:/Projekte/Infineon_Dave/eHaJo/FlapFlap/Libraries/XMCLib/inc\xmc_uart.h **** #if UC_FAMILY == XMC1
 190:C:/Projekte/Infineon_Dave/eHaJo/FlapFlap/Libraries/XMCLib/inc\xmc_uart.h ****   ,
 191:C:/Projekte/Infineon_Dave/eHaJo/FlapFlap/Libraries/XMCLib/inc\xmc_uart.h ****   XMC_UART_CH_INPUT_RXD1 = 3UL, /**< UART input stage DX3*/
 192:C:/Projekte/Infineon_Dave/eHaJo/FlapFlap/Libraries/XMCLib/inc\xmc_uart.h ****   XMC_UART_CH_INPUT_RXD2 = 5UL  /**< UART input stage DX5*/
 193:C:/Projekte/Infineon_Dave/eHaJo/FlapFlap/Libraries/XMCLib/inc\xmc_uart.h **** #endif
 194:C:/Projekte/Infineon_Dave/eHaJo/FlapFlap/Libraries/XMCLib/inc\xmc_uart.h **** } XMC_UART_CH_INPUT_t;
 195:C:/Projekte/Infineon_Dave/eHaJo/FlapFlap/Libraries/XMCLib/inc\xmc_uart.h **** 
 196:C:/Projekte/Infineon_Dave/eHaJo/FlapFlap/Libraries/XMCLib/inc\xmc_uart.h **** 
 197:C:/Projekte/Infineon_Dave/eHaJo/FlapFlap/Libraries/XMCLib/inc\xmc_uart.h **** /**
 198:C:/Projekte/Infineon_Dave/eHaJo/FlapFlap/Libraries/XMCLib/inc\xmc_uart.h ****  * UART channel interrupt node pointers
 199:C:/Projekte/Infineon_Dave/eHaJo/FlapFlap/Libraries/XMCLib/inc\xmc_uart.h ****  */
 200:C:/Projekte/Infineon_Dave/eHaJo/FlapFlap/Libraries/XMCLib/inc\xmc_uart.h **** typedef enum XMC_UART_CH_INTERRUPT_NODE_POINTER
 201:C:/Projekte/Infineon_Dave/eHaJo/FlapFlap/Libraries/XMCLib/inc\xmc_uart.h **** {
 202:C:/Projekte/Infineon_Dave/eHaJo/FlapFlap/Libraries/XMCLib/inc\xmc_uart.h ****   XMC_UART_CH_INTERRUPT_NODE_POINTER_TRANSMIT_SHIFT      = XMC_USIC_CH_INTERRUPT_NODE_POINTER_TRANS
 203:C:/Projekte/Infineon_Dave/eHaJo/FlapFlap/Libraries/XMCLib/inc\xmc_uart.h ****   XMC_UART_CH_INTERRUPT_NODE_POINTER_TRANSMIT_BUFFER     = XMC_USIC_CH_INTERRUPT_NODE_POINTER_TRANS
 204:C:/Projekte/Infineon_Dave/eHaJo/FlapFlap/Libraries/XMCLib/inc\xmc_uart.h ****   XMC_UART_CH_INTERRUPT_NODE_POINTER_RECEIVE             = XMC_USIC_CH_INTERRUPT_NODE_POINTER_RECEI
 205:C:/Projekte/Infineon_Dave/eHaJo/FlapFlap/Libraries/XMCLib/inc\xmc_uart.h ****   XMC_UART_CH_INTERRUPT_NODE_POINTER_ALTERNATE_RECEIVE   = XMC_USIC_CH_INTERRUPT_NODE_POINTER_ALTER
 206:C:/Projekte/Infineon_Dave/eHaJo/FlapFlap/Libraries/XMCLib/inc\xmc_uart.h ****   XMC_UART_CH_INTERRUPT_NODE_POINTER_PROTOCOL            = XMC_USIC_CH_INTERRUPT_NODE_POINTER_PROTO
 207:C:/Projekte/Infineon_Dave/eHaJo/FlapFlap/Libraries/XMCLib/inc\xmc_uart.h **** } XMC_UART_CH_INTERRUPT_NODE_POINTER_t;
 208:C:/Projekte/Infineon_Dave/eHaJo/FlapFlap/Libraries/XMCLib/inc\xmc_uart.h **** 
 209:C:/Projekte/Infineon_Dave/eHaJo/FlapFlap/Libraries/XMCLib/inc\xmc_uart.h **** /**************************************************************************************************
 210:C:/Projekte/Infineon_Dave/eHaJo/FlapFlap/Libraries/XMCLib/inc\xmc_uart.h ****  * DATA STRUCTURES
 211:C:/Projekte/Infineon_Dave/eHaJo/FlapFlap/Libraries/XMCLib/inc\xmc_uart.h ****  **************************************************************************************************
 212:C:/Projekte/Infineon_Dave/eHaJo/FlapFlap/Libraries/XMCLib/inc\xmc_uart.h **** 
 213:C:/Projekte/Infineon_Dave/eHaJo/FlapFlap/Libraries/XMCLib/inc\xmc_uart.h **** /**
 214:C:/Projekte/Infineon_Dave/eHaJo/FlapFlap/Libraries/XMCLib/inc\xmc_uart.h ****  * UART initialization structure
 215:C:/Projekte/Infineon_Dave/eHaJo/FlapFlap/Libraries/XMCLib/inc\xmc_uart.h **** */
 216:C:/Projekte/Infineon_Dave/eHaJo/FlapFlap/Libraries/XMCLib/inc\xmc_uart.h **** typedef struct XMC_UART_CH_CONFIG
 217:C:/Projekte/Infineon_Dave/eHaJo/FlapFlap/Libraries/XMCLib/inc\xmc_uart.h **** {
 218:C:/Projekte/Infineon_Dave/eHaJo/FlapFlap/Libraries/XMCLib/inc\xmc_uart.h ****   uint32_t baudrate;                         /**< Desired baudrate. \b Range: minimum= 100, maximum
 219:C:/Projekte/Infineon_Dave/eHaJo/FlapFlap/Libraries/XMCLib/inc\xmc_uart.h ****   uint8_t data_bits;                         /**< Number of bits for the data field. Value configur
 220:C:/Projekte/Infineon_Dave/eHaJo/FlapFlap/Libraries/XMCLib/inc\xmc_uart.h ****                                                   \b Range: minimum= 1, maximum= 16*/
 221:C:/Projekte/Infineon_Dave/eHaJo/FlapFlap/Libraries/XMCLib/inc\xmc_uart.h ****   uint8_t frame_length;                      /**< Indicates nmber of bits in a frame. Configured as
 222:C:/Projekte/Infineon_Dave/eHaJo/FlapFlap/Libraries/XMCLib/inc\xmc_uart.h ****                                                   \b Range: minimum= 1, maximum= 63*/
 223:C:/Projekte/Infineon_Dave/eHaJo/FlapFlap/Libraries/XMCLib/inc\xmc_uart.h ****   uint8_t stop_bits;                         /**< Number of stop bits. \b Range: minimum= 1, maximu
 224:C:/Projekte/Infineon_Dave/eHaJo/FlapFlap/Libraries/XMCLib/inc\xmc_uart.h ****   uint8_t oversampling;						           /**< Number of samples for a symbol(DCTQ).\b Range: minimum
 225:C:/Projekte/Infineon_Dave/eHaJo/FlapFlap/Libraries/XMCLib/inc\xmc_uart.h ****   XMC_USIC_CH_PARITY_MODE_t parity_mode;     /**< Parity mode. \b Range: @ref XMC_USIC_CH_PARITY_MO
 226:C:/Projekte/Infineon_Dave/eHaJo/FlapFlap/Libraries/XMCLib/inc\xmc_uart.h ****                                                   @ref XMC_USIC_CH_PARITY_MODE_ODD*/
 227:C:/Projekte/Infineon_Dave/eHaJo/FlapFlap/Libraries/XMCLib/inc\xmc_uart.h **** } XMC_UART_CH_CONFIG_t;
 228:C:/Projekte/Infineon_Dave/eHaJo/FlapFlap/Libraries/XMCLib/inc\xmc_uart.h **** 
 229:C:/Projekte/Infineon_Dave/eHaJo/FlapFlap/Libraries/XMCLib/inc\xmc_uart.h **** /**************************************************************************************************
 230:C:/Projekte/Infineon_Dave/eHaJo/FlapFlap/Libraries/XMCLib/inc\xmc_uart.h ****  * API PROTOTYPES
 231:C:/Projekte/Infineon_Dave/eHaJo/FlapFlap/Libraries/XMCLib/inc\xmc_uart.h ****  **************************************************************************************************
 232:C:/Projekte/Infineon_Dave/eHaJo/FlapFlap/Libraries/XMCLib/inc\xmc_uart.h **** 
 233:C:/Projekte/Infineon_Dave/eHaJo/FlapFlap/Libraries/XMCLib/inc\xmc_uart.h **** #ifdef __cplusplus
 234:C:/Projekte/Infineon_Dave/eHaJo/FlapFlap/Libraries/XMCLib/inc\xmc_uart.h **** extern "C" {
 235:C:/Projekte/Infineon_Dave/eHaJo/FlapFlap/Libraries/XMCLib/inc\xmc_uart.h **** #endif
 236:C:/Projekte/Infineon_Dave/eHaJo/FlapFlap/Libraries/XMCLib/inc\xmc_uart.h **** 
 237:C:/Projekte/Infineon_Dave/eHaJo/FlapFlap/Libraries/XMCLib/inc\xmc_uart.h **** /**
 238:C:/Projekte/Infineon_Dave/eHaJo/FlapFlap/Libraries/XMCLib/inc\xmc_uart.h ****  * @param channel Constant pointer to USIC channel handle of type @ref XMC_USIC_CH_t \n
 239:C:/Projekte/Infineon_Dave/eHaJo/FlapFlap/Libraries/XMCLib/inc\xmc_uart.h ****  * 				  \b Range: @ref XMC_UART0_CH0, XMC_UART0_CH1,XMC_UART1_CH0, XMC_UART1_CH1,XMC_UART2_CH0, XM
 240:C:/Projekte/Infineon_Dave/eHaJo/FlapFlap/Libraries/XMCLib/inc\xmc_uart.h ****  * @param config Constant pointer to UART configuration structure of type @ref XMC_UART_CH_CONFIG_t
 241:C:/Projekte/Infineon_Dave/eHaJo/FlapFlap/Libraries/XMCLib/inc\xmc_uart.h ****  * @return XMC_UART_CH_STATUS_t Status of initializing the USIC channel for UART protocol.\n
 242:C:/Projekte/Infineon_Dave/eHaJo/FlapFlap/Libraries/XMCLib/inc\xmc_uart.h ****  *          \b Range: @ref XMC_UART_CH_STATUS_OK if initialization is successful.\n
 243:C:/Projekte/Infineon_Dave/eHaJo/FlapFlap/Libraries/XMCLib/inc\xmc_uart.h ****  *                    @ref XMC_UART_CH_STATUS_ERROR if configuration of baudrate failed.
 244:C:/Projekte/Infineon_Dave/eHaJo/FlapFlap/Libraries/XMCLib/inc\xmc_uart.h ****  *
 245:C:/Projekte/Infineon_Dave/eHaJo/FlapFlap/Libraries/XMCLib/inc\xmc_uart.h ****  * \par<b>Description</b><br>
 246:C:/Projekte/Infineon_Dave/eHaJo/FlapFlap/Libraries/XMCLib/inc\xmc_uart.h ****  * Initializes the USIC channel for UART protocol.\n\n
 247:C:/Projekte/Infineon_Dave/eHaJo/FlapFlap/Libraries/XMCLib/inc\xmc_uart.h ****  * During the initialization, USIC channel is enabled, baudrate is configured with the defined over
 248:C:/Projekte/Infineon_Dave/eHaJo/FlapFlap/Libraries/XMCLib/inc\xmc_uart.h ****  * in the intialization structure. If the oversampling value is set to 0 in the structure, the defa
 249:C:/Projekte/Infineon_Dave/eHaJo/FlapFlap/Libraries/XMCLib/inc\xmc_uart.h ****  * is considered. Sampling point for each symbol is configured at the half of sampling period. Symb
 250:C:/Projekte/Infineon_Dave/eHaJo/FlapFlap/Libraries/XMCLib/inc\xmc_uart.h ****  * majority decision among 3 samples. 
 251:C:/Projekte/Infineon_Dave/eHaJo/FlapFlap/Libraries/XMCLib/inc\xmc_uart.h ****  * Word length is configured with the number of data bits. If the value of \a frame_length is 0, th
 252:C:/Projekte/Infineon_Dave/eHaJo/FlapFlap/Libraries/XMCLib/inc\xmc_uart.h ****  * is set to the same value as word length. If \a frame_length is greater than 0, it is set as the 
 253:C:/Projekte/Infineon_Dave/eHaJo/FlapFlap/Libraries/XMCLib/inc\xmc_uart.h ****  * Parity mode is set to the value configured for \a parity_mode.
 254:C:/Projekte/Infineon_Dave/eHaJo/FlapFlap/Libraries/XMCLib/inc\xmc_uart.h ****  * The USIC channel should be set to UART mode by calling the XMC_UART_CH_Start() API after the ini
 255:C:/Projekte/Infineon_Dave/eHaJo/FlapFlap/Libraries/XMCLib/inc\xmc_uart.h ****  *
 256:C:/Projekte/Infineon_Dave/eHaJo/FlapFlap/Libraries/XMCLib/inc\xmc_uart.h ****  * \par<b>Related APIs:</b><BR>
 257:C:/Projekte/Infineon_Dave/eHaJo/FlapFlap/Libraries/XMCLib/inc\xmc_uart.h ****  * XMC_UART_CH_Start(), XMC_UART_CH_Stop(), XMC_UART_CH_Transmit()\n\n\n
 258:C:/Projekte/Infineon_Dave/eHaJo/FlapFlap/Libraries/XMCLib/inc\xmc_uart.h ****  */
 259:C:/Projekte/Infineon_Dave/eHaJo/FlapFlap/Libraries/XMCLib/inc\xmc_uart.h **** void XMC_UART_CH_Init(XMC_USIC_CH_t *const channel, const XMC_UART_CH_CONFIG_t *const config);
 260:C:/Projekte/Infineon_Dave/eHaJo/FlapFlap/Libraries/XMCLib/inc\xmc_uart.h **** 
 261:C:/Projekte/Infineon_Dave/eHaJo/FlapFlap/Libraries/XMCLib/inc\xmc_uart.h **** /**
 262:C:/Projekte/Infineon_Dave/eHaJo/FlapFlap/Libraries/XMCLib/inc\xmc_uart.h ****  * @param channel Constant pointer to USIC channel handle of type @ref XMC_USIC_CH_t \n
 263:C:/Projekte/Infineon_Dave/eHaJo/FlapFlap/Libraries/XMCLib/inc\xmc_uart.h ****  * 				  \b Range: @ref XMC_UART0_CH0, @ref XMC_UART0_CH1,@ref XMC_UART1_CH0,@ref XMC_UART1_CH1,@re
 264:C:/Projekte/Infineon_Dave/eHaJo/FlapFlap/Libraries/XMCLib/inc\xmc_uart.h ****  * @return None
 265:C:/Projekte/Infineon_Dave/eHaJo/FlapFlap/Libraries/XMCLib/inc\xmc_uart.h ****  *
 266:C:/Projekte/Infineon_Dave/eHaJo/FlapFlap/Libraries/XMCLib/inc\xmc_uart.h ****  * \par<b>Description</b><br>
 267:C:/Projekte/Infineon_Dave/eHaJo/FlapFlap/Libraries/XMCLib/inc\xmc_uart.h ****  * Sets the USIC channel operation mode to UART mode.\n\n
 268:C:/Projekte/Infineon_Dave/eHaJo/FlapFlap/Libraries/XMCLib/inc\xmc_uart.h ****  * CCR register bitfield \a Mode is set to 2(UART mode). This API should be called after configurin
 269:C:/Projekte/Infineon_Dave/eHaJo/FlapFlap/Libraries/XMCLib/inc\xmc_uart.h ****  * the USIC channel. Transmission and reception can happen only when the UART mode is set. 
 270:C:/Projekte/Infineon_Dave/eHaJo/FlapFlap/Libraries/XMCLib/inc\xmc_uart.h ****  * This is an inline function.
 271:C:/Projekte/Infineon_Dave/eHaJo/FlapFlap/Libraries/XMCLib/inc\xmc_uart.h ****  *
 272:C:/Projekte/Infineon_Dave/eHaJo/FlapFlap/Libraries/XMCLib/inc\xmc_uart.h ****  * \par<b>Related APIs:</b><BR>
 273:C:/Projekte/Infineon_Dave/eHaJo/FlapFlap/Libraries/XMCLib/inc\xmc_uart.h ****  * XMC_UART_CH_Stop(), XMC_UART_CH_Transmit()\n\n\n
 274:C:/Projekte/Infineon_Dave/eHaJo/FlapFlap/Libraries/XMCLib/inc\xmc_uart.h ****  */
 275:C:/Projekte/Infineon_Dave/eHaJo/FlapFlap/Libraries/XMCLib/inc\xmc_uart.h **** __STATIC_INLINE void XMC_UART_CH_Start(XMC_USIC_CH_t *const channel)
 276:C:/Projekte/Infineon_Dave/eHaJo/FlapFlap/Libraries/XMCLib/inc\xmc_uart.h **** {
 277:C:/Projekte/Infineon_Dave/eHaJo/FlapFlap/Libraries/XMCLib/inc\xmc_uart.h ****   channel->CCR = (uint32_t)(((channel->CCR) & (~USIC_CH_CCR_MODE_Msk)) | (uint32_t)XMC_USIC_CH_OPER
 278:C:/Projekte/Infineon_Dave/eHaJo/FlapFlap/Libraries/XMCLib/inc\xmc_uart.h **** }
 279:C:/Projekte/Infineon_Dave/eHaJo/FlapFlap/Libraries/XMCLib/inc\xmc_uart.h **** 
 280:C:/Projekte/Infineon_Dave/eHaJo/FlapFlap/Libraries/XMCLib/inc\xmc_uart.h **** /**
 281:C:/Projekte/Infineon_Dave/eHaJo/FlapFlap/Libraries/XMCLib/inc\xmc_uart.h ****  * @param channel Constant pointer to USIC channel handle of type @ref XMC_USIC_CH_t \n
 282:C:/Projekte/Infineon_Dave/eHaJo/FlapFlap/Libraries/XMCLib/inc\xmc_uart.h ****  * 				  \b Range: @ref XMC_UART0_CH0, @ref XMC_UART0_CH1,@ref XMC_UART1_CH0,@ref XMC_UART1_CH1,@re
 283:C:/Projekte/Infineon_Dave/eHaJo/FlapFlap/Libraries/XMCLib/inc\xmc_uart.h ****  * @return XMC_UART_CH_STATUS_t Status to indicate if the communication channel is stopped successf
 284:C:/Projekte/Infineon_Dave/eHaJo/FlapFlap/Libraries/XMCLib/inc\xmc_uart.h ****  *                              @ref XMC_UART_CH_STATUS_OK if the communication channel is stopped.
 285:C:/Projekte/Infineon_Dave/eHaJo/FlapFlap/Libraries/XMCLib/inc\xmc_uart.h ****  *                              @ref XMC_UART_CH_STATUS_BUSY if the communication channel is busy.
 286:C:/Projekte/Infineon_Dave/eHaJo/FlapFlap/Libraries/XMCLib/inc\xmc_uart.h ****  *
 287:C:/Projekte/Infineon_Dave/eHaJo/FlapFlap/Libraries/XMCLib/inc\xmc_uart.h ****  * \par<b>Description</b><br>
 288:C:/Projekte/Infineon_Dave/eHaJo/FlapFlap/Libraries/XMCLib/inc\xmc_uart.h ****  * Stops the UART communication.\n\n
 289:C:/Projekte/Infineon_Dave/eHaJo/FlapFlap/Libraries/XMCLib/inc\xmc_uart.h ****  * CCR register bitfield \a Mode is reset. This disables the communication.
 290:C:/Projekte/Infineon_Dave/eHaJo/FlapFlap/Libraries/XMCLib/inc\xmc_uart.h ****  * Before starting the communication again, the channel has to be reconfigured.
 291:C:/Projekte/Infineon_Dave/eHaJo/FlapFlap/Libraries/XMCLib/inc\xmc_uart.h ****  *
 292:C:/Projekte/Infineon_Dave/eHaJo/FlapFlap/Libraries/XMCLib/inc\xmc_uart.h ****  * \par<b>Related APIs:</b><BR>
 293:C:/Projekte/Infineon_Dave/eHaJo/FlapFlap/Libraries/XMCLib/inc\xmc_uart.h ****  * XMC_UART_CH_Init() \n\n\n
 294:C:/Projekte/Infineon_Dave/eHaJo/FlapFlap/Libraries/XMCLib/inc\xmc_uart.h ****  */
 295:C:/Projekte/Infineon_Dave/eHaJo/FlapFlap/Libraries/XMCLib/inc\xmc_uart.h **** XMC_UART_CH_STATUS_t XMC_UART_CH_Stop(XMC_USIC_CH_t *const channel);
 296:C:/Projekte/Infineon_Dave/eHaJo/FlapFlap/Libraries/XMCLib/inc\xmc_uart.h **** 
 297:C:/Projekte/Infineon_Dave/eHaJo/FlapFlap/Libraries/XMCLib/inc\xmc_uart.h **** /**
 298:C:/Projekte/Infineon_Dave/eHaJo/FlapFlap/Libraries/XMCLib/inc\xmc_uart.h ****  * @param channel Constant pointer to USIC channel handle of type @ref XMC_USIC_CH_t \n
 299:C:/Projekte/Infineon_Dave/eHaJo/FlapFlap/Libraries/XMCLib/inc\xmc_uart.h ****  * 				   \b Range: @ref XMC_UART0_CH0, XMC_UART0_CH1 ,XMC_UART1_CH0, XMC_UART1_CH1, XMC_UART2_CH0,
 300:C:/Projekte/Infineon_Dave/eHaJo/FlapFlap/Libraries/XMCLib/inc\xmc_uart.h ****  * @param rate Desired baudrate. \n
 301:C:/Projekte/Infineon_Dave/eHaJo/FlapFlap/Libraries/XMCLib/inc\xmc_uart.h ****  *           \b Range: minimum value = 100, maximum value depends on the peripheral clock frequency
 302:C:/Projekte/Infineon_Dave/eHaJo/FlapFlap/Libraries/XMCLib/inc\xmc_uart.h ****  * 				   and \a oversampling. Maximum baudrate can be derived using the formula: (fperiph * 1023)/
 303:C:/Projekte/Infineon_Dave/eHaJo/FlapFlap/Libraries/XMCLib/inc\xmc_uart.h ****  * @param  oversampling Required oversampling. The value indicates the number of time quanta for on
 304:C:/Projekte/Infineon_Dave/eHaJo/FlapFlap/Libraries/XMCLib/inc\xmc_uart.h ****  * 					 This can be related to the number of samples for each logic state of the data signal.\n
 305:C:/Projekte/Infineon_Dave/eHaJo/FlapFlap/Libraries/XMCLib/inc\xmc_uart.h ****  * 					 \b Range: 4 to 32. Value should be chosen based on the protocol used.
 306:C:/Projekte/Infineon_Dave/eHaJo/FlapFlap/Libraries/XMCLib/inc\xmc_uart.h ****  * @return XMC_UART_CH_STATUS_t Status indicating the baudrate configuration.\n
 307:C:/Projekte/Infineon_Dave/eHaJo/FlapFlap/Libraries/XMCLib/inc\xmc_uart.h ****  * 			     \b Range: @ref XMC_USIC_CH_STATUS_OK if baudrate is successfully configured,
 308:C:/Projekte/Infineon_Dave/eHaJo/FlapFlap/Libraries/XMCLib/inc\xmc_uart.h ****  * 					 @ref XMC_USIC_CH_STATUS_ERROR if desired baudrate or oversampling is invalid.
 309:C:/Projekte/Infineon_Dave/eHaJo/FlapFlap/Libraries/XMCLib/inc\xmc_uart.h ****  *
 310:C:/Projekte/Infineon_Dave/eHaJo/FlapFlap/Libraries/XMCLib/inc\xmc_uart.h ****  * \par<b>Description:</b><br>
 311:C:/Projekte/Infineon_Dave/eHaJo/FlapFlap/Libraries/XMCLib/inc\xmc_uart.h ****  * Sets the bus speed in bits per second.\n\n
 312:C:/Projekte/Infineon_Dave/eHaJo/FlapFlap/Libraries/XMCLib/inc\xmc_uart.h ****  * Derives the values of \a STEP and PDIV to arrive at the optimum realistic speed possible.
 313:C:/Projekte/Infineon_Dave/eHaJo/FlapFlap/Libraries/XMCLib/inc\xmc_uart.h ****  * \a oversampling is the number of samples to be taken for each symbol of UART protocol.
 314:C:/Projekte/Infineon_Dave/eHaJo/FlapFlap/Libraries/XMCLib/inc\xmc_uart.h ****  * Default \a oversampling of 16 is considered if the input \a oversampling is less than 4. It is r
 315:C:/Projekte/Infineon_Dave/eHaJo/FlapFlap/Libraries/XMCLib/inc\xmc_uart.h ****  * a minimum oversampling of 4 for UART.
 316:C:/Projekte/Infineon_Dave/eHaJo/FlapFlap/Libraries/XMCLib/inc\xmc_uart.h ****  *
 317:C:/Projekte/Infineon_Dave/eHaJo/FlapFlap/Libraries/XMCLib/inc\xmc_uart.h ****  * \par<b>Related APIs:</b><BR>
 318:C:/Projekte/Infineon_Dave/eHaJo/FlapFlap/Libraries/XMCLib/inc\xmc_uart.h ****  * XMC_UART_CH_Init(), XMC_UART_CH_Stop()
 319:C:/Projekte/Infineon_Dave/eHaJo/FlapFlap/Libraries/XMCLib/inc\xmc_uart.h ****  */
 320:C:/Projekte/Infineon_Dave/eHaJo/FlapFlap/Libraries/XMCLib/inc\xmc_uart.h **** XMC_UART_CH_STATUS_t XMC_UART_CH_SetBaudrate(XMC_USIC_CH_t *const channel, uint32_t rate, uint32_t 
 321:C:/Projekte/Infineon_Dave/eHaJo/FlapFlap/Libraries/XMCLib/inc\xmc_uart.h **** 
 322:C:/Projekte/Infineon_Dave/eHaJo/FlapFlap/Libraries/XMCLib/inc\xmc_uart.h **** /**
 323:C:/Projekte/Infineon_Dave/eHaJo/FlapFlap/Libraries/XMCLib/inc\xmc_uart.h ****  * @param channel Constant pointer to USIC channel handle of type @ref XMC_USIC_CH_t \n
 324:C:/Projekte/Infineon_Dave/eHaJo/FlapFlap/Libraries/XMCLib/inc\xmc_uart.h ****  * 				  \b Range: @ref XMC_UART0_CH0, @ref XMC_UART0_CH1,@ref XMC_UART1_CH0,@ref XMC_UART1_CH1,@re
 325:C:/Projekte/Infineon_Dave/eHaJo/FlapFlap/Libraries/XMCLib/inc\xmc_uart.h ****  * @param  data Data to be transmitted. \n 
 326:C:/Projekte/Infineon_Dave/eHaJo/FlapFlap/Libraries/XMCLib/inc\xmc_uart.h ****  *          \b Range: 16 bit unsigned data within the range 0 to 65535. Actual size of
 327:C:/Projekte/Infineon_Dave/eHaJo/FlapFlap/Libraries/XMCLib/inc\xmc_uart.h ****  *          data transmitted depends on the configured number of bits for the UART protocol in the 
 328:C:/Projekte/Infineon_Dave/eHaJo/FlapFlap/Libraries/XMCLib/inc\xmc_uart.h ****  * @return None
 329:C:/Projekte/Infineon_Dave/eHaJo/FlapFlap/Libraries/XMCLib/inc\xmc_uart.h ****  *
 330:C:/Projekte/Infineon_Dave/eHaJo/FlapFlap/Libraries/XMCLib/inc\xmc_uart.h ****  * \par<b>Description</b><br>
 331:C:/Projekte/Infineon_Dave/eHaJo/FlapFlap/Libraries/XMCLib/inc\xmc_uart.h ****  * Transmits data over serial communication channel using UART protocol.\n\n
 332:C:/Projekte/Infineon_Dave/eHaJo/FlapFlap/Libraries/XMCLib/inc\xmc_uart.h ****  * Based on the channel configuration, data is either put to the transmit FIFO or to TBUF register.
 333:C:/Projekte/Infineon_Dave/eHaJo/FlapFlap/Libraries/XMCLib/inc\xmc_uart.h ****  * Before putting data to TBUF, the API waits for TBUF to finish shifting its contents to shift reg
 334:C:/Projekte/Infineon_Dave/eHaJo/FlapFlap/Libraries/XMCLib/inc\xmc_uart.h ****  * So user can continuously execute the API without checking for TBUF busy status. Based on the num
 335:C:/Projekte/Infineon_Dave/eHaJo/FlapFlap/Libraries/XMCLib/inc\xmc_uart.h ****  * data bits configured, the lower significant bits will be extracted for transmission.
 336:C:/Projekte/Infineon_Dave/eHaJo/FlapFlap/Libraries/XMCLib/inc\xmc_uart.h ****  *
 337:C:/Projekte/Infineon_Dave/eHaJo/FlapFlap/Libraries/XMCLib/inc\xmc_uart.h ****  * Note: When FIFO is not configured, the API waits for the TBUF to be available. 
 338:C:/Projekte/Infineon_Dave/eHaJo/FlapFlap/Libraries/XMCLib/inc\xmc_uart.h ****  * This makes the execution a blocking call.
 339:C:/Projekte/Infineon_Dave/eHaJo/FlapFlap/Libraries/XMCLib/inc\xmc_uart.h ****  *
 340:C:/Projekte/Infineon_Dave/eHaJo/FlapFlap/Libraries/XMCLib/inc\xmc_uart.h ****  * \par<b>Related APIs:</b><BR>
 341:C:/Projekte/Infineon_Dave/eHaJo/FlapFlap/Libraries/XMCLib/inc\xmc_uart.h ****  * XMC_UART_CH_GetReceivedData() \n\n\n
 342:C:/Projekte/Infineon_Dave/eHaJo/FlapFlap/Libraries/XMCLib/inc\xmc_uart.h ****  */
 343:C:/Projekte/Infineon_Dave/eHaJo/FlapFlap/Libraries/XMCLib/inc\xmc_uart.h **** void XMC_UART_CH_Transmit(XMC_USIC_CH_t *const channel, const uint16_t data);
 344:C:/Projekte/Infineon_Dave/eHaJo/FlapFlap/Libraries/XMCLib/inc\xmc_uart.h **** 
 345:C:/Projekte/Infineon_Dave/eHaJo/FlapFlap/Libraries/XMCLib/inc\xmc_uart.h **** /**
 346:C:/Projekte/Infineon_Dave/eHaJo/FlapFlap/Libraries/XMCLib/inc\xmc_uart.h ****  * @param channel Constant pointer to USIC channel handle of type @ref XMC_USIC_CH_t \n
 347:C:/Projekte/Infineon_Dave/eHaJo/FlapFlap/Libraries/XMCLib/inc\xmc_uart.h ****  * 				  \b Range: @ref XMC_UART0_CH0, @ref XMC_UART0_CH1,@ref XMC_UART1_CH0,@ref XMC_UART1_CH1,@re
 348:C:/Projekte/Infineon_Dave/eHaJo/FlapFlap/Libraries/XMCLib/inc\xmc_uart.h ****  * @return uint16_t Received data over UART communication channel.
 349:C:/Projekte/Infineon_Dave/eHaJo/FlapFlap/Libraries/XMCLib/inc\xmc_uart.h ****  * \par<b>Description</b><br>
 350:C:/Projekte/Infineon_Dave/eHaJo/FlapFlap/Libraries/XMCLib/inc\xmc_uart.h ****  * Provides one word of data received over UART communication channel.\n\n
 351:C:/Projekte/Infineon_Dave/eHaJo/FlapFlap/Libraries/XMCLib/inc\xmc_uart.h ****  * Based on the channel configuration, data is either read from the receive FIFO or RBUF register.
 352:C:/Projekte/Infineon_Dave/eHaJo/FlapFlap/Libraries/XMCLib/inc\xmc_uart.h ****  * Before returning the value, there is no check for data validity. User should check the appropria
 353:C:/Projekte/Infineon_Dave/eHaJo/FlapFlap/Libraries/XMCLib/inc\xmc_uart.h ****  * data receive flags(standard receive/alternative receive/FIFO standard receive/FIFO alternative r
 354:C:/Projekte/Infineon_Dave/eHaJo/FlapFlap/Libraries/XMCLib/inc\xmc_uart.h ****  * before executing the API. Reading from an empty receive FIFO can generate a receive error event.
 355:C:/Projekte/Infineon_Dave/eHaJo/FlapFlap/Libraries/XMCLib/inc\xmc_uart.h ****  *
 356:C:/Projekte/Infineon_Dave/eHaJo/FlapFlap/Libraries/XMCLib/inc\xmc_uart.h ****  * \par<b>Related APIs:</b><BR>
 357:C:/Projekte/Infineon_Dave/eHaJo/FlapFlap/Libraries/XMCLib/inc\xmc_uart.h ****  * XMC_UART_CH_GetStatusFlag(), XMC_UART_CH_Transmit() \n\n\n
 358:C:/Projekte/Infineon_Dave/eHaJo/FlapFlap/Libraries/XMCLib/inc\xmc_uart.h ****  */
 359:C:/Projekte/Infineon_Dave/eHaJo/FlapFlap/Libraries/XMCLib/inc\xmc_uart.h **** uint16_t XMC_UART_CH_GetReceivedData(XMC_USIC_CH_t *const channel);
 360:C:/Projekte/Infineon_Dave/eHaJo/FlapFlap/Libraries/XMCLib/inc\xmc_uart.h **** 
 361:C:/Projekte/Infineon_Dave/eHaJo/FlapFlap/Libraries/XMCLib/inc\xmc_uart.h **** /**
 362:C:/Projekte/Infineon_Dave/eHaJo/FlapFlap/Libraries/XMCLib/inc\xmc_uart.h ****  * @param  channel Constant pointer to USIC channel handle of type @ref XMC_USIC_CH_t \n
 363:C:/Projekte/Infineon_Dave/eHaJo/FlapFlap/Libraries/XMCLib/inc\xmc_uart.h ****  * 				  \b Range: @ref XMC_UART0_CH0, @ref XMC_UART0_CH1,@ref XMC_UART1_CH0,@ref XMC_UART1_CH1,@re
 364:C:/Projekte/Infineon_Dave/eHaJo/FlapFlap/Libraries/XMCLib/inc\xmc_uart.h ****  * @param  word_length Data word length. \n
 365:C:/Projekte/Infineon_Dave/eHaJo/FlapFlap/Libraries/XMCLib/inc\xmc_uart.h ****  *          \b Range: minimum= 1, maximum= 16.
 366:C:/Projekte/Infineon_Dave/eHaJo/FlapFlap/Libraries/XMCLib/inc\xmc_uart.h ****  * @return None
 367:C:/Projekte/Infineon_Dave/eHaJo/FlapFlap/Libraries/XMCLib/inc\xmc_uart.h ****  *
 368:C:/Projekte/Infineon_Dave/eHaJo/FlapFlap/Libraries/XMCLib/inc\xmc_uart.h ****  * \par<b>Description</b><br>
 369:C:/Projekte/Infineon_Dave/eHaJo/FlapFlap/Libraries/XMCLib/inc\xmc_uart.h ****  * Sets the data word length in number of bits.\n\n
 370:C:/Projekte/Infineon_Dave/eHaJo/FlapFlap/Libraries/XMCLib/inc\xmc_uart.h ****  * Word length can range from 1 to 16. It indicates the number of data bits in a data word.
 371:C:/Projekte/Infineon_Dave/eHaJo/FlapFlap/Libraries/XMCLib/inc\xmc_uart.h ****  * The value of \a word_length will be decremented by 1 before setting the value to \a SCTR registe
 372:C:/Projekte/Infineon_Dave/eHaJo/FlapFlap/Libraries/XMCLib/inc\xmc_uart.h ****  * If the UART data bits is more than 16, then the frame length should be set to the actual number 
 373:C:/Projekte/Infineon_Dave/eHaJo/FlapFlap/Libraries/XMCLib/inc\xmc_uart.h ****  * word length should be configured with the number of bits expected in each transaction. For examp
 374:C:/Projekte/Infineon_Dave/eHaJo/FlapFlap/Libraries/XMCLib/inc\xmc_uart.h ****  * for UART communication is 20 bits, then the frame length should be set as 20. Word length can be
 375:C:/Projekte/Infineon_Dave/eHaJo/FlapFlap/Libraries/XMCLib/inc\xmc_uart.h ****  * transmit and receive handling. If data is stored as 8bit array, then the word length can be set 
 376:C:/Projekte/Infineon_Dave/eHaJo/FlapFlap/Libraries/XMCLib/inc\xmc_uart.h ****  * a full message of UART data should be transmitted/ received as 3 data words.
 377:C:/Projekte/Infineon_Dave/eHaJo/FlapFlap/Libraries/XMCLib/inc\xmc_uart.h ****  *
 378:C:/Projekte/Infineon_Dave/eHaJo/FlapFlap/Libraries/XMCLib/inc\xmc_uart.h ****  * \par<b>Related APIs:</b><BR>
 379:C:/Projekte/Infineon_Dave/eHaJo/FlapFlap/Libraries/XMCLib/inc\xmc_uart.h ****  * XMC_UART_CH_SetFrameLength() \n\n\n
 380:C:/Projekte/Infineon_Dave/eHaJo/FlapFlap/Libraries/XMCLib/inc\xmc_uart.h ****  */
 381:C:/Projekte/Infineon_Dave/eHaJo/FlapFlap/Libraries/XMCLib/inc\xmc_uart.h **** __STATIC_INLINE void XMC_UART_CH_SetWordLength(XMC_USIC_CH_t *const channel, const uint8_t word_len
 382:C:/Projekte/Infineon_Dave/eHaJo/FlapFlap/Libraries/XMCLib/inc\xmc_uart.h **** {
 383:C:/Projekte/Infineon_Dave/eHaJo/FlapFlap/Libraries/XMCLib/inc\xmc_uart.h ****   XMC_USIC_CH_SetWordLength(channel, word_length);
 384:C:/Projekte/Infineon_Dave/eHaJo/FlapFlap/Libraries/XMCLib/inc\xmc_uart.h **** }
 385:C:/Projekte/Infineon_Dave/eHaJo/FlapFlap/Libraries/XMCLib/inc\xmc_uart.h **** 
 386:C:/Projekte/Infineon_Dave/eHaJo/FlapFlap/Libraries/XMCLib/inc\xmc_uart.h **** /**
 387:C:/Projekte/Infineon_Dave/eHaJo/FlapFlap/Libraries/XMCLib/inc\xmc_uart.h ****  * @param  channel Constant pointer to USIC channel handle of type @ref XMC_USIC_CH_t \n
 388:C:/Projekte/Infineon_Dave/eHaJo/FlapFlap/Libraries/XMCLib/inc\xmc_uart.h ****  * 				  \b Range: @ref XMC_UART0_CH0, @ref XMC_UART0_CH1,@ref XMC_UART1_CH0,@ref XMC_UART1_CH1,@re
 389:C:/Projekte/Infineon_Dave/eHaJo/FlapFlap/Libraries/XMCLib/inc\xmc_uart.h ****  * @param  frame_length Number of data bits in each UART frame. \n
 390:C:/Projekte/Infineon_Dave/eHaJo/FlapFlap/Libraries/XMCLib/inc\xmc_uart.h ****  *          \b Range: minimum= 1, maximum= 64.
 391:C:/Projekte/Infineon_Dave/eHaJo/FlapFlap/Libraries/XMCLib/inc\xmc_uart.h ****  * @return None
 392:C:/Projekte/Infineon_Dave/eHaJo/FlapFlap/Libraries/XMCLib/inc\xmc_uart.h ****  *
 393:C:/Projekte/Infineon_Dave/eHaJo/FlapFlap/Libraries/XMCLib/inc\xmc_uart.h ****  * \par<b>Description</b><br>
 394:C:/Projekte/Infineon_Dave/eHaJo/FlapFlap/Libraries/XMCLib/inc\xmc_uart.h ****  * Sets the number of data bits for UART communication.\n\n
 395:C:/Projekte/Infineon_Dave/eHaJo/FlapFlap/Libraries/XMCLib/inc\xmc_uart.h ****  * The frame length is configured by setting the input value to \a SCTR register.
 396:C:/Projekte/Infineon_Dave/eHaJo/FlapFlap/Libraries/XMCLib/inc\xmc_uart.h ****  * The value of \a frame_length will be decremented by 1, before setting it to the register.
 397:C:/Projekte/Infineon_Dave/eHaJo/FlapFlap/Libraries/XMCLib/inc\xmc_uart.h ****  * Frame length should not be set to 64 for UART communication.
 398:C:/Projekte/Infineon_Dave/eHaJo/FlapFlap/Libraries/XMCLib/inc\xmc_uart.h ****  *
 399:C:/Projekte/Infineon_Dave/eHaJo/FlapFlap/Libraries/XMCLib/inc\xmc_uart.h ****  * \par<b>Related APIs:</b><BR>
 400:C:/Projekte/Infineon_Dave/eHaJo/FlapFlap/Libraries/XMCLib/inc\xmc_uart.h ****  * XMC_UART_CH_SetWordLength() \n\n\n
 401:C:/Projekte/Infineon_Dave/eHaJo/FlapFlap/Libraries/XMCLib/inc\xmc_uart.h ****  */
 402:C:/Projekte/Infineon_Dave/eHaJo/FlapFlap/Libraries/XMCLib/inc\xmc_uart.h **** __STATIC_INLINE void XMC_UART_CH_SetFrameLength(XMC_USIC_CH_t *const channel, const uint8_t frame_l
 403:C:/Projekte/Infineon_Dave/eHaJo/FlapFlap/Libraries/XMCLib/inc\xmc_uart.h **** {
 404:C:/Projekte/Infineon_Dave/eHaJo/FlapFlap/Libraries/XMCLib/inc\xmc_uart.h ****   XMC_USIC_CH_SetFrameLength(channel, frame_length);
 405:C:/Projekte/Infineon_Dave/eHaJo/FlapFlap/Libraries/XMCLib/inc\xmc_uart.h **** }
 406:C:/Projekte/Infineon_Dave/eHaJo/FlapFlap/Libraries/XMCLib/inc\xmc_uart.h **** 
 407:C:/Projekte/Infineon_Dave/eHaJo/FlapFlap/Libraries/XMCLib/inc\xmc_uart.h **** /**
 408:C:/Projekte/Infineon_Dave/eHaJo/FlapFlap/Libraries/XMCLib/inc\xmc_uart.h ****  * @param channel Constant pointer to USIC channel handle of type @ref XMC_USIC_CH_t \n
 409:C:/Projekte/Infineon_Dave/eHaJo/FlapFlap/Libraries/XMCLib/inc\xmc_uart.h ****  * 				  \b Range: @ref XMC_UART0_CH0, @ref XMC_UART0_CH1,@ref XMC_UART1_CH0,@ref XMC_UART1_CH1,@re
 410:C:/Projekte/Infineon_Dave/eHaJo/FlapFlap/Libraries/XMCLib/inc\xmc_uart.h ****  * @param  event Event bitmasks to enable. Use the type @ref XMC_UART_CH_EVENT_t for naming events.
 411:C:/Projekte/Infineon_Dave/eHaJo/FlapFlap/Libraries/XMCLib/inc\xmc_uart.h ****  * 				  \b Range: @ref XMC_UART_CH_EVENT_RECEIVE_START, @ref XMC_UART_CH_EVENT_DATA_LOST,
 412:C:/Projekte/Infineon_Dave/eHaJo/FlapFlap/Libraries/XMCLib/inc\xmc_uart.h ****  * 				  @ref XMC_UART_CH_EVENT_TRANSMIT_SHIFT, @ref XMC_UART_CH_EVENT_TRANSMIT_BUFFER,
 413:C:/Projekte/Infineon_Dave/eHaJo/FlapFlap/Libraries/XMCLib/inc\xmc_uart.h ****  * 				  etc.
 414:C:/Projekte/Infineon_Dave/eHaJo/FlapFlap/Libraries/XMCLib/inc\xmc_uart.h ****  * @return None
 415:C:/Projekte/Infineon_Dave/eHaJo/FlapFlap/Libraries/XMCLib/inc\xmc_uart.h ****  *
 416:C:/Projekte/Infineon_Dave/eHaJo/FlapFlap/Libraries/XMCLib/inc\xmc_uart.h ****  * \par<b>Description</b><br>
 417:C:/Projekte/Infineon_Dave/eHaJo/FlapFlap/Libraries/XMCLib/inc\xmc_uart.h ****  * Enables interrupt events for UART communication.\n\n
 418:C:/Projekte/Infineon_Dave/eHaJo/FlapFlap/Libraries/XMCLib/inc\xmc_uart.h ****  * Multiple events can be combined using the bitwise OR operation and configured in one function ca
 419:C:/Projekte/Infineon_Dave/eHaJo/FlapFlap/Libraries/XMCLib/inc\xmc_uart.h ****  * @ref XMC_UART_CH_EVENT_t enumerates multiple event bitmasks. These enumerations can be used as i
 420:C:/Projekte/Infineon_Dave/eHaJo/FlapFlap/Libraries/XMCLib/inc\xmc_uart.h ****  * Events are configured by setting bits in the CCR register.
 421:C:/Projekte/Infineon_Dave/eHaJo/FlapFlap/Libraries/XMCLib/inc\xmc_uart.h ****  * \par<b>Related APIs:</b><BR>
 422:C:/Projekte/Infineon_Dave/eHaJo/FlapFlap/Libraries/XMCLib/inc\xmc_uart.h ****  * XMC_UART_CH_DisableEvent(), XMC_UART_CH_SetInterruptNodePointer(), XMC_UART_CH_GetStatusFlag() \
 423:C:/Projekte/Infineon_Dave/eHaJo/FlapFlap/Libraries/XMCLib/inc\xmc_uart.h ****  */
 424:C:/Projekte/Infineon_Dave/eHaJo/FlapFlap/Libraries/XMCLib/inc\xmc_uart.h **** void XMC_UART_CH_EnableEvent(XMC_USIC_CH_t *const channel, const uint32_t event);
 425:C:/Projekte/Infineon_Dave/eHaJo/FlapFlap/Libraries/XMCLib/inc\xmc_uart.h **** 
 426:C:/Projekte/Infineon_Dave/eHaJo/FlapFlap/Libraries/XMCLib/inc\xmc_uart.h **** /**
 427:C:/Projekte/Infineon_Dave/eHaJo/FlapFlap/Libraries/XMCLib/inc\xmc_uart.h ****  * @param channel Constant pointer to USIC channel handle of type @ref XMC_USIC_CH_t \n
 428:C:/Projekte/Infineon_Dave/eHaJo/FlapFlap/Libraries/XMCLib/inc\xmc_uart.h ****  * 				  \b Range: @ref XMC_UART0_CH0, @ref XMC_UART0_CH1,@ref XMC_UART1_CH0,@ref XMC_UART1_CH1,@re
 429:C:/Projekte/Infineon_Dave/eHaJo/FlapFlap/Libraries/XMCLib/inc\xmc_uart.h ****  * @param  event Bitmask of events to disable. Use the type @ref XMC_UART_CH_EVENT_t for naming eve
 430:C:/Projekte/Infineon_Dave/eHaJo/FlapFlap/Libraries/XMCLib/inc\xmc_uart.h ****  * 				  \b Range: @ref XMC_UART_CH_EVENT_RECEIVE_START, @ref XMC_UART_CH_EVENT_DATA_LOST,
 431:C:/Projekte/Infineon_Dave/eHaJo/FlapFlap/Libraries/XMCLib/inc\xmc_uart.h ****  * 				  @ref XMC_UART_CH_EVENT_TRANSMIT_SHIFT, @ref XMC_UART_CH_EVENT_TRANSMIT_BUFFER,
 432:C:/Projekte/Infineon_Dave/eHaJo/FlapFlap/Libraries/XMCLib/inc\xmc_uart.h ****  * 				  etc.
 433:C:/Projekte/Infineon_Dave/eHaJo/FlapFlap/Libraries/XMCLib/inc\xmc_uart.h ****  * @return None
 434:C:/Projekte/Infineon_Dave/eHaJo/FlapFlap/Libraries/XMCLib/inc\xmc_uart.h ****  *
 435:C:/Projekte/Infineon_Dave/eHaJo/FlapFlap/Libraries/XMCLib/inc\xmc_uart.h ****  * \par<b>Description</b><br>
 436:C:/Projekte/Infineon_Dave/eHaJo/FlapFlap/Libraries/XMCLib/inc\xmc_uart.h ****  * Disables the interrupt events by clearing the bits in CCR register.\n\n
 437:C:/Projekte/Infineon_Dave/eHaJo/FlapFlap/Libraries/XMCLib/inc\xmc_uart.h ****  * Multiple events can be combined using the bitwise OR operation and configured in one function ca
 438:C:/Projekte/Infineon_Dave/eHaJo/FlapFlap/Libraries/XMCLib/inc\xmc_uart.h ****  * XMC_UART_CH_EVENT_FLAG_t enumerates multiple event bitmasks. These enumerations can be used as i
 439:C:/Projekte/Infineon_Dave/eHaJo/FlapFlap/Libraries/XMCLib/inc\xmc_uart.h ****  *
 440:C:/Projekte/Infineon_Dave/eHaJo/FlapFlap/Libraries/XMCLib/inc\xmc_uart.h ****  * \par<b>Related APIs:</b><BR>
 441:C:/Projekte/Infineon_Dave/eHaJo/FlapFlap/Libraries/XMCLib/inc\xmc_uart.h ****  * XMC_UART_CH_ClearStatusFlag(), XMC_UART_CH_EnableEvent() \n\n\n
 442:C:/Projekte/Infineon_Dave/eHaJo/FlapFlap/Libraries/XMCLib/inc\xmc_uart.h ****  */
 443:C:/Projekte/Infineon_Dave/eHaJo/FlapFlap/Libraries/XMCLib/inc\xmc_uart.h **** void XMC_UART_CH_DisableEvent(XMC_USIC_CH_t *const channel, const uint32_t event);
 444:C:/Projekte/Infineon_Dave/eHaJo/FlapFlap/Libraries/XMCLib/inc\xmc_uart.h **** 
 445:C:/Projekte/Infineon_Dave/eHaJo/FlapFlap/Libraries/XMCLib/inc\xmc_uart.h **** /**
 446:C:/Projekte/Infineon_Dave/eHaJo/FlapFlap/Libraries/XMCLib/inc\xmc_uart.h ****  * @param channel Constant pointer to USIC channel handle of type @ref XMC_USIC_CH_t \n
 447:C:/Projekte/Infineon_Dave/eHaJo/FlapFlap/Libraries/XMCLib/inc\xmc_uart.h ****  * 				  \b Range: @ref XMC_UART0_CH0, @ref XMC_UART0_CH1,@ref XMC_UART1_CH0,@ref XMC_UART1_CH1,@re
 448:C:/Projekte/Infineon_Dave/eHaJo/FlapFlap/Libraries/XMCLib/inc\xmc_uart.h ****  * @param service_request Service request number for generating protocol interrupts.\n
 449:C:/Projekte/Infineon_Dave/eHaJo/FlapFlap/Libraries/XMCLib/inc\xmc_uart.h ****  * 				  \b Range: 0 to 5.
 450:C:/Projekte/Infineon_Dave/eHaJo/FlapFlap/Libraries/XMCLib/inc\xmc_uart.h ****  * @return None
 451:C:/Projekte/Infineon_Dave/eHaJo/FlapFlap/Libraries/XMCLib/inc\xmc_uart.h ****  *
 452:C:/Projekte/Infineon_Dave/eHaJo/FlapFlap/Libraries/XMCLib/inc\xmc_uart.h ****  * \par<b>Description</b><br>
 453:C:/Projekte/Infineon_Dave/eHaJo/FlapFlap/Libraries/XMCLib/inc\xmc_uart.h ****  * Sets the interrupt node for UART channel protocol events.\n\n
 454:C:/Projekte/Infineon_Dave/eHaJo/FlapFlap/Libraries/XMCLib/inc\xmc_uart.h ****  * For all the protocol events enlisted in the enumeration XMC_UART_CH_EVENT_t, one common
 455:C:/Projekte/Infineon_Dave/eHaJo/FlapFlap/Libraries/XMCLib/inc\xmc_uart.h ****  * interrupt gets generated. The service request connects the interrupt node to the UART 
 456:C:/Projekte/Infineon_Dave/eHaJo/FlapFlap/Libraries/XMCLib/inc\xmc_uart.h ****  * protocol events.
 457:C:/Projekte/Infineon_Dave/eHaJo/FlapFlap/Libraries/XMCLib/inc\xmc_uart.h ****  * Note: NVIC node should be separately enabled to generate the interrupt.
 458:C:/Projekte/Infineon_Dave/eHaJo/FlapFlap/Libraries/XMCLib/inc\xmc_uart.h ****  *
 459:C:/Projekte/Infineon_Dave/eHaJo/FlapFlap/Libraries/XMCLib/inc\xmc_uart.h ****  * \par<b>Related APIs:</b><BR>
 460:C:/Projekte/Infineon_Dave/eHaJo/FlapFlap/Libraries/XMCLib/inc\xmc_uart.h ****  * XMC_UART_CH_EnableEvent() \n\n\n
 461:C:/Projekte/Infineon_Dave/eHaJo/FlapFlap/Libraries/XMCLib/inc\xmc_uart.h ****  */
 462:C:/Projekte/Infineon_Dave/eHaJo/FlapFlap/Libraries/XMCLib/inc\xmc_uart.h **** __STATIC_INLINE void XMC_UART_CH_SetInterruptNodePointer(XMC_USIC_CH_t *const channel,
 463:C:/Projekte/Infineon_Dave/eHaJo/FlapFlap/Libraries/XMCLib/inc\xmc_uart.h ****                                                          const uint8_t service_request)
 464:C:/Projekte/Infineon_Dave/eHaJo/FlapFlap/Libraries/XMCLib/inc\xmc_uart.h **** {
 465:C:/Projekte/Infineon_Dave/eHaJo/FlapFlap/Libraries/XMCLib/inc\xmc_uart.h ****   XMC_USIC_CH_SetInterruptNodePointer(channel, XMC_USIC_CH_INTERRUPT_NODE_POINTER_PROTOCOL, 
 466:C:/Projekte/Infineon_Dave/eHaJo/FlapFlap/Libraries/XMCLib/inc\xmc_uart.h ****                                               (uint32_t)service_request);
 467:C:/Projekte/Infineon_Dave/eHaJo/FlapFlap/Libraries/XMCLib/inc\xmc_uart.h **** }
 468:C:/Projekte/Infineon_Dave/eHaJo/FlapFlap/Libraries/XMCLib/inc\xmc_uart.h **** 
 469:C:/Projekte/Infineon_Dave/eHaJo/FlapFlap/Libraries/XMCLib/inc\xmc_uart.h **** /**
 470:C:/Projekte/Infineon_Dave/eHaJo/FlapFlap/Libraries/XMCLib/inc\xmc_uart.h ****  * @param channel Pointer to USIC channel handler of type @ref XMC_USIC_CH_t \n
 471:C:/Projekte/Infineon_Dave/eHaJo/FlapFlap/Libraries/XMCLib/inc\xmc_uart.h ****  * 				  \b Range: @ref XMC_UART0_CH0, @ref XMC_UART0_CH1,@ref XMC_UART1_CH0,@ref XMC_UART1_CH1,@re
 472:C:/Projekte/Infineon_Dave/eHaJo/FlapFlap/Libraries/XMCLib/inc\xmc_uart.h ****  * @param  interrupt_node Interrupt node pointer to be configured. \n
 473:C:/Projekte/Infineon_Dave/eHaJo/FlapFlap/Libraries/XMCLib/inc\xmc_uart.h ****  * 						  \b Range: @ref XMC_UART_CH_INTERRUPT_NODE_POINTER_TRANSMIT_SHIFT,
 474:C:/Projekte/Infineon_Dave/eHaJo/FlapFlap/Libraries/XMCLib/inc\xmc_uart.h ****  * 						  			@ref XMC_UART_CH_INTERRUPT_NODE_POINTER_TRANSMIT_BUFFER etc.
 475:C:/Projekte/Infineon_Dave/eHaJo/FlapFlap/Libraries/XMCLib/inc\xmc_uart.h ****  * @param service_request Service request number.\n
 476:C:/Projekte/Infineon_Dave/eHaJo/FlapFlap/Libraries/XMCLib/inc\xmc_uart.h ****  * 						  \b Range: 0 to 5.
 477:C:/Projekte/Infineon_Dave/eHaJo/FlapFlap/Libraries/XMCLib/inc\xmc_uart.h ****  * @return None
 478:C:/Projekte/Infineon_Dave/eHaJo/FlapFlap/Libraries/XMCLib/inc\xmc_uart.h ****  *
 479:C:/Projekte/Infineon_Dave/eHaJo/FlapFlap/Libraries/XMCLib/inc\xmc_uart.h ****  * \par<b>Description</b><br>
 480:C:/Projekte/Infineon_Dave/eHaJo/FlapFlap/Libraries/XMCLib/inc\xmc_uart.h ****  * Sets the interrupt node for USIC channel events. \n\n
 481:C:/Projekte/Infineon_Dave/eHaJo/FlapFlap/Libraries/XMCLib/inc\xmc_uart.h ****  * For an event to generate interrupt, node pointer should be configured with service request(SR0, 
 482:C:/Projekte/Infineon_Dave/eHaJo/FlapFlap/Libraries/XMCLib/inc\xmc_uart.h ****  * The NVIC node gets linked to the interrupt event by doing so.<br>
 483:C:/Projekte/Infineon_Dave/eHaJo/FlapFlap/Libraries/XMCLib/inc\xmc_uart.h ****  * Note: NVIC node should be separately enabled to generate the interrupt.
 484:C:/Projekte/Infineon_Dave/eHaJo/FlapFlap/Libraries/XMCLib/inc\xmc_uart.h ****  *
 485:C:/Projekte/Infineon_Dave/eHaJo/FlapFlap/Libraries/XMCLib/inc\xmc_uart.h ****  * \par<b>Related APIs:</b><BR>
 486:C:/Projekte/Infineon_Dave/eHaJo/FlapFlap/Libraries/XMCLib/inc\xmc_uart.h ****  * XMC_UART_CH_EnableEvent() \n\n\n
 487:C:/Projekte/Infineon_Dave/eHaJo/FlapFlap/Libraries/XMCLib/inc\xmc_uart.h ****  */
 488:C:/Projekte/Infineon_Dave/eHaJo/FlapFlap/Libraries/XMCLib/inc\xmc_uart.h **** __STATIC_INLINE void XMC_UART_CH_SelectInterruptNodePointer(XMC_USIC_CH_t *const channel,
 489:C:/Projekte/Infineon_Dave/eHaJo/FlapFlap/Libraries/XMCLib/inc\xmc_uart.h ****                                                             const XMC_UART_CH_INTERRUPT_NODE_POINTE
 490:C:/Projekte/Infineon_Dave/eHaJo/FlapFlap/Libraries/XMCLib/inc\xmc_uart.h ****                                                             const uint32_t service_request)
 491:C:/Projekte/Infineon_Dave/eHaJo/FlapFlap/Libraries/XMCLib/inc\xmc_uart.h **** {
 492:C:/Projekte/Infineon_Dave/eHaJo/FlapFlap/Libraries/XMCLib/inc\xmc_uart.h ****   XMC_USIC_CH_SetInterruptNodePointer(channel, (XMC_USIC_CH_INTERRUPT_NODE_POINTER_t)interrupt_node
 493:C:/Projekte/Infineon_Dave/eHaJo/FlapFlap/Libraries/XMCLib/inc\xmc_uart.h **** 		                                       (uint32_t)service_request);
 494:C:/Projekte/Infineon_Dave/eHaJo/FlapFlap/Libraries/XMCLib/inc\xmc_uart.h **** }
 495:C:/Projekte/Infineon_Dave/eHaJo/FlapFlap/Libraries/XMCLib/inc\xmc_uart.h **** 
 496:C:/Projekte/Infineon_Dave/eHaJo/FlapFlap/Libraries/XMCLib/inc\xmc_uart.h **** /**
 497:C:/Projekte/Infineon_Dave/eHaJo/FlapFlap/Libraries/XMCLib/inc\xmc_uart.h ****  * @param  channel Pointer to USIC channel handler of type @ref XMC_USIC_CH_t \n
 498:C:/Projekte/Infineon_Dave/eHaJo/FlapFlap/Libraries/XMCLib/inc\xmc_uart.h ****  * 				   \b Range: @ref XMC_UART0_CH0, @ref XMC_UART0_CH1,@ref XMC_UART1_CH0,@ref XMC_UART1_CH1,@r
 499:C:/Projekte/Infineon_Dave/eHaJo/FlapFlap/Libraries/XMCLib/inc\xmc_uart.h ****  * @param  service_request_line service request number of the event to be triggered. \n
 500:C:/Projekte/Infineon_Dave/eHaJo/FlapFlap/Libraries/XMCLib/inc\xmc_uart.h ****  * 			\b Range: 0 to 5.
 501:C:/Projekte/Infineon_Dave/eHaJo/FlapFlap/Libraries/XMCLib/inc\xmc_uart.h ****  * @return None
 502:C:/Projekte/Infineon_Dave/eHaJo/FlapFlap/Libraries/XMCLib/inc\xmc_uart.h ****  *
 503:C:/Projekte/Infineon_Dave/eHaJo/FlapFlap/Libraries/XMCLib/inc\xmc_uart.h ****  * \par<b>Description</b><br>
 504:C:/Projekte/Infineon_Dave/eHaJo/FlapFlap/Libraries/XMCLib/inc\xmc_uart.h ****  * Trigger a UART interrupt service request.\n\n
 505:C:/Projekte/Infineon_Dave/eHaJo/FlapFlap/Libraries/XMCLib/inc\xmc_uart.h ****  * When the UART service request is triggered, the NVIC interrupt associated with it will be
 506:C:/Projekte/Infineon_Dave/eHaJo/FlapFlap/Libraries/XMCLib/inc\xmc_uart.h ****  * generated if enabled.
 507:C:/Projekte/Infineon_Dave/eHaJo/FlapFlap/Libraries/XMCLib/inc\xmc_uart.h ****  *
 508:C:/Projekte/Infineon_Dave/eHaJo/FlapFlap/Libraries/XMCLib/inc\xmc_uart.h ****  * \par<b>Related APIs:</b><BR>
 509:C:/Projekte/Infineon_Dave/eHaJo/FlapFlap/Libraries/XMCLib/inc\xmc_uart.h ****  * XMC_UART_CH_SelectInterruptNodePointer() \n\n\n
 510:C:/Projekte/Infineon_Dave/eHaJo/FlapFlap/Libraries/XMCLib/inc\xmc_uart.h ****  */
 511:C:/Projekte/Infineon_Dave/eHaJo/FlapFlap/Libraries/XMCLib/inc\xmc_uart.h **** __STATIC_INLINE void XMC_UART_CH_TriggerServiceRequest(XMC_USIC_CH_t *const channel, const uint32_t
 512:C:/Projekte/Infineon_Dave/eHaJo/FlapFlap/Libraries/XMCLib/inc\xmc_uart.h **** {
 513:C:/Projekte/Infineon_Dave/eHaJo/FlapFlap/Libraries/XMCLib/inc\xmc_uart.h ****   XMC_USIC_CH_TriggerServiceRequest(channel, (uint32_t)service_request_line);
 514:C:/Projekte/Infineon_Dave/eHaJo/FlapFlap/Libraries/XMCLib/inc\xmc_uart.h **** }
 515:C:/Projekte/Infineon_Dave/eHaJo/FlapFlap/Libraries/XMCLib/inc\xmc_uart.h **** 
 516:C:/Projekte/Infineon_Dave/eHaJo/FlapFlap/Libraries/XMCLib/inc\xmc_uart.h **** /**
 517:C:/Projekte/Infineon_Dave/eHaJo/FlapFlap/Libraries/XMCLib/inc\xmc_uart.h ****  * @param channel Constant pointer to USIC channel handle of type @ref XMC_USIC_CH_t \n
 518:C:/Projekte/Infineon_Dave/eHaJo/FlapFlap/Libraries/XMCLib/inc\xmc_uart.h ****  * 				  \b Range: @ref XMC_UART0_CH0, @ref XMC_UART0_CH1,@ref XMC_UART1_CH0,@ref XMC_UART1_CH1,@re
 519:C:/Projekte/Infineon_Dave/eHaJo/FlapFlap/Libraries/XMCLib/inc\xmc_uart.h ****  * @return Status of UART channel events. \n 
 520:C:/Projekte/Infineon_Dave/eHaJo/FlapFlap/Libraries/XMCLib/inc\xmc_uart.h ****  *          \b Range: Use @ref XMC_UART_CH_STATUS_FLAG_t enumerations for
 521:C:/Projekte/Infineon_Dave/eHaJo/FlapFlap/Libraries/XMCLib/inc\xmc_uart.h ****  * 					event bitmasks. @ref XMC_UART_CH_STATUS_FLAG_TRANSMISSION_IDLE, @ref XMC_UART_CH_STATUS_FLA
 522:C:/Projekte/Infineon_Dave/eHaJo/FlapFlap/Libraries/XMCLib/inc\xmc_uart.h ****  * 					@ref XMC_UART_CH_STATUS_FLAG_SYNCHRONIZATION_BREAK_DETECTED etc.
 523:C:/Projekte/Infineon_Dave/eHaJo/FlapFlap/Libraries/XMCLib/inc\xmc_uart.h ****  *
 524:C:/Projekte/Infineon_Dave/eHaJo/FlapFlap/Libraries/XMCLib/inc\xmc_uart.h ****  * \par<b>Description</b><br>
 525:C:/Projekte/Infineon_Dave/eHaJo/FlapFlap/Libraries/XMCLib/inc\xmc_uart.h ****  * Provides the status of UART channel events.\n\n
 526:C:/Projekte/Infineon_Dave/eHaJo/FlapFlap/Libraries/XMCLib/inc\xmc_uart.h ****  * Status provided by the API represents the status of multiple events at their bit positions. The 
 527:C:/Projekte/Infineon_Dave/eHaJo/FlapFlap/Libraries/XMCLib/inc\xmc_uart.h ****  * obtained using the enumeration XMC_UART_CH_STATUS_FLAG_t. Event status is obtained by reading
 528:C:/Projekte/Infineon_Dave/eHaJo/FlapFlap/Libraries/XMCLib/inc\xmc_uart.h ****  * the register PSR_ASCMode.
 529:C:/Projekte/Infineon_Dave/eHaJo/FlapFlap/Libraries/XMCLib/inc\xmc_uart.h ****  *
 530:C:/Projekte/Infineon_Dave/eHaJo/FlapFlap/Libraries/XMCLib/inc\xmc_uart.h ****  * \par<b>Related APIs:</b><BR>
 531:C:/Projekte/Infineon_Dave/eHaJo/FlapFlap/Libraries/XMCLib/inc\xmc_uart.h ****  * XMC_UART_CH_EnableEvent(),  XMC_UART_CH_ClearStatusFlag()\n\n\n
 532:C:/Projekte/Infineon_Dave/eHaJo/FlapFlap/Libraries/XMCLib/inc\xmc_uart.h ****  */
 533:C:/Projekte/Infineon_Dave/eHaJo/FlapFlap/Libraries/XMCLib/inc\xmc_uart.h **** __STATIC_INLINE uint32_t XMC_UART_CH_GetStatusFlag(XMC_USIC_CH_t *const channel)
 534:C:/Projekte/Infineon_Dave/eHaJo/FlapFlap/Libraries/XMCLib/inc\xmc_uart.h **** {
 535:C:/Projekte/Infineon_Dave/eHaJo/FlapFlap/Libraries/XMCLib/inc\xmc_uart.h ****   return channel->PSR_ASCMode;
 536:C:/Projekte/Infineon_Dave/eHaJo/FlapFlap/Libraries/XMCLib/inc\xmc_uart.h **** }
 537:C:/Projekte/Infineon_Dave/eHaJo/FlapFlap/Libraries/XMCLib/inc\xmc_uart.h **** 
 538:C:/Projekte/Infineon_Dave/eHaJo/FlapFlap/Libraries/XMCLib/inc\xmc_uart.h **** /**
 539:C:/Projekte/Infineon_Dave/eHaJo/FlapFlap/Libraries/XMCLib/inc\xmc_uart.h ****  * @param channel Constant pointer to USIC channel handle of type @ref XMC_USIC_CH_t \n
 540:C:/Projekte/Infineon_Dave/eHaJo/FlapFlap/Libraries/XMCLib/inc\xmc_uart.h ****  * 				  \b Range: @ref XMC_UART0_CH0, @ref XMC_UART0_CH1,@ref XMC_UART1_CH0,@ref XMC_UART1_CH1,@re
 541:C:/Projekte/Infineon_Dave/eHaJo/FlapFlap/Libraries/XMCLib/inc\xmc_uart.h ****  * @param flag UART events to be cleared. \n
 542:C:/Projekte/Infineon_Dave/eHaJo/FlapFlap/Libraries/XMCLib/inc\xmc_uart.h ****  *          \b Range: Use @ref XMC_UART_CH_STATUS_FLAG_t enumerations for
 543:C:/Projekte/Infineon_Dave/eHaJo/FlapFlap/Libraries/XMCLib/inc\xmc_uart.h ****  * 					event bitmasks. @ref XMC_UART_CH_STATUS_FLAG_TRANSMISSION_IDLE, @ref XMC_UART_CH_STATUS_FLA
 544:C:/Projekte/Infineon_Dave/eHaJo/FlapFlap/Libraries/XMCLib/inc\xmc_uart.h ****  * 					@ref XMC_UART_CH_STATUS_FLAG_SYNCHRONIZATION_BREAK_DETECTED etc.
 545:C:/Projekte/Infineon_Dave/eHaJo/FlapFlap/Libraries/XMCLib/inc\xmc_uart.h ****  * @return None
 546:C:/Projekte/Infineon_Dave/eHaJo/FlapFlap/Libraries/XMCLib/inc\xmc_uart.h ****  *
 547:C:/Projekte/Infineon_Dave/eHaJo/FlapFlap/Libraries/XMCLib/inc\xmc_uart.h ****  * \par<b>Description</b><br>
 548:C:/Projekte/Infineon_Dave/eHaJo/FlapFlap/Libraries/XMCLib/inc\xmc_uart.h ****  * Clears the status of UART channel events.\n\n
 549:C:/Projekte/Infineon_Dave/eHaJo/FlapFlap/Libraries/XMCLib/inc\xmc_uart.h ****  * Multiple events can be combined using the bitwise OR operation and configured in one function ca
 550:C:/Projekte/Infineon_Dave/eHaJo/FlapFlap/Libraries/XMCLib/inc\xmc_uart.h ****  * XMC_UART_CH_STATUS_FLAG_t enumerates multiple event bitmasks. These enumerations can be used as 
 551:C:/Projekte/Infineon_Dave/eHaJo/FlapFlap/Libraries/XMCLib/inc\xmc_uart.h ****  * Events are cleared by setting the bitmask to the PSCR register.
 552:C:/Projekte/Infineon_Dave/eHaJo/FlapFlap/Libraries/XMCLib/inc\xmc_uart.h ****  *
 553:C:/Projekte/Infineon_Dave/eHaJo/FlapFlap/Libraries/XMCLib/inc\xmc_uart.h ****  * \par<b>Related APIs:</b><BR>
 554:C:/Projekte/Infineon_Dave/eHaJo/FlapFlap/Libraries/XMCLib/inc\xmc_uart.h ****  * XMC_UART_CH_DisableEvent(),  XMC_UART_CH_GetStatusFlag()\n\n\n
 555:C:/Projekte/Infineon_Dave/eHaJo/FlapFlap/Libraries/XMCLib/inc\xmc_uart.h ****  */
 556:C:/Projekte/Infineon_Dave/eHaJo/FlapFlap/Libraries/XMCLib/inc\xmc_uart.h **** __STATIC_INLINE void XMC_UART_CH_ClearStatusFlag(XMC_USIC_CH_t *const channel, const uint32_t flag)
 557:C:/Projekte/Infineon_Dave/eHaJo/FlapFlap/Libraries/XMCLib/inc\xmc_uart.h **** {
 558:C:/Projekte/Infineon_Dave/eHaJo/FlapFlap/Libraries/XMCLib/inc\xmc_uart.h ****   channel->PSCR = flag;
 559:C:/Projekte/Infineon_Dave/eHaJo/FlapFlap/Libraries/XMCLib/inc\xmc_uart.h **** }
 560:C:/Projekte/Infineon_Dave/eHaJo/FlapFlap/Libraries/XMCLib/inc\xmc_uart.h **** 
 561:C:/Projekte/Infineon_Dave/eHaJo/FlapFlap/Libraries/XMCLib/inc\xmc_uart.h **** /**
 562:C:/Projekte/Infineon_Dave/eHaJo/FlapFlap/Libraries/XMCLib/inc\xmc_uart.h ****  * @param channel Constant pointer to USIC channel handle of type @ref XMC_USIC_CH_t \n
 563:C:/Projekte/Infineon_Dave/eHaJo/FlapFlap/Libraries/XMCLib/inc\xmc_uart.h ****  * 				  \b Range: @ref XMC_UART0_CH0, @ref XMC_UART0_CH1,@ref XMC_UART1_CH0,@ref XMC_UART1_CH1,@re
 564:C:/Projekte/Infineon_Dave/eHaJo/FlapFlap/Libraries/XMCLib/inc\xmc_uart.h ****  * @param input UART channel input stage of type @ref XMC_UART_CH_INPUT_t. \n 
 565:C:/Projekte/Infineon_Dave/eHaJo/FlapFlap/Libraries/XMCLib/inc\xmc_uart.h ****  *          \b Range: @ref XMC_UART_CH_INPUT_RXD (for DX0),
 566:C:/Projekte/Infineon_Dave/eHaJo/FlapFlap/Libraries/XMCLib/inc\xmc_uart.h ****  * 					@ref XMC_UART_CH_INPUT_RXD1 (for DX3), @ref XMC_UART_CH_INPUT_RXD2 (for DX5).
 567:C:/Projekte/Infineon_Dave/eHaJo/FlapFlap/Libraries/XMCLib/inc\xmc_uart.h ****  * @param source Input source select for the input stage. The table provided below maps the decimal
 568:C:/Projekte/Infineon_Dave/eHaJo/FlapFlap/Libraries/XMCLib/inc\xmc_uart.h ****  * <table><tr><td>0</td><td>DXnA</td></tr><tr><td>1</td><td>DXnB</td></tr><tr><td>2</td><td>DXnC</t
 569:C:/Projekte/Infineon_Dave/eHaJo/FlapFlap/Libraries/XMCLib/inc\xmc_uart.h ****  * <tr><td>4</td><td>DXnE</td></tr><tr><td>5</td><td>DXnF</td></tr><tr><td>6</td><td>DXnG</td></tr>
 570:C:/Projekte/Infineon_Dave/eHaJo/FlapFlap/Libraries/XMCLib/inc\xmc_uart.h ****  * </tr></table>
 571:C:/Projekte/Infineon_Dave/eHaJo/FlapFlap/Libraries/XMCLib/inc\xmc_uart.h ****  * @return None
 572:C:/Projekte/Infineon_Dave/eHaJo/FlapFlap/Libraries/XMCLib/inc\xmc_uart.h ****  *
 573:C:/Projekte/Infineon_Dave/eHaJo/FlapFlap/Libraries/XMCLib/inc\xmc_uart.h ****  * \par<b>Description</b><br>
 574:C:/Projekte/Infineon_Dave/eHaJo/FlapFlap/Libraries/XMCLib/inc\xmc_uart.h ****  * Sets input soource for the UART communication.\n\n
 575:C:/Projekte/Infineon_Dave/eHaJo/FlapFlap/Libraries/XMCLib/inc\xmc_uart.h ****  * It is used for configuring the input stage for data reception.
 576:C:/Projekte/Infineon_Dave/eHaJo/FlapFlap/Libraries/XMCLib/inc\xmc_uart.h ****  * Selects the input data signal source among DXnA, DXnB.. DXnG for the input stage. 
 577:C:/Projekte/Infineon_Dave/eHaJo/FlapFlap/Libraries/XMCLib/inc\xmc_uart.h ****  * The API can be used for the input stages DX0, DX3 and DX5. 
 578:C:/Projekte/Infineon_Dave/eHaJo/FlapFlap/Libraries/XMCLib/inc\xmc_uart.h ****  *
 579:C:/Projekte/Infineon_Dave/eHaJo/FlapFlap/Libraries/XMCLib/inc\xmc_uart.h ****  * \par<b>Related APIs:</b><BR>
 580:C:/Projekte/Infineon_Dave/eHaJo/FlapFlap/Libraries/XMCLib/inc\xmc_uart.h ****  * XMC_UART_CH_EnableInputInversion() \n\n\n
 581:C:/Projekte/Infineon_Dave/eHaJo/FlapFlap/Libraries/XMCLib/inc\xmc_uart.h ****  */
 582:C:/Projekte/Infineon_Dave/eHaJo/FlapFlap/Libraries/XMCLib/inc\xmc_uart.h **** __STATIC_INLINE void XMC_UART_CH_SetInputSource(XMC_USIC_CH_t *const channel, const XMC_UART_CH_INP
 583:C:/Projekte/Infineon_Dave/eHaJo/FlapFlap/Libraries/XMCLib/inc\xmc_uart.h **** {
 584:C:/Projekte/Infineon_Dave/eHaJo/FlapFlap/Libraries/XMCLib/inc\xmc_uart.h ****   channel->DXCR[input] = (uint32_t)(channel->DXCR[input] & (~(USIC_CH_DX0CR_INSW_Msk|USIC_CH_DX0CR_
 278              	 .loc 3 584 0
 279 006a E369     	 ldr r3,[r4,#28]
 280 006c 5022     	 mov r2,#80
 281 006e 9343     	 bic r3,r2
 282 0070 E361     	 str r3,[r4,#28]
 283              	.LVL28:
 284              	.LBB40:
 285              	.LBB41:
 286              	 .file 4 "C:/Projekte/Infineon_Dave/eHaJo/FlapFlap/Libraries/XMCLib/inc/xmc_usic.h"
   1:C:/Projekte/Infineon_Dave/eHaJo/FlapFlap/Libraries/XMCLib/inc\xmc_usic.h **** /**
   2:C:/Projekte/Infineon_Dave/eHaJo/FlapFlap/Libraries/XMCLib/inc\xmc_usic.h ****  * @file xmc_usic.h
   3:C:/Projekte/Infineon_Dave/eHaJo/FlapFlap/Libraries/XMCLib/inc\xmc_usic.h ****  * @date 2017-02-10
   4:C:/Projekte/Infineon_Dave/eHaJo/FlapFlap/Libraries/XMCLib/inc\xmc_usic.h ****  *
   5:C:/Projekte/Infineon_Dave/eHaJo/FlapFlap/Libraries/XMCLib/inc\xmc_usic.h ****  * @cond
   6:C:/Projekte/Infineon_Dave/eHaJo/FlapFlap/Libraries/XMCLib/inc\xmc_usic.h ****  **************************************************************************************************
   7:C:/Projekte/Infineon_Dave/eHaJo/FlapFlap/Libraries/XMCLib/inc\xmc_usic.h ****  * XMClib v2.1.16 - XMC Peripheral Driver Library 
   8:C:/Projekte/Infineon_Dave/eHaJo/FlapFlap/Libraries/XMCLib/inc\xmc_usic.h ****  *
   9:C:/Projekte/Infineon_Dave/eHaJo/FlapFlap/Libraries/XMCLib/inc\xmc_usic.h ****  * Copyright (c) 2015-2017, Infineon Technologies AG
  10:C:/Projekte/Infineon_Dave/eHaJo/FlapFlap/Libraries/XMCLib/inc\xmc_usic.h ****  * All rights reserved.                        
  11:C:/Projekte/Infineon_Dave/eHaJo/FlapFlap/Libraries/XMCLib/inc\xmc_usic.h ****  *                                             
  12:C:/Projekte/Infineon_Dave/eHaJo/FlapFlap/Libraries/XMCLib/inc\xmc_usic.h ****  * Redistribution and use in source and binary forms, with or without modification,are permitted pr
  13:C:/Projekte/Infineon_Dave/eHaJo/FlapFlap/Libraries/XMCLib/inc\xmc_usic.h ****  * following conditions are met:   
  14:C:/Projekte/Infineon_Dave/eHaJo/FlapFlap/Libraries/XMCLib/inc\xmc_usic.h ****  *                                                                              
  15:C:/Projekte/Infineon_Dave/eHaJo/FlapFlap/Libraries/XMCLib/inc\xmc_usic.h ****  * Redistributions of source code must retain the above copyright notice, this list of conditions a
  16:C:/Projekte/Infineon_Dave/eHaJo/FlapFlap/Libraries/XMCLib/inc\xmc_usic.h ****  * disclaimer.                        
  17:C:/Projekte/Infineon_Dave/eHaJo/FlapFlap/Libraries/XMCLib/inc\xmc_usic.h ****  * 
  18:C:/Projekte/Infineon_Dave/eHaJo/FlapFlap/Libraries/XMCLib/inc\xmc_usic.h ****  * Redistributions in binary form must reproduce the above copyright notice, this list of condition
  19:C:/Projekte/Infineon_Dave/eHaJo/FlapFlap/Libraries/XMCLib/inc\xmc_usic.h ****  * disclaimer in the documentation and/or other materials provided with the distribution.          
  20:C:/Projekte/Infineon_Dave/eHaJo/FlapFlap/Libraries/XMCLib/inc\xmc_usic.h ****  * 
  21:C:/Projekte/Infineon_Dave/eHaJo/FlapFlap/Libraries/XMCLib/inc\xmc_usic.h ****  * Neither the name of the copyright holders nor the names of its contributors may be used to endor
  22:C:/Projekte/Infineon_Dave/eHaJo/FlapFlap/Libraries/XMCLib/inc\xmc_usic.h ****  * products derived from this software without specific prior written permission.                  
  23:C:/Projekte/Infineon_Dave/eHaJo/FlapFlap/Libraries/XMCLib/inc\xmc_usic.h ****  *                                                                              
  24:C:/Projekte/Infineon_Dave/eHaJo/FlapFlap/Libraries/XMCLib/inc\xmc_usic.h ****  * THIS SOFTWARE IS PROVIDED BY THE COPYRIGHT HOLDERS AND CONTRIBUTORS "AS IS" AND ANY EXPRESS OR I
  25:C:/Projekte/Infineon_Dave/eHaJo/FlapFlap/Libraries/XMCLib/inc\xmc_usic.h ****  * INCLUDING, BUT NOT LIMITED TO, THE IMPLIED WARRANTIES OF MERCHANTABILITY AND FITNESS FOR A PARTI
  26:C:/Projekte/Infineon_Dave/eHaJo/FlapFlap/Libraries/XMCLib/inc\xmc_usic.h ****  * DISCLAIMED. IN NO EVENT SHALL THE COPYRIGHT HOLDER OR CONTRIBUTORS BE LIABLE  FOR ANY DIRECT, IN
  27:C:/Projekte/Infineon_Dave/eHaJo/FlapFlap/Libraries/XMCLib/inc\xmc_usic.h ****  * SPECIAL, EXEMPLARY, OR CONSEQUENTIAL DAMAGES (INCLUDING, BUT NOT LIMITED TO, PROCUREMENT OF SUBS
  28:C:/Projekte/Infineon_Dave/eHaJo/FlapFlap/Libraries/XMCLib/inc\xmc_usic.h ****  * SERVICES; LOSS OF USE, DATA, OR PROFITS; OR BUSINESS INTERRUPTION) HOWEVER CAUSED AND ON ANY THE
  29:C:/Projekte/Infineon_Dave/eHaJo/FlapFlap/Libraries/XMCLib/inc\xmc_usic.h ****  * WHETHER IN CONTRACT, STRICT LIABILITY,OR TORT (INCLUDING NEGLIGENCE OR OTHERWISE) ARISING IN ANY
  30:C:/Projekte/Infineon_Dave/eHaJo/FlapFlap/Libraries/XMCLib/inc\xmc_usic.h ****  * OF THIS SOFTWARE, EVEN IF ADVISED OF THE POSSIBILITY OF SUCH DAMAGE.                            
  31:C:/Projekte/Infineon_Dave/eHaJo/FlapFlap/Libraries/XMCLib/inc\xmc_usic.h ****  *                                                                              
  32:C:/Projekte/Infineon_Dave/eHaJo/FlapFlap/Libraries/XMCLib/inc\xmc_usic.h ****  * To improve the quality of the software, users are encouraged to share modifications, enhancement
  33:C:/Projekte/Infineon_Dave/eHaJo/FlapFlap/Libraries/XMCLib/inc\xmc_usic.h ****  * Infineon Technologies AG dave@infineon.com).                                                    
  34:C:/Projekte/Infineon_Dave/eHaJo/FlapFlap/Libraries/XMCLib/inc\xmc_usic.h ****  **************************************************************************************************
  35:C:/Projekte/Infineon_Dave/eHaJo/FlapFlap/Libraries/XMCLib/inc\xmc_usic.h ****  *
  36:C:/Projekte/Infineon_Dave/eHaJo/FlapFlap/Libraries/XMCLib/inc\xmc_usic.h ****  * Change History
  37:C:/Projekte/Infineon_Dave/eHaJo/FlapFlap/Libraries/XMCLib/inc\xmc_usic.h ****  * --------------
  38:C:/Projekte/Infineon_Dave/eHaJo/FlapFlap/Libraries/XMCLib/inc\xmc_usic.h ****  *
  39:C:/Projekte/Infineon_Dave/eHaJo/FlapFlap/Libraries/XMCLib/inc\xmc_usic.h ****  * 2015-02-20:
  40:C:/Projekte/Infineon_Dave/eHaJo/FlapFlap/Libraries/XMCLib/inc\xmc_usic.h ****  *     - Initial draft<br>
  41:C:/Projekte/Infineon_Dave/eHaJo/FlapFlap/Libraries/XMCLib/inc\xmc_usic.h ****  *     - Documentation improved <br>
  42:C:/Projekte/Infineon_Dave/eHaJo/FlapFlap/Libraries/XMCLib/inc\xmc_usic.h ****  *
  43:C:/Projekte/Infineon_Dave/eHaJo/FlapFlap/Libraries/XMCLib/inc\xmc_usic.h ****  * 2015-05-08:
  44:C:/Projekte/Infineon_Dave/eHaJo/FlapFlap/Libraries/XMCLib/inc\xmc_usic.h ****  *     - Added XMC_USIC_CH_SetInputTriggerCombinationMode() and XMC_USIC_CH_SetTransmitBufferStatus
  45:C:/Projekte/Infineon_Dave/eHaJo/FlapFlap/Libraries/XMCLib/inc\xmc_usic.h ****  *      
  46:C:/Projekte/Infineon_Dave/eHaJo/FlapFlap/Libraries/XMCLib/inc\xmc_usic.h ****  * 2015-06-20:
  47:C:/Projekte/Infineon_Dave/eHaJo/FlapFlap/Libraries/XMCLib/inc\xmc_usic.h ****  *     - Removed version macros and declaration of GetDriverVersion API
  48:C:/Projekte/Infineon_Dave/eHaJo/FlapFlap/Libraries/XMCLib/inc\xmc_usic.h ****  * 
  49:C:/Projekte/Infineon_Dave/eHaJo/FlapFlap/Libraries/XMCLib/inc\xmc_usic.h ****  * 2015-08-17:
  50:C:/Projekte/Infineon_Dave/eHaJo/FlapFlap/Libraries/XMCLib/inc\xmc_usic.h ****  *     - Bug fixed in XMC_USIC_CH_SetTransmitBufferStatus API. OR operator removed.
  51:C:/Projekte/Infineon_Dave/eHaJo/FlapFlap/Libraries/XMCLib/inc\xmc_usic.h ****  *
  52:C:/Projekte/Infineon_Dave/eHaJo/FlapFlap/Libraries/XMCLib/inc\xmc_usic.h ****  * 2015-08-24:
  53:C:/Projekte/Infineon_Dave/eHaJo/FlapFlap/Libraries/XMCLib/inc\xmc_usic.h ****  *     - Added APIs for enabling/disabling delay compensation XMC_USIC_CH_DisableDelayCompensation(
  54:C:/Projekte/Infineon_Dave/eHaJo/FlapFlap/Libraries/XMCLib/inc\xmc_usic.h ****  *       XMC_USIC_CH_DisableDelayCompensation()
  55:C:/Projekte/Infineon_Dave/eHaJo/FlapFlap/Libraries/XMCLib/inc\xmc_usic.h ****  *
  56:C:/Projekte/Infineon_Dave/eHaJo/FlapFlap/Libraries/XMCLib/inc\xmc_usic.h ****  * 2015-08-25:
  57:C:/Projekte/Infineon_Dave/eHaJo/FlapFlap/Libraries/XMCLib/inc\xmc_usic.h ****  *     - Added APIs for defining if the data shift unit input is derived
  58:C:/Projekte/Infineon_Dave/eHaJo/FlapFlap/Libraries/XMCLib/inc\xmc_usic.h ****  *       from the input data path DXn or from the selected protocol pre-processors: XMC_USIC_CH_Con
  59:C:/Projekte/Infineon_Dave/eHaJo/FlapFlap/Libraries/XMCLib/inc\xmc_usic.h ****  *       and XMC_USIC_CH_ConnectInputDataShiftToDataInput()
  60:C:/Projekte/Infineon_Dave/eHaJo/FlapFlap/Libraries/XMCLib/inc\xmc_usic.h ****  *
  61:C:/Projekte/Infineon_Dave/eHaJo/FlapFlap/Libraries/XMCLib/inc\xmc_usic.h ****  * 2015-08-27:
  62:C:/Projekte/Infineon_Dave/eHaJo/FlapFlap/Libraries/XMCLib/inc\xmc_usic.h ****  *     - Fixed bug in XMC_USIC_CH_BRG_CLOCK_SOURCE_DX1T value.
  63:C:/Projekte/Infineon_Dave/eHaJo/FlapFlap/Libraries/XMCLib/inc\xmc_usic.h ****  *     - Added APIs for direct TBUF access: XMC_USIC_CH_WriteToTBUF() and XMC_USIC_CH_WriteToTBUFTC
  64:C:/Projekte/Infineon_Dave/eHaJo/FlapFlap/Libraries/XMCLib/inc\xmc_usic.h ****  *     - Added APIs for external input for BRG configuration:XMC_USIC_CH_ConfigExternalInputSignalT
  65:C:/Projekte/Infineon_Dave/eHaJo/FlapFlap/Libraries/XMCLib/inc\xmc_usic.h ****  *
  66:C:/Projekte/Infineon_Dave/eHaJo/FlapFlap/Libraries/XMCLib/inc\xmc_usic.h ****  * 2015-08-28:
  67:C:/Projekte/Infineon_Dave/eHaJo/FlapFlap/Libraries/XMCLib/inc\xmc_usic.h ****  *     - Added API for enabling the transfer trigger unit to set bit TCSR.TE if the trigger signal 
  68:C:/Projekte/Infineon_Dave/eHaJo/FlapFlap/Libraries/XMCLib/inc\xmc_usic.h ****  *       Clear to Send (CTS) signal: XMC_USIC_CH_EnableTBUFDataValidTrigger() and XMC_USIC_CH_Disab
  69:C:/Projekte/Infineon_Dave/eHaJo/FlapFlap/Libraries/XMCLib/inc\xmc_usic.h ****  *
  70:C:/Projekte/Infineon_Dave/eHaJo/FlapFlap/Libraries/XMCLib/inc\xmc_usic.h ****  * 2016-03-09:
  71:C:/Projekte/Infineon_Dave/eHaJo/FlapFlap/Libraries/XMCLib/inc\xmc_usic.h ****  *     - Optimization of write only registers
  72:C:/Projekte/Infineon_Dave/eHaJo/FlapFlap/Libraries/XMCLib/inc\xmc_usic.h ****  *
  73:C:/Projekte/Infineon_Dave/eHaJo/FlapFlap/Libraries/XMCLib/inc\xmc_usic.h ****  * 2016-04-10:
  74:C:/Projekte/Infineon_Dave/eHaJo/FlapFlap/Libraries/XMCLib/inc\xmc_usic.h ****  *     - Added an API to put the data into FIFO when hardware port control is enabled: XMC_USIC_CH_
  75:C:/Projekte/Infineon_Dave/eHaJo/FlapFlap/Libraries/XMCLib/inc\xmc_usic.h ****  *
  76:C:/Projekte/Infineon_Dave/eHaJo/FlapFlap/Libraries/XMCLib/inc\xmc_usic.h ****  * 2017-02-10:
  77:C:/Projekte/Infineon_Dave/eHaJo/FlapFlap/Libraries/XMCLib/inc\xmc_usic.h ****  *     - Added XMC_USIC_CH_SetShiftDirection() to allow selection of shift direction of the data wo
  78:C:/Projekte/Infineon_Dave/eHaJo/FlapFlap/Libraries/XMCLib/inc\xmc_usic.h ****  *     - Added XMC_USIC_CH_GetCaptureTimerValue() and XMC_USIC_CH_SetFractionalDivider()
  79:C:/Projekte/Infineon_Dave/eHaJo/FlapFlap/Libraries/XMCLib/inc\xmc_usic.h ****  *
  80:C:/Projekte/Infineon_Dave/eHaJo/FlapFlap/Libraries/XMCLib/inc\xmc_usic.h ****  * @endcond
  81:C:/Projekte/Infineon_Dave/eHaJo/FlapFlap/Libraries/XMCLib/inc\xmc_usic.h ****  *
  82:C:/Projekte/Infineon_Dave/eHaJo/FlapFlap/Libraries/XMCLib/inc\xmc_usic.h ****  */
  83:C:/Projekte/Infineon_Dave/eHaJo/FlapFlap/Libraries/XMCLib/inc\xmc_usic.h **** 
  84:C:/Projekte/Infineon_Dave/eHaJo/FlapFlap/Libraries/XMCLib/inc\xmc_usic.h **** #ifndef XMC_USIC_H
  85:C:/Projekte/Infineon_Dave/eHaJo/FlapFlap/Libraries/XMCLib/inc\xmc_usic.h **** #define XMC_USIC_H
  86:C:/Projekte/Infineon_Dave/eHaJo/FlapFlap/Libraries/XMCLib/inc\xmc_usic.h **** /*******************************************************************************
  87:C:/Projekte/Infineon_Dave/eHaJo/FlapFlap/Libraries/XMCLib/inc\xmc_usic.h ****  * HEADER FILES
  88:C:/Projekte/Infineon_Dave/eHaJo/FlapFlap/Libraries/XMCLib/inc\xmc_usic.h ****  *******************************************************************************/
  89:C:/Projekte/Infineon_Dave/eHaJo/FlapFlap/Libraries/XMCLib/inc\xmc_usic.h **** 
  90:C:/Projekte/Infineon_Dave/eHaJo/FlapFlap/Libraries/XMCLib/inc\xmc_usic.h **** #include "xmc_common.h"
  91:C:/Projekte/Infineon_Dave/eHaJo/FlapFlap/Libraries/XMCLib/inc\xmc_usic.h **** 
  92:C:/Projekte/Infineon_Dave/eHaJo/FlapFlap/Libraries/XMCLib/inc\xmc_usic.h **** /**
  93:C:/Projekte/Infineon_Dave/eHaJo/FlapFlap/Libraries/XMCLib/inc\xmc_usic.h ****  * @addtogroup XMClib XMC Peripheral Library
  94:C:/Projekte/Infineon_Dave/eHaJo/FlapFlap/Libraries/XMCLib/inc\xmc_usic.h ****  * @{
  95:C:/Projekte/Infineon_Dave/eHaJo/FlapFlap/Libraries/XMCLib/inc\xmc_usic.h ****  */
  96:C:/Projekte/Infineon_Dave/eHaJo/FlapFlap/Libraries/XMCLib/inc\xmc_usic.h **** 
  97:C:/Projekte/Infineon_Dave/eHaJo/FlapFlap/Libraries/XMCLib/inc\xmc_usic.h **** /**
  98:C:/Projekte/Infineon_Dave/eHaJo/FlapFlap/Libraries/XMCLib/inc\xmc_usic.h ****  * @addtogroup USIC
  99:C:/Projekte/Infineon_Dave/eHaJo/FlapFlap/Libraries/XMCLib/inc\xmc_usic.h ****  * @brief Universal Serial Interface Channel(USIC) driver for serial communication.
 100:C:/Projekte/Infineon_Dave/eHaJo/FlapFlap/Libraries/XMCLib/inc\xmc_usic.h ****  *
 101:C:/Projekte/Infineon_Dave/eHaJo/FlapFlap/Libraries/XMCLib/inc\xmc_usic.h ****  * The Universal Serial Interface Channel(USIC) module is a flexible interface module
 102:C:/Projekte/Infineon_Dave/eHaJo/FlapFlap/Libraries/XMCLib/inc\xmc_usic.h ****  * covering several serial communication protocols. A USIC module contains two
 103:C:/Projekte/Infineon_Dave/eHaJo/FlapFlap/Libraries/XMCLib/inc\xmc_usic.h ****  * independent communication channels named USICx_CH0 and USICx_CH1, with x
 104:C:/Projekte/Infineon_Dave/eHaJo/FlapFlap/Libraries/XMCLib/inc\xmc_usic.h ****  * being the number of the USIC module. The user can program, during run-time, which protocol will 
 105:C:/Projekte/Infineon_Dave/eHaJo/FlapFlap/Libraries/XMCLib/inc\xmc_usic.h ****  * by each communication channel and which pins are used.
 106:C:/Projekte/Infineon_Dave/eHaJo/FlapFlap/Libraries/XMCLib/inc\xmc_usic.h ****  * The driver provides APIs, configuration structures and enumerations to configure common features
 107:C:/Projekte/Infineon_Dave/eHaJo/FlapFlap/Libraries/XMCLib/inc\xmc_usic.h ****  * communication protocols.
 108:C:/Projekte/Infineon_Dave/eHaJo/FlapFlap/Libraries/XMCLib/inc\xmc_usic.h ****  * 
 109:C:/Projekte/Infineon_Dave/eHaJo/FlapFlap/Libraries/XMCLib/inc\xmc_usic.h ****  * USIC driver features:
 110:C:/Projekte/Infineon_Dave/eHaJo/FlapFlap/Libraries/XMCLib/inc\xmc_usic.h ****  * -# Allows configuration of FIFO for transmit and receive functions.
 111:C:/Projekte/Infineon_Dave/eHaJo/FlapFlap/Libraries/XMCLib/inc\xmc_usic.h ****  * -# Provides a structure type XMC_USIC_CH_t to represent the USIC channel registers in a programm
 112:C:/Projekte/Infineon_Dave/eHaJo/FlapFlap/Libraries/XMCLib/inc\xmc_usic.h ****  friendly format.
 113:C:/Projekte/Infineon_Dave/eHaJo/FlapFlap/Libraries/XMCLib/inc\xmc_usic.h ****  * -# Allows configuration of automatic update for frame length, word length, slave select or slave
 114:C:/Projekte/Infineon_Dave/eHaJo/FlapFlap/Libraries/XMCLib/inc\xmc_usic.h ****  * -# Allows transmission of data to FIFO using XMC_USIC_CH_TXFIFO_PutData() and XMC_USIC_CH_TXFIFO
 115:C:/Projekte/Infineon_Dave/eHaJo/FlapFlap/Libraries/XMCLib/inc\xmc_usic.h ****  * -# Allows reading of received data in FIFO using XMC_USIC_CH_RXFIFO_GetData()
 116:C:/Projekte/Infineon_Dave/eHaJo/FlapFlap/Libraries/XMCLib/inc\xmc_usic.h ****  * -# Allows configuration of baudrate using XMC_USIC_CH_SetBaudrate()
 117:C:/Projekte/Infineon_Dave/eHaJo/FlapFlap/Libraries/XMCLib/inc\xmc_usic.h ****  * -# Provides API to trigger interrupts using XMC_USIC_CH_TriggerServiceRequest()
 118:C:/Projekte/Infineon_Dave/eHaJo/FlapFlap/Libraries/XMCLib/inc\xmc_usic.h ****  * @{
 119:C:/Projekte/Infineon_Dave/eHaJo/FlapFlap/Libraries/XMCLib/inc\xmc_usic.h ****  */
 120:C:/Projekte/Infineon_Dave/eHaJo/FlapFlap/Libraries/XMCLib/inc\xmc_usic.h **** 
 121:C:/Projekte/Infineon_Dave/eHaJo/FlapFlap/Libraries/XMCLib/inc\xmc_usic.h **** /*******************************************************************************
 122:C:/Projekte/Infineon_Dave/eHaJo/FlapFlap/Libraries/XMCLib/inc\xmc_usic.h ****  * MACROS
 123:C:/Projekte/Infineon_Dave/eHaJo/FlapFlap/Libraries/XMCLib/inc\xmc_usic.h ****  *******************************************************************************/
 124:C:/Projekte/Infineon_Dave/eHaJo/FlapFlap/Libraries/XMCLib/inc\xmc_usic.h **** 
 125:C:/Projekte/Infineon_Dave/eHaJo/FlapFlap/Libraries/XMCLib/inc\xmc_usic.h **** #define XMC_USIC0 ((XMC_USIC_t *)USIC0_BASE)			/**< USIC0 module base address */
 126:C:/Projekte/Infineon_Dave/eHaJo/FlapFlap/Libraries/XMCLib/inc\xmc_usic.h **** #define XMC_USIC0_CH0 ((XMC_USIC_CH_t *)USIC0_CH0_BASE)	/**< USIC0 channel 0 base address */
 127:C:/Projekte/Infineon_Dave/eHaJo/FlapFlap/Libraries/XMCLib/inc\xmc_usic.h **** #define XMC_USIC0_CH1 ((XMC_USIC_CH_t *)USIC0_CH1_BASE)	/**< USIC0 channel 1 base address */
 128:C:/Projekte/Infineon_Dave/eHaJo/FlapFlap/Libraries/XMCLib/inc\xmc_usic.h **** 
 129:C:/Projekte/Infineon_Dave/eHaJo/FlapFlap/Libraries/XMCLib/inc\xmc_usic.h **** #if defined(USIC1)
 130:C:/Projekte/Infineon_Dave/eHaJo/FlapFlap/Libraries/XMCLib/inc\xmc_usic.h **** #define XMC_USIC1 ((XMC_USIC_t *)USIC1_BASE)			/**< USIC1 module base address */
 131:C:/Projekte/Infineon_Dave/eHaJo/FlapFlap/Libraries/XMCLib/inc\xmc_usic.h **** #define XMC_USIC1_CH0 ((XMC_USIC_CH_t *)USIC1_CH0_BASE)	/**< USIC1 channel 0 base address */
 132:C:/Projekte/Infineon_Dave/eHaJo/FlapFlap/Libraries/XMCLib/inc\xmc_usic.h **** #define XMC_USIC1_CH1 ((XMC_USIC_CH_t *)USIC1_CH1_BASE)	/**< USIC1 channel 1 base address */
 133:C:/Projekte/Infineon_Dave/eHaJo/FlapFlap/Libraries/XMCLib/inc\xmc_usic.h **** #endif
 134:C:/Projekte/Infineon_Dave/eHaJo/FlapFlap/Libraries/XMCLib/inc\xmc_usic.h **** 
 135:C:/Projekte/Infineon_Dave/eHaJo/FlapFlap/Libraries/XMCLib/inc\xmc_usic.h **** #if defined(USIC2)
 136:C:/Projekte/Infineon_Dave/eHaJo/FlapFlap/Libraries/XMCLib/inc\xmc_usic.h **** #define XMC_USIC2 ((XMC_USIC_t *)USIC2_BASE)			/**< USIC2 module base address */
 137:C:/Projekte/Infineon_Dave/eHaJo/FlapFlap/Libraries/XMCLib/inc\xmc_usic.h **** #define XMC_USIC2_CH0 ((XMC_USIC_CH_t *)USIC2_CH0_BASE)	/**< USIC2 channel 0 base address */
 138:C:/Projekte/Infineon_Dave/eHaJo/FlapFlap/Libraries/XMCLib/inc\xmc_usic.h **** #define XMC_USIC2_CH1 ((XMC_USIC_CH_t *)USIC2_CH1_BASE)	/**< USIC2 channel 1 base address */
 139:C:/Projekte/Infineon_Dave/eHaJo/FlapFlap/Libraries/XMCLib/inc\xmc_usic.h **** #endif
 140:C:/Projekte/Infineon_Dave/eHaJo/FlapFlap/Libraries/XMCLib/inc\xmc_usic.h **** 
 141:C:/Projekte/Infineon_Dave/eHaJo/FlapFlap/Libraries/XMCLib/inc\xmc_usic.h **** #define USIC_CH_DXCR_DSEL_Msk  USIC_CH_DX0CR_DSEL_Msk   /**< Common mask for DSEL bitfield mask in 
 142:C:/Projekte/Infineon_Dave/eHaJo/FlapFlap/Libraries/XMCLib/inc\xmc_usic.h **** #define USIC_CH_DXCR_DSEL_Pos  USIC_CH_DX0CR_DSEL_Pos   /**< Common mask for DSEL bitfield position
 143:C:/Projekte/Infineon_Dave/eHaJo/FlapFlap/Libraries/XMCLib/inc\xmc_usic.h **** #define USIC_CH_DXCR_SFSEL_Pos USIC_CH_DX0CR_SFSEL_Pos  /**< Common mask for SFSEL bitfield positio
 144:C:/Projekte/Infineon_Dave/eHaJo/FlapFlap/Libraries/XMCLib/inc\xmc_usic.h **** #define USIC_CH_DXCR_SFSEL_Msk USIC_CH_DX0CR_SFSEL_Msk  /**< Common mask for SFSEL bitfield mask in
 145:C:/Projekte/Infineon_Dave/eHaJo/FlapFlap/Libraries/XMCLib/inc\xmc_usic.h **** #define USIC_CH_DXCR_DPOL_Msk  USIC_CH_DX0CR_DPOL_Msk   /**< Common mask for DPOL bitfield mask in 
 146:C:/Projekte/Infineon_Dave/eHaJo/FlapFlap/Libraries/XMCLib/inc\xmc_usic.h **** #define USIC_CH_DXCR_DFEN_Msk  USIC_CH_DX0CR_DFEN_Msk   /**< Common mask for DFEN bitfield mask in 
 147:C:/Projekte/Infineon_Dave/eHaJo/FlapFlap/Libraries/XMCLib/inc\xmc_usic.h **** #define USIC_CH_DXCR_DSEN_Msk  USIC_CH_DX0CR_DSEN_Msk   /**< Common mask for DSEN bitfield mask in 
 148:C:/Projekte/Infineon_Dave/eHaJo/FlapFlap/Libraries/XMCLib/inc\xmc_usic.h **** #define USIC_CH_DXCR_CM_Pos    USIC_CH_DX0CR_CM_Pos     /**< Common mask for CM bitfield position i
 149:C:/Projekte/Infineon_Dave/eHaJo/FlapFlap/Libraries/XMCLib/inc\xmc_usic.h **** #define USIC_CH_DXCR_CM_Msk    USIC_CH_DX0CR_CM_Msk     /**< Common mask for CM bitfield mask in DX
 150:C:/Projekte/Infineon_Dave/eHaJo/FlapFlap/Libraries/XMCLib/inc\xmc_usic.h **** #define USIC_CH_DXCR_INSW_Msk  USIC_CH_DX0CR_INSW_Msk   /**< Common mask for INSW bitfield mask in 
 151:C:/Projekte/Infineon_Dave/eHaJo/FlapFlap/Libraries/XMCLib/inc\xmc_usic.h **** #define USIC_CH_DXCR_INSW_pos  USIC_CH_DX0CR_INSW_Pos   /**< Common mask for INSW bitfield position
 152:C:/Projekte/Infineon_Dave/eHaJo/FlapFlap/Libraries/XMCLib/inc\xmc_usic.h **** 
 153:C:/Projekte/Infineon_Dave/eHaJo/FlapFlap/Libraries/XMCLib/inc\xmc_usic.h **** #if UC_FAMILY == XMC1
 154:C:/Projekte/Infineon_Dave/eHaJo/FlapFlap/Libraries/XMCLib/inc\xmc_usic.h ****  #include "xmc1_usic_map.h"
 155:C:/Projekte/Infineon_Dave/eHaJo/FlapFlap/Libraries/XMCLib/inc\xmc_usic.h **** #endif
 156:C:/Projekte/Infineon_Dave/eHaJo/FlapFlap/Libraries/XMCLib/inc\xmc_usic.h **** 
 157:C:/Projekte/Infineon_Dave/eHaJo/FlapFlap/Libraries/XMCLib/inc\xmc_usic.h **** #if UC_FAMILY == XMC4
 158:C:/Projekte/Infineon_Dave/eHaJo/FlapFlap/Libraries/XMCLib/inc\xmc_usic.h ****  #include "xmc4_usic_map.h"
 159:C:/Projekte/Infineon_Dave/eHaJo/FlapFlap/Libraries/XMCLib/inc\xmc_usic.h **** #endif
 160:C:/Projekte/Infineon_Dave/eHaJo/FlapFlap/Libraries/XMCLib/inc\xmc_usic.h **** 
 161:C:/Projekte/Infineon_Dave/eHaJo/FlapFlap/Libraries/XMCLib/inc\xmc_usic.h **** /*******************************************************************************
 162:C:/Projekte/Infineon_Dave/eHaJo/FlapFlap/Libraries/XMCLib/inc\xmc_usic.h ****  * ENUMS
 163:C:/Projekte/Infineon_Dave/eHaJo/FlapFlap/Libraries/XMCLib/inc\xmc_usic.h ****  *******************************************************************************/
 164:C:/Projekte/Infineon_Dave/eHaJo/FlapFlap/Libraries/XMCLib/inc\xmc_usic.h **** 
 165:C:/Projekte/Infineon_Dave/eHaJo/FlapFlap/Libraries/XMCLib/inc\xmc_usic.h **** /**
 166:C:/Projekte/Infineon_Dave/eHaJo/FlapFlap/Libraries/XMCLib/inc\xmc_usic.h ****  * USIC channel driver status
 167:C:/Projekte/Infineon_Dave/eHaJo/FlapFlap/Libraries/XMCLib/inc\xmc_usic.h ****  */
 168:C:/Projekte/Infineon_Dave/eHaJo/FlapFlap/Libraries/XMCLib/inc\xmc_usic.h **** typedef enum XMC_USIC_CH_STATUS
 169:C:/Projekte/Infineon_Dave/eHaJo/FlapFlap/Libraries/XMCLib/inc\xmc_usic.h **** {
 170:C:/Projekte/Infineon_Dave/eHaJo/FlapFlap/Libraries/XMCLib/inc\xmc_usic.h ****   XMC_USIC_CH_STATUS_OK,    /**< USIC driver status : OK */
 171:C:/Projekte/Infineon_Dave/eHaJo/FlapFlap/Libraries/XMCLib/inc\xmc_usic.h ****   XMC_USIC_CH_STATUS_ERROR, /**< USIC driver status : ERROR */
 172:C:/Projekte/Infineon_Dave/eHaJo/FlapFlap/Libraries/XMCLib/inc\xmc_usic.h ****   XMC_USIC_CH_STATUS_BUSY   /**< USIC driver status : BUSY */
 173:C:/Projekte/Infineon_Dave/eHaJo/FlapFlap/Libraries/XMCLib/inc\xmc_usic.h **** } XMC_USIC_CH_STATUS_t;
 174:C:/Projekte/Infineon_Dave/eHaJo/FlapFlap/Libraries/XMCLib/inc\xmc_usic.h **** 
 175:C:/Projekte/Infineon_Dave/eHaJo/FlapFlap/Libraries/XMCLib/inc\xmc_usic.h **** /**
 176:C:/Projekte/Infineon_Dave/eHaJo/FlapFlap/Libraries/XMCLib/inc\xmc_usic.h **** * USIC channel kernel mode
 177:C:/Projekte/Infineon_Dave/eHaJo/FlapFlap/Libraries/XMCLib/inc\xmc_usic.h **** */
 178:C:/Projekte/Infineon_Dave/eHaJo/FlapFlap/Libraries/XMCLib/inc\xmc_usic.h **** typedef enum XMC_USIC_CH_KERNEL_MODE
 179:C:/Projekte/Infineon_Dave/eHaJo/FlapFlap/Libraries/XMCLib/inc\xmc_usic.h **** {
 180:C:/Projekte/Infineon_Dave/eHaJo/FlapFlap/Libraries/XMCLib/inc\xmc_usic.h ****   XMC_USIC_CH_KERNEL_MODE_RUN_0  = 0x0UL,  /**< Run mode 0 (transmission and reception possible)*/
 181:C:/Projekte/Infineon_Dave/eHaJo/FlapFlap/Libraries/XMCLib/inc\xmc_usic.h ****   XMC_USIC_CH_KERNEL_MODE_RUN_1  = 0x1UL << USIC_CH_KSCFG_NOMCFG_Pos,  /**< Run mode 1 (transmissio
 182:C:/Projekte/Infineon_Dave/eHaJo/FlapFlap/Libraries/XMCLib/inc\xmc_usic.h ****   XMC_USIC_CH_KERNEL_MODE_STOP_0 = 0x2UL << USIC_CH_KSCFG_NOMCFG_Pos,  /**< Stop mode 0 (no transmi
 183:C:/Projekte/Infineon_Dave/eHaJo/FlapFlap/Libraries/XMCLib/inc\xmc_usic.h ****   XMC_USIC_CH_KERNEL_MODE_STOP_1 = 0x3UL << USIC_CH_KSCFG_NOMCFG_Pos   /**< Stop mode 1 (both trans
 184:C:/Projekte/Infineon_Dave/eHaJo/FlapFlap/Libraries/XMCLib/inc\xmc_usic.h **** } XMC_USIC_CH_KERNEL_MODE_t;
 185:C:/Projekte/Infineon_Dave/eHaJo/FlapFlap/Libraries/XMCLib/inc\xmc_usic.h **** 
 186:C:/Projekte/Infineon_Dave/eHaJo/FlapFlap/Libraries/XMCLib/inc\xmc_usic.h **** /**
 187:C:/Projekte/Infineon_Dave/eHaJo/FlapFlap/Libraries/XMCLib/inc\xmc_usic.h ****  * USIC channel operating mode
 188:C:/Projekte/Infineon_Dave/eHaJo/FlapFlap/Libraries/XMCLib/inc\xmc_usic.h ****  */
 189:C:/Projekte/Infineon_Dave/eHaJo/FlapFlap/Libraries/XMCLib/inc\xmc_usic.h **** typedef enum XMC_USIC_CH_OPERATING_MODE
 190:C:/Projekte/Infineon_Dave/eHaJo/FlapFlap/Libraries/XMCLib/inc\xmc_usic.h **** {
 191:C:/Projekte/Infineon_Dave/eHaJo/FlapFlap/Libraries/XMCLib/inc\xmc_usic.h ****   XMC_USIC_CH_OPERATING_MODE_IDLE = 0x0UL, /**< USIC channel idle */
 192:C:/Projekte/Infineon_Dave/eHaJo/FlapFlap/Libraries/XMCLib/inc\xmc_usic.h ****   XMC_USIC_CH_OPERATING_MODE_SPI  = 0x1UL << USIC_CH_CCR_MODE_Pos, /**< SPI mode */
 193:C:/Projekte/Infineon_Dave/eHaJo/FlapFlap/Libraries/XMCLib/inc\xmc_usic.h ****   XMC_USIC_CH_OPERATING_MODE_UART = 0x2UL << USIC_CH_CCR_MODE_Pos, /**< UART mode */
 194:C:/Projekte/Infineon_Dave/eHaJo/FlapFlap/Libraries/XMCLib/inc\xmc_usic.h ****   XMC_USIC_CH_OPERATING_MODE_I2S  = 0x3UL << USIC_CH_CCR_MODE_Pos, /**< I2S mode */
 195:C:/Projekte/Infineon_Dave/eHaJo/FlapFlap/Libraries/XMCLib/inc\xmc_usic.h ****   XMC_USIC_CH_OPERATING_MODE_I2C  = 0x4UL << USIC_CH_CCR_MODE_Pos  /**< I2C mode */
 196:C:/Projekte/Infineon_Dave/eHaJo/FlapFlap/Libraries/XMCLib/inc\xmc_usic.h **** } XMC_USIC_CH_OPERATING_MODE_t;
 197:C:/Projekte/Infineon_Dave/eHaJo/FlapFlap/Libraries/XMCLib/inc\xmc_usic.h **** 
 198:C:/Projekte/Infineon_Dave/eHaJo/FlapFlap/Libraries/XMCLib/inc\xmc_usic.h **** /**
 199:C:/Projekte/Infineon_Dave/eHaJo/FlapFlap/Libraries/XMCLib/inc\xmc_usic.h ****  * USIC channel inputs
 200:C:/Projekte/Infineon_Dave/eHaJo/FlapFlap/Libraries/XMCLib/inc\xmc_usic.h ****  */
 201:C:/Projekte/Infineon_Dave/eHaJo/FlapFlap/Libraries/XMCLib/inc\xmc_usic.h **** typedef enum XMC_USIC_CH_INPUT
 202:C:/Projekte/Infineon_Dave/eHaJo/FlapFlap/Libraries/XMCLib/inc\xmc_usic.h **** {
 203:C:/Projekte/Infineon_Dave/eHaJo/FlapFlap/Libraries/XMCLib/inc\xmc_usic.h ****   XMC_USIC_CH_INPUT_DX0, /**< DX0 input */
 204:C:/Projekte/Infineon_Dave/eHaJo/FlapFlap/Libraries/XMCLib/inc\xmc_usic.h ****   XMC_USIC_CH_INPUT_DX1, /**< DX1 input */
 205:C:/Projekte/Infineon_Dave/eHaJo/FlapFlap/Libraries/XMCLib/inc\xmc_usic.h ****   XMC_USIC_CH_INPUT_DX2, /**< DX2 input */
 206:C:/Projekte/Infineon_Dave/eHaJo/FlapFlap/Libraries/XMCLib/inc\xmc_usic.h ****   XMC_USIC_CH_INPUT_DX3, /**< DX3 input */
 207:C:/Projekte/Infineon_Dave/eHaJo/FlapFlap/Libraries/XMCLib/inc\xmc_usic.h ****   XMC_USIC_CH_INPUT_DX4, /**< DX4 input */
 208:C:/Projekte/Infineon_Dave/eHaJo/FlapFlap/Libraries/XMCLib/inc\xmc_usic.h ****   XMC_USIC_CH_INPUT_DX5  /**< DX5 input */
 209:C:/Projekte/Infineon_Dave/eHaJo/FlapFlap/Libraries/XMCLib/inc\xmc_usic.h **** } XMC_USIC_CH_INPUT_t;
 210:C:/Projekte/Infineon_Dave/eHaJo/FlapFlap/Libraries/XMCLib/inc\xmc_usic.h **** 
 211:C:/Projekte/Infineon_Dave/eHaJo/FlapFlap/Libraries/XMCLib/inc\xmc_usic.h **** /**
 212:C:/Projekte/Infineon_Dave/eHaJo/FlapFlap/Libraries/XMCLib/inc\xmc_usic.h ****  * USIC channel input source sampling frequency
 213:C:/Projekte/Infineon_Dave/eHaJo/FlapFlap/Libraries/XMCLib/inc\xmc_usic.h ****  */
 214:C:/Projekte/Infineon_Dave/eHaJo/FlapFlap/Libraries/XMCLib/inc\xmc_usic.h **** typedef enum XMC_USIC_CH_INPUT_SAMPLING_FREQ
 215:C:/Projekte/Infineon_Dave/eHaJo/FlapFlap/Libraries/XMCLib/inc\xmc_usic.h **** {
 216:C:/Projekte/Infineon_Dave/eHaJo/FlapFlap/Libraries/XMCLib/inc\xmc_usic.h ****   XMC_USIC_CH_INPUT_SAMPLING_FREQ_FPERIPH            = 0x0UL, /**< Use fperiph frequency for input 
 217:C:/Projekte/Infineon_Dave/eHaJo/FlapFlap/Libraries/XMCLib/inc\xmc_usic.h ****   XMC_USIC_CH_INPUT_SAMPLING_FREQ_FRACTIONAL_DIVIDER = 0x1UL << USIC_CH_DXCR_SFSEL_Pos  /**< Use fF
 218:C:/Projekte/Infineon_Dave/eHaJo/FlapFlap/Libraries/XMCLib/inc\xmc_usic.h **** } XMC_USIC_CH_INPUT_SAMPLING_FREQ_t;
 219:C:/Projekte/Infineon_Dave/eHaJo/FlapFlap/Libraries/XMCLib/inc\xmc_usic.h **** 
 220:C:/Projekte/Infineon_Dave/eHaJo/FlapFlap/Libraries/XMCLib/inc\xmc_usic.h **** /**
 221:C:/Projekte/Infineon_Dave/eHaJo/FlapFlap/Libraries/XMCLib/inc\xmc_usic.h ****  * USIC channel input combination mode
 222:C:/Projekte/Infineon_Dave/eHaJo/FlapFlap/Libraries/XMCLib/inc\xmc_usic.h ****  */
 223:C:/Projekte/Infineon_Dave/eHaJo/FlapFlap/Libraries/XMCLib/inc\xmc_usic.h **** typedef enum XMC_USIC_CH_INPUT_COMBINATION_MODE
 224:C:/Projekte/Infineon_Dave/eHaJo/FlapFlap/Libraries/XMCLib/inc\xmc_usic.h **** {
 225:C:/Projekte/Infineon_Dave/eHaJo/FlapFlap/Libraries/XMCLib/inc\xmc_usic.h ****   XMC_USIC_CH_INPUT_COMBINATION_MODE_TRIGGER_DISABLED = 0x0UL, /**< The trigger activation is disab
 226:C:/Projekte/Infineon_Dave/eHaJo/FlapFlap/Libraries/XMCLib/inc\xmc_usic.h ****   XMC_USIC_CH_INPUT_COMBINATION_MODE_RISING_EDGE      = 0x1UL, /**< A rising edge activates DXnT*/
 227:C:/Projekte/Infineon_Dave/eHaJo/FlapFlap/Libraries/XMCLib/inc\xmc_usic.h ****   XMC_USIC_CH_INPUT_COMBINATION_MODE_FALLING_EDGE     = 0x2UL, /**< A falling edge activates DXnT*/
 228:C:/Projekte/Infineon_Dave/eHaJo/FlapFlap/Libraries/XMCLib/inc\xmc_usic.h ****   XMC_USIC_CH_INPUT_COMBINATION_MODE_BOTH_EDGES       = 0x3UL, /**< Both edges activate DXnT*/
 229:C:/Projekte/Infineon_Dave/eHaJo/FlapFlap/Libraries/XMCLib/inc\xmc_usic.h **** } XMC_USIC_CH_INPUT_COMBINATION_MODE_t;
 230:C:/Projekte/Infineon_Dave/eHaJo/FlapFlap/Libraries/XMCLib/inc\xmc_usic.h **** 
 231:C:/Projekte/Infineon_Dave/eHaJo/FlapFlap/Libraries/XMCLib/inc\xmc_usic.h **** /**
 232:C:/Projekte/Infineon_Dave/eHaJo/FlapFlap/Libraries/XMCLib/inc\xmc_usic.h ****  * USIC channel data transmission start modes.
 233:C:/Projekte/Infineon_Dave/eHaJo/FlapFlap/Libraries/XMCLib/inc\xmc_usic.h ****  * Data shifted out of the transmit pin depends on the value configured for the
 234:C:/Projekte/Infineon_Dave/eHaJo/FlapFlap/Libraries/XMCLib/inc\xmc_usic.h ****  * TDEN bitfield of the TCSR register. Following enum values are used for configuring
 235:C:/Projekte/Infineon_Dave/eHaJo/FlapFlap/Libraries/XMCLib/inc\xmc_usic.h ****  * the TCSR->TDEN bitfield.
 236:C:/Projekte/Infineon_Dave/eHaJo/FlapFlap/Libraries/XMCLib/inc\xmc_usic.h ****  */
 237:C:/Projekte/Infineon_Dave/eHaJo/FlapFlap/Libraries/XMCLib/inc\xmc_usic.h **** typedef enum XMC_USIC_CH_START_TRANSMISION_MODE
 238:C:/Projekte/Infineon_Dave/eHaJo/FlapFlap/Libraries/XMCLib/inc\xmc_usic.h **** {
 239:C:/Projekte/Infineon_Dave/eHaJo/FlapFlap/Libraries/XMCLib/inc\xmc_usic.h ****   XMC_USIC_CH_START_TRANSMISION_DISABLED      = 0x0U, /**< Passive data level is sent out on transm
 240:C:/Projekte/Infineon_Dave/eHaJo/FlapFlap/Libraries/XMCLib/inc\xmc_usic.h ****   XMC_USIC_CH_START_TRANSMISION_ON_TDV        = 0x1UL << USIC_CH_TCSR_TDEN_Pos, /**< Transmission o
 241:C:/Projekte/Infineon_Dave/eHaJo/FlapFlap/Libraries/XMCLib/inc\xmc_usic.h ****   XMC_USIC_CH_START_TRANSMISION_ON_TDV_DX2S_0 = 0x2UL << USIC_CH_TCSR_TDEN_Pos, /**< Transmission o
 242:C:/Projekte/Infineon_Dave/eHaJo/FlapFlap/Libraries/XMCLib/inc\xmc_usic.h ****   XMC_USIC_CH_START_TRANSMISION_ON_TDV_DX2S_1 = 0x3UL << USIC_CH_TCSR_TDEN_Pos  /**< Transmission o
 243:C:/Projekte/Infineon_Dave/eHaJo/FlapFlap/Libraries/XMCLib/inc\xmc_usic.h **** } XMC_USIC_CH_START_TRANSMISION_MODE_t;
 244:C:/Projekte/Infineon_Dave/eHaJo/FlapFlap/Libraries/XMCLib/inc\xmc_usic.h **** 
 245:C:/Projekte/Infineon_Dave/eHaJo/FlapFlap/Libraries/XMCLib/inc\xmc_usic.h **** /**
 246:C:/Projekte/Infineon_Dave/eHaJo/FlapFlap/Libraries/XMCLib/inc\xmc_usic.h ****  * USIC channel interrupt node pointers
 247:C:/Projekte/Infineon_Dave/eHaJo/FlapFlap/Libraries/XMCLib/inc\xmc_usic.h ****  */
 248:C:/Projekte/Infineon_Dave/eHaJo/FlapFlap/Libraries/XMCLib/inc\xmc_usic.h **** typedef enum XMC_USIC_CH_INTERRUPT_NODE_POINTER
 249:C:/Projekte/Infineon_Dave/eHaJo/FlapFlap/Libraries/XMCLib/inc\xmc_usic.h **** {
 250:C:/Projekte/Infineon_Dave/eHaJo/FlapFlap/Libraries/XMCLib/inc\xmc_usic.h ****   XMC_USIC_CH_INTERRUPT_NODE_POINTER_TRANSMIT_SHIFT      = USIC_CH_INPR_TSINP_Pos, /**< Node pointe
 251:C:/Projekte/Infineon_Dave/eHaJo/FlapFlap/Libraries/XMCLib/inc\xmc_usic.h ****   XMC_USIC_CH_INTERRUPT_NODE_POINTER_TRANSMIT_BUFFER     = USIC_CH_INPR_TBINP_Pos, /**< Node pointe
 252:C:/Projekte/Infineon_Dave/eHaJo/FlapFlap/Libraries/XMCLib/inc\xmc_usic.h ****   XMC_USIC_CH_INTERRUPT_NODE_POINTER_RECEIVE             = USIC_CH_INPR_RINP_Pos,  /**< Node pointe
 253:C:/Projekte/Infineon_Dave/eHaJo/FlapFlap/Libraries/XMCLib/inc\xmc_usic.h ****   XMC_USIC_CH_INTERRUPT_NODE_POINTER_ALTERNATE_RECEIVE   = USIC_CH_INPR_AINP_Pos,  /**< Node pointe
 254:C:/Projekte/Infineon_Dave/eHaJo/FlapFlap/Libraries/XMCLib/inc\xmc_usic.h ****   XMC_USIC_CH_INTERRUPT_NODE_POINTER_PROTOCOL            = USIC_CH_INPR_PINP_Pos   /**< Node pointe
 255:C:/Projekte/Infineon_Dave/eHaJo/FlapFlap/Libraries/XMCLib/inc\xmc_usic.h **** } XMC_USIC_CH_INTERRUPT_NODE_POINTER_t;
 256:C:/Projekte/Infineon_Dave/eHaJo/FlapFlap/Libraries/XMCLib/inc\xmc_usic.h **** 
 257:C:/Projekte/Infineon_Dave/eHaJo/FlapFlap/Libraries/XMCLib/inc\xmc_usic.h **** /**
 258:C:/Projekte/Infineon_Dave/eHaJo/FlapFlap/Libraries/XMCLib/inc\xmc_usic.h ****  * USIC channel events
 259:C:/Projekte/Infineon_Dave/eHaJo/FlapFlap/Libraries/XMCLib/inc\xmc_usic.h ****  */
 260:C:/Projekte/Infineon_Dave/eHaJo/FlapFlap/Libraries/XMCLib/inc\xmc_usic.h **** typedef enum XMC_USIC_CH_EVENT
 261:C:/Projekte/Infineon_Dave/eHaJo/FlapFlap/Libraries/XMCLib/inc\xmc_usic.h **** {
 262:C:/Projekte/Infineon_Dave/eHaJo/FlapFlap/Libraries/XMCLib/inc\xmc_usic.h ****   XMC_USIC_CH_EVENT_RECEIVE_START       = USIC_CH_CCR_RSIEN_Msk, /**< Receive start event */
 263:C:/Projekte/Infineon_Dave/eHaJo/FlapFlap/Libraries/XMCLib/inc\xmc_usic.h ****   XMC_USIC_CH_EVENT_DATA_LOST           = USIC_CH_CCR_DLIEN_Msk, /**< Data lost event */
 264:C:/Projekte/Infineon_Dave/eHaJo/FlapFlap/Libraries/XMCLib/inc\xmc_usic.h ****   XMC_USIC_CH_EVENT_TRANSMIT_SHIFT      = USIC_CH_CCR_TSIEN_Msk, /**< Transmit shift event */
 265:C:/Projekte/Infineon_Dave/eHaJo/FlapFlap/Libraries/XMCLib/inc\xmc_usic.h ****   XMC_USIC_CH_EVENT_TRANSMIT_BUFFER     = USIC_CH_CCR_TBIEN_Msk, /**< Transmit buffer event */
 266:C:/Projekte/Infineon_Dave/eHaJo/FlapFlap/Libraries/XMCLib/inc\xmc_usic.h ****   XMC_USIC_CH_EVENT_STANDARD_RECEIVE    = USIC_CH_CCR_RIEN_Msk,  /**< Receive event */
 267:C:/Projekte/Infineon_Dave/eHaJo/FlapFlap/Libraries/XMCLib/inc\xmc_usic.h ****   XMC_USIC_CH_EVENT_ALTERNATIVE_RECEIVE = USIC_CH_CCR_AIEN_Msk,  /**< Alternate receive event */
 268:C:/Projekte/Infineon_Dave/eHaJo/FlapFlap/Libraries/XMCLib/inc\xmc_usic.h ****   XMC_USIC_CH_EVENT_BAUD_RATE_GENERATOR = USIC_CH_CCR_BRGIEN_Msk /**< Baudrate generator event */
 269:C:/Projekte/Infineon_Dave/eHaJo/FlapFlap/Libraries/XMCLib/inc\xmc_usic.h **** } XMC_USIC_CH_EVENT_t;
 270:C:/Projekte/Infineon_Dave/eHaJo/FlapFlap/Libraries/XMCLib/inc\xmc_usic.h **** 
 271:C:/Projekte/Infineon_Dave/eHaJo/FlapFlap/Libraries/XMCLib/inc\xmc_usic.h **** /**
 272:C:/Projekte/Infineon_Dave/eHaJo/FlapFlap/Libraries/XMCLib/inc\xmc_usic.h **** * USIC channel parity mode
 273:C:/Projekte/Infineon_Dave/eHaJo/FlapFlap/Libraries/XMCLib/inc\xmc_usic.h **** */
 274:C:/Projekte/Infineon_Dave/eHaJo/FlapFlap/Libraries/XMCLib/inc\xmc_usic.h **** typedef enum XMC_USIC_CH_PARITY_MODE
 275:C:/Projekte/Infineon_Dave/eHaJo/FlapFlap/Libraries/XMCLib/inc\xmc_usic.h **** {
 276:C:/Projekte/Infineon_Dave/eHaJo/FlapFlap/Libraries/XMCLib/inc\xmc_usic.h ****   XMC_USIC_CH_PARITY_MODE_NONE     = 0x0UL,  /**< Disable parity mode */
 277:C:/Projekte/Infineon_Dave/eHaJo/FlapFlap/Libraries/XMCLib/inc\xmc_usic.h ****   XMC_USIC_CH_PARITY_MODE_EVEN     = 0x2UL << USIC_CH_CCR_PM_Pos,  /**< Enable even parity mode */
 278:C:/Projekte/Infineon_Dave/eHaJo/FlapFlap/Libraries/XMCLib/inc\xmc_usic.h ****   XMC_USIC_CH_PARITY_MODE_ODD      = 0x3UL << USIC_CH_CCR_PM_Pos   /**< Enable odd parity mode */
 279:C:/Projekte/Infineon_Dave/eHaJo/FlapFlap/Libraries/XMCLib/inc\xmc_usic.h **** } XMC_USIC_CH_PARITY_MODE_t;
 280:C:/Projekte/Infineon_Dave/eHaJo/FlapFlap/Libraries/XMCLib/inc\xmc_usic.h **** 
 281:C:/Projekte/Infineon_Dave/eHaJo/FlapFlap/Libraries/XMCLib/inc\xmc_usic.h **** /**
 282:C:/Projekte/Infineon_Dave/eHaJo/FlapFlap/Libraries/XMCLib/inc\xmc_usic.h **** * USIC channel data output mode
 283:C:/Projekte/Infineon_Dave/eHaJo/FlapFlap/Libraries/XMCLib/inc\xmc_usic.h **** */
 284:C:/Projekte/Infineon_Dave/eHaJo/FlapFlap/Libraries/XMCLib/inc\xmc_usic.h **** typedef enum XMC_USIC_CH_DATA_OUTPUT_MODE
 285:C:/Projekte/Infineon_Dave/eHaJo/FlapFlap/Libraries/XMCLib/inc\xmc_usic.h **** {
 286:C:/Projekte/Infineon_Dave/eHaJo/FlapFlap/Libraries/XMCLib/inc\xmc_usic.h ****   XMC_USIC_CH_DATA_OUTPUT_MODE_NORMAL   = 0x0UL,  /**< Data output normal mode */
 287:C:/Projekte/Infineon_Dave/eHaJo/FlapFlap/Libraries/XMCLib/inc\xmc_usic.h ****   XMC_USIC_CH_DATA_OUTPUT_MODE_INVERTED = 0x1UL << USIC_CH_SCTR_DOCFG_Pos   /**< Data output invert
 288:C:/Projekte/Infineon_Dave/eHaJo/FlapFlap/Libraries/XMCLib/inc\xmc_usic.h **** } XMC_USIC_CH_DATA_OUTPUT_MODE_t;
 289:C:/Projekte/Infineon_Dave/eHaJo/FlapFlap/Libraries/XMCLib/inc\xmc_usic.h **** 
 290:C:/Projekte/Infineon_Dave/eHaJo/FlapFlap/Libraries/XMCLib/inc\xmc_usic.h **** /**
 291:C:/Projekte/Infineon_Dave/eHaJo/FlapFlap/Libraries/XMCLib/inc\xmc_usic.h **** * USIC channel data transmit buffer status
 292:C:/Projekte/Infineon_Dave/eHaJo/FlapFlap/Libraries/XMCLib/inc\xmc_usic.h **** */
 293:C:/Projekte/Infineon_Dave/eHaJo/FlapFlap/Libraries/XMCLib/inc\xmc_usic.h **** typedef enum XMC_USIC_CH_TBUF_STATUS
 294:C:/Projekte/Infineon_Dave/eHaJo/FlapFlap/Libraries/XMCLib/inc\xmc_usic.h **** {
 295:C:/Projekte/Infineon_Dave/eHaJo/FlapFlap/Libraries/XMCLib/inc\xmc_usic.h ****   XMC_USIC_CH_TBUF_STATUS_IDLE = 0x0UL,                 /**< Transfer buffer is currently idle*/
 296:C:/Projekte/Infineon_Dave/eHaJo/FlapFlap/Libraries/XMCLib/inc\xmc_usic.h ****   XMC_USIC_CH_TBUF_STATUS_BUSY = USIC_CH_TCSR_TDV_Msk   /**< Transfer buffer is currently busy*/
 297:C:/Projekte/Infineon_Dave/eHaJo/FlapFlap/Libraries/XMCLib/inc\xmc_usic.h **** } XMC_USIC_CH_TBUF_STATUS_t;
 298:C:/Projekte/Infineon_Dave/eHaJo/FlapFlap/Libraries/XMCLib/inc\xmc_usic.h **** 
 299:C:/Projekte/Infineon_Dave/eHaJo/FlapFlap/Libraries/XMCLib/inc\xmc_usic.h **** 
 300:C:/Projekte/Infineon_Dave/eHaJo/FlapFlap/Libraries/XMCLib/inc\xmc_usic.h **** 
 301:C:/Projekte/Infineon_Dave/eHaJo/FlapFlap/Libraries/XMCLib/inc\xmc_usic.h **** /**
 302:C:/Projekte/Infineon_Dave/eHaJo/FlapFlap/Libraries/XMCLib/inc\xmc_usic.h **** * USIC channel data transmit buffer status modification
 303:C:/Projekte/Infineon_Dave/eHaJo/FlapFlap/Libraries/XMCLib/inc\xmc_usic.h **** */
 304:C:/Projekte/Infineon_Dave/eHaJo/FlapFlap/Libraries/XMCLib/inc\xmc_usic.h **** typedef enum XMC_USIC_CH_TBUF_STATUS_SET
 305:C:/Projekte/Infineon_Dave/eHaJo/FlapFlap/Libraries/XMCLib/inc\xmc_usic.h **** {
 306:C:/Projekte/Infineon_Dave/eHaJo/FlapFlap/Libraries/XMCLib/inc\xmc_usic.h ****   XMC_USIC_CH_TBUF_STATUS_SET_BUSY   = 0x1UL, /**< Set Transfer buffer status to busy*/
 307:C:/Projekte/Infineon_Dave/eHaJo/FlapFlap/Libraries/XMCLib/inc\xmc_usic.h ****   XMC_USIC_CH_TBUF_STATUS_SET_IDLE   = 0x2UL  /**< Set Transfer buffer status to idle*/
 308:C:/Projekte/Infineon_Dave/eHaJo/FlapFlap/Libraries/XMCLib/inc\xmc_usic.h **** } XMC_USIC_CH_TBUF_STATUS_SET_t;
 309:C:/Projekte/Infineon_Dave/eHaJo/FlapFlap/Libraries/XMCLib/inc\xmc_usic.h **** 
 310:C:/Projekte/Infineon_Dave/eHaJo/FlapFlap/Libraries/XMCLib/inc\xmc_usic.h **** /**
 311:C:/Projekte/Infineon_Dave/eHaJo/FlapFlap/Libraries/XMCLib/inc\xmc_usic.h **** * USIC channel receive buffer status
 312:C:/Projekte/Infineon_Dave/eHaJo/FlapFlap/Libraries/XMCLib/inc\xmc_usic.h **** */
 313:C:/Projekte/Infineon_Dave/eHaJo/FlapFlap/Libraries/XMCLib/inc\xmc_usic.h **** typedef enum XMC_USIC_CH_RBUF_STATUS
 314:C:/Projekte/Infineon_Dave/eHaJo/FlapFlap/Libraries/XMCLib/inc\xmc_usic.h **** {
 315:C:/Projekte/Infineon_Dave/eHaJo/FlapFlap/Libraries/XMCLib/inc\xmc_usic.h ****   XMC_USIC_CH_RBUF_STATUS_DATA_VALID0 = USIC_CH_RBUFSR_RDV0_Msk, /**< RBUF0 data has not yet been r
 316:C:/Projekte/Infineon_Dave/eHaJo/FlapFlap/Libraries/XMCLib/inc\xmc_usic.h ****   XMC_USIC_CH_RBUF_STATUS_DATA_VALID1 = USIC_CH_RBUFSR_RDV1_Msk  /**< RBUF1 data has not yet been r
 317:C:/Projekte/Infineon_Dave/eHaJo/FlapFlap/Libraries/XMCLib/inc\xmc_usic.h **** } XMC_USIC_CH_RBUF_STATUS_t;
 318:C:/Projekte/Infineon_Dave/eHaJo/FlapFlap/Libraries/XMCLib/inc\xmc_usic.h **** 
 319:C:/Projekte/Infineon_Dave/eHaJo/FlapFlap/Libraries/XMCLib/inc\xmc_usic.h **** /**
 320:C:/Projekte/Infineon_Dave/eHaJo/FlapFlap/Libraries/XMCLib/inc\xmc_usic.h ****  * USIC channel output signal passive data level
 321:C:/Projekte/Infineon_Dave/eHaJo/FlapFlap/Libraries/XMCLib/inc\xmc_usic.h **** */
 322:C:/Projekte/Infineon_Dave/eHaJo/FlapFlap/Libraries/XMCLib/inc\xmc_usic.h **** typedef enum XMC_USCI_CH_PASSIVE_DATA_LEVEL
 323:C:/Projekte/Infineon_Dave/eHaJo/FlapFlap/Libraries/XMCLib/inc\xmc_usic.h **** {
 324:C:/Projekte/Infineon_Dave/eHaJo/FlapFlap/Libraries/XMCLib/inc\xmc_usic.h ****   XMC_USIC_CH_PASSIVE_DATA_LEVEL0 = 0x0UL, /**< Passive level(idle mode signal level) 0 */
 325:C:/Projekte/Infineon_Dave/eHaJo/FlapFlap/Libraries/XMCLib/inc\xmc_usic.h ****   XMC_USIC_CH_PASSIVE_DATA_LEVEL1 = 0x1UL << USIC_CH_SCTR_PDL_Pos  /**< Passive level(idle mode sig
 326:C:/Projekte/Infineon_Dave/eHaJo/FlapFlap/Libraries/XMCLib/inc\xmc_usic.h **** } XMC_USIC_CH_PASSIVE_DATA_LEVEL_t;
 327:C:/Projekte/Infineon_Dave/eHaJo/FlapFlap/Libraries/XMCLib/inc\xmc_usic.h **** 
 328:C:/Projekte/Infineon_Dave/eHaJo/FlapFlap/Libraries/XMCLib/inc\xmc_usic.h **** /**
 329:C:/Projekte/Infineon_Dave/eHaJo/FlapFlap/Libraries/XMCLib/inc\xmc_usic.h **** * USIC channel receive FIFO size
 330:C:/Projekte/Infineon_Dave/eHaJo/FlapFlap/Libraries/XMCLib/inc\xmc_usic.h **** */
 331:C:/Projekte/Infineon_Dave/eHaJo/FlapFlap/Libraries/XMCLib/inc\xmc_usic.h **** typedef enum XMC_USIC_CH_FIFO_SIZE
 332:C:/Projekte/Infineon_Dave/eHaJo/FlapFlap/Libraries/XMCLib/inc\xmc_usic.h **** {
 333:C:/Projekte/Infineon_Dave/eHaJo/FlapFlap/Libraries/XMCLib/inc\xmc_usic.h ****   XMC_USIC_CH_FIFO_DISABLED     = 0x0U,  /**< FIFO Disabled */
 334:C:/Projekte/Infineon_Dave/eHaJo/FlapFlap/Libraries/XMCLib/inc\xmc_usic.h ****   XMC_USIC_CH_FIFO_SIZE_2WORDS  = 0x1U,  /**< FIFO size: 2 words */
 335:C:/Projekte/Infineon_Dave/eHaJo/FlapFlap/Libraries/XMCLib/inc\xmc_usic.h ****   XMC_USIC_CH_FIFO_SIZE_4WORDS  = 0x2U,  /**< FIFO size: 4 words */
 336:C:/Projekte/Infineon_Dave/eHaJo/FlapFlap/Libraries/XMCLib/inc\xmc_usic.h ****   XMC_USIC_CH_FIFO_SIZE_8WORDS  = 0x3U,  /**< FIFO size: 8 words */
 337:C:/Projekte/Infineon_Dave/eHaJo/FlapFlap/Libraries/XMCLib/inc\xmc_usic.h ****   XMC_USIC_CH_FIFO_SIZE_16WORDS = 0x4U,  /**< FIFO size: 16 words */
 338:C:/Projekte/Infineon_Dave/eHaJo/FlapFlap/Libraries/XMCLib/inc\xmc_usic.h ****   XMC_USIC_CH_FIFO_SIZE_32WORDS = 0x5U,  /**< FIFO size: 32 words */
 339:C:/Projekte/Infineon_Dave/eHaJo/FlapFlap/Libraries/XMCLib/inc\xmc_usic.h ****   XMC_USIC_CH_FIFO_SIZE_64WORDS = 0x6U   /**< FIFO size: 64 words */
 340:C:/Projekte/Infineon_Dave/eHaJo/FlapFlap/Libraries/XMCLib/inc\xmc_usic.h **** } XMC_USIC_CH_FIFO_SIZE_t;
 341:C:/Projekte/Infineon_Dave/eHaJo/FlapFlap/Libraries/XMCLib/inc\xmc_usic.h **** 
 342:C:/Projekte/Infineon_Dave/eHaJo/FlapFlap/Libraries/XMCLib/inc\xmc_usic.h **** /**
 343:C:/Projekte/Infineon_Dave/eHaJo/FlapFlap/Libraries/XMCLib/inc\xmc_usic.h **** * USIC channel transmit FIFO interrupt node pointers
 344:C:/Projekte/Infineon_Dave/eHaJo/FlapFlap/Libraries/XMCLib/inc\xmc_usic.h **** */
 345:C:/Projekte/Infineon_Dave/eHaJo/FlapFlap/Libraries/XMCLib/inc\xmc_usic.h **** typedef enum XMC_USIC_CH_TXFIFO_INTERRUPT_NODE_POINTER
 346:C:/Projekte/Infineon_Dave/eHaJo/FlapFlap/Libraries/XMCLib/inc\xmc_usic.h **** {
 347:C:/Projekte/Infineon_Dave/eHaJo/FlapFlap/Libraries/XMCLib/inc\xmc_usic.h ****   XMC_USIC_CH_TXFIFO_INTERRUPT_NODE_POINTER_STANDARD  = USIC_CH_TBCTR_STBINP_Pos,  /**< Node pointe
 348:C:/Projekte/Infineon_Dave/eHaJo/FlapFlap/Libraries/XMCLib/inc\xmc_usic.h ****   XMC_USIC_CH_TXFIFO_INTERRUPT_NODE_POINTER_ALTERNATE = USIC_CH_TBCTR_ATBINP_Pos   /**< Node pointe
 349:C:/Projekte/Infineon_Dave/eHaJo/FlapFlap/Libraries/XMCLib/inc\xmc_usic.h **** } XMC_USIC_CH_TXFIFO_INTERRUPT_NODE_POINTER_t;
 350:C:/Projekte/Infineon_Dave/eHaJo/FlapFlap/Libraries/XMCLib/inc\xmc_usic.h **** 
 351:C:/Projekte/Infineon_Dave/eHaJo/FlapFlap/Libraries/XMCLib/inc\xmc_usic.h **** /**
 352:C:/Projekte/Infineon_Dave/eHaJo/FlapFlap/Libraries/XMCLib/inc\xmc_usic.h **** * USIC channel transmit FIFO event configuration
 353:C:/Projekte/Infineon_Dave/eHaJo/FlapFlap/Libraries/XMCLib/inc\xmc_usic.h **** */
 354:C:/Projekte/Infineon_Dave/eHaJo/FlapFlap/Libraries/XMCLib/inc\xmc_usic.h **** typedef enum XMC_USIC_CH_TXFIFO_EVENT_CONF
 355:C:/Projekte/Infineon_Dave/eHaJo/FlapFlap/Libraries/XMCLib/inc\xmc_usic.h **** {
 356:C:/Projekte/Infineon_Dave/eHaJo/FlapFlap/Libraries/XMCLib/inc\xmc_usic.h ****   XMC_USIC_CH_TXFIFO_EVENT_CONF_STANDARD  = USIC_CH_TBCTR_STBIEN_Msk,   /**< Enable FIFO standard t
 357:C:/Projekte/Infineon_Dave/eHaJo/FlapFlap/Libraries/XMCLib/inc\xmc_usic.h ****   XMC_USIC_CH_TXFIFO_EVENT_CONF_ERROR     = (int32_t)USIC_CH_TBCTR_TBERIEN_Msk  /**< Enable transmi
 358:C:/Projekte/Infineon_Dave/eHaJo/FlapFlap/Libraries/XMCLib/inc\xmc_usic.h **** } XMC_USIC_CH_TXFIFO_EVENT_CONF_t;
 359:C:/Projekte/Infineon_Dave/eHaJo/FlapFlap/Libraries/XMCLib/inc\xmc_usic.h **** 
 360:C:/Projekte/Infineon_Dave/eHaJo/FlapFlap/Libraries/XMCLib/inc\xmc_usic.h **** /**
 361:C:/Projekte/Infineon_Dave/eHaJo/FlapFlap/Libraries/XMCLib/inc\xmc_usic.h **** * USIC channel transmit FIFO status
 362:C:/Projekte/Infineon_Dave/eHaJo/FlapFlap/Libraries/XMCLib/inc\xmc_usic.h **** */
 363:C:/Projekte/Infineon_Dave/eHaJo/FlapFlap/Libraries/XMCLib/inc\xmc_usic.h **** typedef enum XMC_USIC_CH_TXFIFO_EVENT
 364:C:/Projekte/Infineon_Dave/eHaJo/FlapFlap/Libraries/XMCLib/inc\xmc_usic.h **** {
 365:C:/Projekte/Infineon_Dave/eHaJo/FlapFlap/Libraries/XMCLib/inc\xmc_usic.h ****   XMC_USIC_CH_TXFIFO_EVENT_STANDARD = USIC_CH_TRBSR_STBI_Msk,    /**< Transmit FIFO status: Standar
 366:C:/Projekte/Infineon_Dave/eHaJo/FlapFlap/Libraries/XMCLib/inc\xmc_usic.h ****   XMC_USIC_CH_TXFIFO_EVENT_ERROR    = USIC_CH_TRBSR_TBERI_Msk    /**< Transmit FIFO status: Error e
 367:C:/Projekte/Infineon_Dave/eHaJo/FlapFlap/Libraries/XMCLib/inc\xmc_usic.h **** } XMC_USIC_CH_TXFIFO_EVENT_t;
 368:C:/Projekte/Infineon_Dave/eHaJo/FlapFlap/Libraries/XMCLib/inc\xmc_usic.h **** 
 369:C:/Projekte/Infineon_Dave/eHaJo/FlapFlap/Libraries/XMCLib/inc\xmc_usic.h **** /**
 370:C:/Projekte/Infineon_Dave/eHaJo/FlapFlap/Libraries/XMCLib/inc\xmc_usic.h **** * USIC channel receive FIFO interrupt node pointers
 371:C:/Projekte/Infineon_Dave/eHaJo/FlapFlap/Libraries/XMCLib/inc\xmc_usic.h **** */
 372:C:/Projekte/Infineon_Dave/eHaJo/FlapFlap/Libraries/XMCLib/inc\xmc_usic.h **** typedef enum XMC_USIC_CH_RXFIFO_INTERRUPT_NODE_POINTER
 373:C:/Projekte/Infineon_Dave/eHaJo/FlapFlap/Libraries/XMCLib/inc\xmc_usic.h **** {
 374:C:/Projekte/Infineon_Dave/eHaJo/FlapFlap/Libraries/XMCLib/inc\xmc_usic.h ****   XMC_USIC_CH_RXFIFO_INTERRUPT_NODE_POINTER_STANDARD  = USIC_CH_RBCTR_SRBINP_Pos, /**< Node pointer
 375:C:/Projekte/Infineon_Dave/eHaJo/FlapFlap/Libraries/XMCLib/inc\xmc_usic.h ****   XMC_USIC_CH_RXFIFO_INTERRUPT_NODE_POINTER_ALTERNATE = USIC_CH_RBCTR_ARBINP_Pos  /**< Node pointer
 376:C:/Projekte/Infineon_Dave/eHaJo/FlapFlap/Libraries/XMCLib/inc\xmc_usic.h **** } XMC_USIC_CH_RXFIFO_INTERRUPT_NODE_POINTER_t;
 377:C:/Projekte/Infineon_Dave/eHaJo/FlapFlap/Libraries/XMCLib/inc\xmc_usic.h **** 
 378:C:/Projekte/Infineon_Dave/eHaJo/FlapFlap/Libraries/XMCLib/inc\xmc_usic.h **** /**
 379:C:/Projekte/Infineon_Dave/eHaJo/FlapFlap/Libraries/XMCLib/inc\xmc_usic.h **** * USIC channel receive FIFO event configuration
 380:C:/Projekte/Infineon_Dave/eHaJo/FlapFlap/Libraries/XMCLib/inc\xmc_usic.h **** */
 381:C:/Projekte/Infineon_Dave/eHaJo/FlapFlap/Libraries/XMCLib/inc\xmc_usic.h **** typedef enum XMC_USIC_CH_RXFIFO_EVENT_CONF
 382:C:/Projekte/Infineon_Dave/eHaJo/FlapFlap/Libraries/XMCLib/inc\xmc_usic.h **** {
 383:C:/Projekte/Infineon_Dave/eHaJo/FlapFlap/Libraries/XMCLib/inc\xmc_usic.h ****   XMC_USIC_CH_RXFIFO_EVENT_CONF_STANDARD  = USIC_CH_RBCTR_SRBIEN_Msk,   /**< Enable FIFO standard r
 384:C:/Projekte/Infineon_Dave/eHaJo/FlapFlap/Libraries/XMCLib/inc\xmc_usic.h ****   XMC_USIC_CH_RXFIFO_EVENT_CONF_ERROR     = (int32_t)USIC_CH_RBCTR_RBERIEN_Msk,  /**< Enable receiv
 385:C:/Projekte/Infineon_Dave/eHaJo/FlapFlap/Libraries/XMCLib/inc\xmc_usic.h ****   XMC_USIC_CH_RXFIFO_EVENT_CONF_ALTERNATE = USIC_CH_RBCTR_ARBIEN_Msk   /**< Enable FIFO alternative
 386:C:/Projekte/Infineon_Dave/eHaJo/FlapFlap/Libraries/XMCLib/inc\xmc_usic.h **** } XMC_USIC_CH_RXFIFO_EVENT_CONF_t;
 387:C:/Projekte/Infineon_Dave/eHaJo/FlapFlap/Libraries/XMCLib/inc\xmc_usic.h **** 
 388:C:/Projekte/Infineon_Dave/eHaJo/FlapFlap/Libraries/XMCLib/inc\xmc_usic.h **** /**
 389:C:/Projekte/Infineon_Dave/eHaJo/FlapFlap/Libraries/XMCLib/inc\xmc_usic.h **** * USIC channel receive FIFO status
 390:C:/Projekte/Infineon_Dave/eHaJo/FlapFlap/Libraries/XMCLib/inc\xmc_usic.h **** */
 391:C:/Projekte/Infineon_Dave/eHaJo/FlapFlap/Libraries/XMCLib/inc\xmc_usic.h **** typedef enum XMC_USIC_CH_RXFIFO_EVENT
 392:C:/Projekte/Infineon_Dave/eHaJo/FlapFlap/Libraries/XMCLib/inc\xmc_usic.h **** {
 393:C:/Projekte/Infineon_Dave/eHaJo/FlapFlap/Libraries/XMCLib/inc\xmc_usic.h ****   XMC_USIC_CH_RXFIFO_EVENT_STANDARD  = USIC_CH_TRBSR_SRBI_Msk,   /**< Receive FIFO status: Standard
 394:C:/Projekte/Infineon_Dave/eHaJo/FlapFlap/Libraries/XMCLib/inc\xmc_usic.h ****   XMC_USIC_CH_RXFIFO_EVENT_ERROR     = USIC_CH_TRBSR_RBERI_Msk,  /**< Receive FIFO status: Error ev
 395:C:/Projekte/Infineon_Dave/eHaJo/FlapFlap/Libraries/XMCLib/inc\xmc_usic.h ****   XMC_USIC_CH_RXFIFO_EVENT_ALTERNATE = USIC_CH_TRBSR_ARBI_Msk    /**< Receive FIFO status: Alternat
 396:C:/Projekte/Infineon_Dave/eHaJo/FlapFlap/Libraries/XMCLib/inc\xmc_usic.h **** } XMC_USIC_CH_RXFIFO_EVENT_t;
 397:C:/Projekte/Infineon_Dave/eHaJo/FlapFlap/Libraries/XMCLib/inc\xmc_usic.h **** 
 398:C:/Projekte/Infineon_Dave/eHaJo/FlapFlap/Libraries/XMCLib/inc\xmc_usic.h **** /**
 399:C:/Projekte/Infineon_Dave/eHaJo/FlapFlap/Libraries/XMCLib/inc\xmc_usic.h **** * USIC channel baudrate generator clock source
 400:C:/Projekte/Infineon_Dave/eHaJo/FlapFlap/Libraries/XMCLib/inc\xmc_usic.h **** */
 401:C:/Projekte/Infineon_Dave/eHaJo/FlapFlap/Libraries/XMCLib/inc\xmc_usic.h **** typedef enum XMC_USIC_CH_BRG_CLOCK_SOURCE
 402:C:/Projekte/Infineon_Dave/eHaJo/FlapFlap/Libraries/XMCLib/inc\xmc_usic.h **** {
 403:C:/Projekte/Infineon_Dave/eHaJo/FlapFlap/Libraries/XMCLib/inc\xmc_usic.h ****   XMC_USIC_CH_BRG_CLOCK_SOURCE_DIVIDER = 0x0UL, /**< Baudrate generator clock source : Source divid
 404:C:/Projekte/Infineon_Dave/eHaJo/FlapFlap/Libraries/XMCLib/inc\xmc_usic.h ****   XMC_USIC_CH_BRG_CLOCK_SOURCE_DX1T    = 0x2UL << USIC_CH_BRG_CLKSEL_Pos  /**< Baudrate generator c
 405:C:/Projekte/Infineon_Dave/eHaJo/FlapFlap/Libraries/XMCLib/inc\xmc_usic.h **** } XMC_USIC_CH_BRG_CLOCK_SOURCE_t;
 406:C:/Projekte/Infineon_Dave/eHaJo/FlapFlap/Libraries/XMCLib/inc\xmc_usic.h **** 
 407:C:/Projekte/Infineon_Dave/eHaJo/FlapFlap/Libraries/XMCLib/inc\xmc_usic.h **** /**
 408:C:/Projekte/Infineon_Dave/eHaJo/FlapFlap/Libraries/XMCLib/inc\xmc_usic.h **** * USIC channel baudrate generator divider mode
 409:C:/Projekte/Infineon_Dave/eHaJo/FlapFlap/Libraries/XMCLib/inc\xmc_usic.h **** */
 410:C:/Projekte/Infineon_Dave/eHaJo/FlapFlap/Libraries/XMCLib/inc\xmc_usic.h **** typedef enum XMC_USIC_CH_BRG_CLOCK_DIVIDER_MODE
 411:C:/Projekte/Infineon_Dave/eHaJo/FlapFlap/Libraries/XMCLib/inc\xmc_usic.h **** {
 412:C:/Projekte/Infineon_Dave/eHaJo/FlapFlap/Libraries/XMCLib/inc\xmc_usic.h ****   XMC_USIC_CH_BRG_CLOCK_DIVIDER_MODE_DISABLED   = 0x0UL, /**< Baudrate generator clock divider: Dis
 413:C:/Projekte/Infineon_Dave/eHaJo/FlapFlap/Libraries/XMCLib/inc\xmc_usic.h ****   XMC_USIC_CH_BRG_CLOCK_DIVIDER_MODE_NORMAL     = 0x1UL << USIC_CH_FDR_DM_Pos, /**< Baudrate genera
 414:C:/Projekte/Infineon_Dave/eHaJo/FlapFlap/Libraries/XMCLib/inc\xmc_usic.h ****   XMC_USIC_CH_BRG_CLOCK_DIVIDER_MODE_FRACTIONAL = 0x2UL << USIC_CH_FDR_DM_Pos  /**< Baudrate genera
 415:C:/Projekte/Infineon_Dave/eHaJo/FlapFlap/Libraries/XMCLib/inc\xmc_usic.h **** } XMC_USIC_CH_BRG_CLOCK_DIVIDER_MODE_t;
 416:C:/Projekte/Infineon_Dave/eHaJo/FlapFlap/Libraries/XMCLib/inc\xmc_usic.h **** 
 417:C:/Projekte/Infineon_Dave/eHaJo/FlapFlap/Libraries/XMCLib/inc\xmc_usic.h **** /**
 418:C:/Projekte/Infineon_Dave/eHaJo/FlapFlap/Libraries/XMCLib/inc\xmc_usic.h **** * USIC channel baudrate generator master clock passive level
 419:C:/Projekte/Infineon_Dave/eHaJo/FlapFlap/Libraries/XMCLib/inc\xmc_usic.h **** */
 420:C:/Projekte/Infineon_Dave/eHaJo/FlapFlap/Libraries/XMCLib/inc\xmc_usic.h **** typedef enum XMC_USIC_CH_BRG_MASTER_CLOCK_PASSIVE_LEVEL
 421:C:/Projekte/Infineon_Dave/eHaJo/FlapFlap/Libraries/XMCLib/inc\xmc_usic.h **** {
 422:C:/Projekte/Infineon_Dave/eHaJo/FlapFlap/Libraries/XMCLib/inc\xmc_usic.h ****   XMC_USIC_CH_BRG_MASTER_CLOCK_PASSIVE_LEVEL_0 = 0x0UL, /**< Baudrate generator master clock passiv
 423:C:/Projekte/Infineon_Dave/eHaJo/FlapFlap/Libraries/XMCLib/inc\xmc_usic.h ****   XMC_USIC_CH_BRG_MASTER_CLOCK_PASSIVE_LEVEL_1 = 0x1UL << USIC_CH_BRG_MCLKCFG_Pos  /**< Baudrate ge
 424:C:/Projekte/Infineon_Dave/eHaJo/FlapFlap/Libraries/XMCLib/inc\xmc_usic.h **** } XMC_USIC_CH_BRG_MASTER_CLOCK_PASSIVE_LEVEL_t;
 425:C:/Projekte/Infineon_Dave/eHaJo/FlapFlap/Libraries/XMCLib/inc\xmc_usic.h **** 
 426:C:/Projekte/Infineon_Dave/eHaJo/FlapFlap/Libraries/XMCLib/inc\xmc_usic.h **** /**
 427:C:/Projekte/Infineon_Dave/eHaJo/FlapFlap/Libraries/XMCLib/inc\xmc_usic.h **** * USIC channel baudrate generator shift clock passive level
 428:C:/Projekte/Infineon_Dave/eHaJo/FlapFlap/Libraries/XMCLib/inc\xmc_usic.h **** */
 429:C:/Projekte/Infineon_Dave/eHaJo/FlapFlap/Libraries/XMCLib/inc\xmc_usic.h **** typedef enum XMC_USIC_CH_BRG_SHIFT_CLOCK_PASSIVE_LEVEL
 430:C:/Projekte/Infineon_Dave/eHaJo/FlapFlap/Libraries/XMCLib/inc\xmc_usic.h **** {
 431:C:/Projekte/Infineon_Dave/eHaJo/FlapFlap/Libraries/XMCLib/inc\xmc_usic.h ****   XMC_USIC_CH_BRG_SHIFT_CLOCK_PASSIVE_LEVEL_0_DELAY_DISABLED = 0x0UL, /**< Shift clock passive leve
 432:C:/Projekte/Infineon_Dave/eHaJo/FlapFlap/Libraries/XMCLib/inc\xmc_usic.h ****   XMC_USIC_CH_BRG_SHIFT_CLOCK_PASSIVE_LEVEL_1_DELAY_DISABLED = 0x1UL << USIC_CH_BRG_SCLKCFG_Pos, /*
 433:C:/Projekte/Infineon_Dave/eHaJo/FlapFlap/Libraries/XMCLib/inc\xmc_usic.h ****   XMC_USIC_CH_BRG_SHIFT_CLOCK_PASSIVE_LEVEL_0_DELAY_ENABLED  = (int32_t)(0x2UL << USIC_CH_BRG_SCLKC
 434:C:/Projekte/Infineon_Dave/eHaJo/FlapFlap/Libraries/XMCLib/inc\xmc_usic.h ****   XMC_USIC_CH_BRG_SHIFT_CLOCK_PASSIVE_LEVEL_1_DELAY_ENABLED  = (int32_t)(0x3UL << USIC_CH_BRG_SCLKC
 435:C:/Projekte/Infineon_Dave/eHaJo/FlapFlap/Libraries/XMCLib/inc\xmc_usic.h **** } XMC_USIC_CH_BRG_SHIFT_CLOCK_PASSIVE_LEVEL_t;
 436:C:/Projekte/Infineon_Dave/eHaJo/FlapFlap/Libraries/XMCLib/inc\xmc_usic.h **** 
 437:C:/Projekte/Infineon_Dave/eHaJo/FlapFlap/Libraries/XMCLib/inc\xmc_usic.h **** /**
 438:C:/Projekte/Infineon_Dave/eHaJo/FlapFlap/Libraries/XMCLib/inc\xmc_usic.h **** * USIC channel baudrate generator shift clock output
 439:C:/Projekte/Infineon_Dave/eHaJo/FlapFlap/Libraries/XMCLib/inc\xmc_usic.h **** */
 440:C:/Projekte/Infineon_Dave/eHaJo/FlapFlap/Libraries/XMCLib/inc\xmc_usic.h **** typedef enum XMC_USIC_CH_BRG_SHIFT_CLOCK_OUTPUT
 441:C:/Projekte/Infineon_Dave/eHaJo/FlapFlap/Libraries/XMCLib/inc\xmc_usic.h **** {
 442:C:/Projekte/Infineon_Dave/eHaJo/FlapFlap/Libraries/XMCLib/inc\xmc_usic.h ****   XMC_USIC_CH_BRG_SHIFT_CLOCK_OUTPUT_SCLK = 0x0UL, /**< Baudrate generator shift clock output: SCL.
 443:C:/Projekte/Infineon_Dave/eHaJo/FlapFlap/Libraries/XMCLib/inc\xmc_usic.h ****   XMC_USIC_CH_BRG_SHIFT_CLOCK_OUTPUT_DX1 = 0x1UL << USIC_CH_BRG_SCLKOSEL_Pos   /**< Baudrate genera
 444:C:/Projekte/Infineon_Dave/eHaJo/FlapFlap/Libraries/XMCLib/inc\xmc_usic.h **** } XMC_USIC_CH_BRG_SHIFT_CLOCK_OUTPUT_t;
 445:C:/Projekte/Infineon_Dave/eHaJo/FlapFlap/Libraries/XMCLib/inc\xmc_usic.h **** 
 446:C:/Projekte/Infineon_Dave/eHaJo/FlapFlap/Libraries/XMCLib/inc\xmc_usic.h **** /**
 447:C:/Projekte/Infineon_Dave/eHaJo/FlapFlap/Libraries/XMCLib/inc\xmc_usic.h **** * USIC channel shift direction.
 448:C:/Projekte/Infineon_Dave/eHaJo/FlapFlap/Libraries/XMCLib/inc\xmc_usic.h **** * Defines the shift direction of the data words for transmission and reception
 449:C:/Projekte/Infineon_Dave/eHaJo/FlapFlap/Libraries/XMCLib/inc\xmc_usic.h **** */
 450:C:/Projekte/Infineon_Dave/eHaJo/FlapFlap/Libraries/XMCLib/inc\xmc_usic.h **** typedef enum XMC_USIC_CH_SHIFT_DIRECTION
 451:C:/Projekte/Infineon_Dave/eHaJo/FlapFlap/Libraries/XMCLib/inc\xmc_usic.h **** {
 452:C:/Projekte/Infineon_Dave/eHaJo/FlapFlap/Libraries/XMCLib/inc\xmc_usic.h ****   XMC_USIC_CH_SHIFT_DIRECTION_LSB_FIRST = 0x0UL, /**< Shift LSB first. The first data bit of a data
 453:C:/Projekte/Infineon_Dave/eHaJo/FlapFlap/Libraries/XMCLib/inc\xmc_usic.h ****   XMC_USIC_CH_SHIFT_DIRECTION_MSB_FIRST = 0x1UL << USIC_CH_SCTR_SDIR_Msk /**< Shift MSB first. The 
 454:C:/Projekte/Infineon_Dave/eHaJo/FlapFlap/Libraries/XMCLib/inc\xmc_usic.h **** } XMC_USIC_CH_SHIFT_DIRECTION_t;
 455:C:/Projekte/Infineon_Dave/eHaJo/FlapFlap/Libraries/XMCLib/inc\xmc_usic.h **** 
 456:C:/Projekte/Infineon_Dave/eHaJo/FlapFlap/Libraries/XMCLib/inc\xmc_usic.h **** 
 457:C:/Projekte/Infineon_Dave/eHaJo/FlapFlap/Libraries/XMCLib/inc\xmc_usic.h **** /*******************************************************************************
 458:C:/Projekte/Infineon_Dave/eHaJo/FlapFlap/Libraries/XMCLib/inc\xmc_usic.h ****  * DATA STRUCTURES
 459:C:/Projekte/Infineon_Dave/eHaJo/FlapFlap/Libraries/XMCLib/inc\xmc_usic.h ****  *******************************************************************************/
 460:C:/Projekte/Infineon_Dave/eHaJo/FlapFlap/Libraries/XMCLib/inc\xmc_usic.h **** 
 461:C:/Projekte/Infineon_Dave/eHaJo/FlapFlap/Libraries/XMCLib/inc\xmc_usic.h **** /*Anonymous structure/union guard start*/
 462:C:/Projekte/Infineon_Dave/eHaJo/FlapFlap/Libraries/XMCLib/inc\xmc_usic.h **** #if defined(__CC_ARM)
 463:C:/Projekte/Infineon_Dave/eHaJo/FlapFlap/Libraries/XMCLib/inc\xmc_usic.h ****   #pragma push
 464:C:/Projekte/Infineon_Dave/eHaJo/FlapFlap/Libraries/XMCLib/inc\xmc_usic.h ****   #pragma anon_unions
 465:C:/Projekte/Infineon_Dave/eHaJo/FlapFlap/Libraries/XMCLib/inc\xmc_usic.h **** #elif defined(__TASKING__)
 466:C:/Projekte/Infineon_Dave/eHaJo/FlapFlap/Libraries/XMCLib/inc\xmc_usic.h ****   #pragma warning 586
 467:C:/Projekte/Infineon_Dave/eHaJo/FlapFlap/Libraries/XMCLib/inc\xmc_usic.h **** #endif
 468:C:/Projekte/Infineon_Dave/eHaJo/FlapFlap/Libraries/XMCLib/inc\xmc_usic.h **** 
 469:C:/Projekte/Infineon_Dave/eHaJo/FlapFlap/Libraries/XMCLib/inc\xmc_usic.h **** /**
 470:C:/Projekte/Infineon_Dave/eHaJo/FlapFlap/Libraries/XMCLib/inc\xmc_usic.h ****  * USIC module structure
 471:C:/Projekte/Infineon_Dave/eHaJo/FlapFlap/Libraries/XMCLib/inc\xmc_usic.h ****  */
 472:C:/Projekte/Infineon_Dave/eHaJo/FlapFlap/Libraries/XMCLib/inc\xmc_usic.h **** typedef USIC_GLOBAL_TypeDef XMC_USIC_t;
 473:C:/Projekte/Infineon_Dave/eHaJo/FlapFlap/Libraries/XMCLib/inc\xmc_usic.h **** 
 474:C:/Projekte/Infineon_Dave/eHaJo/FlapFlap/Libraries/XMCLib/inc\xmc_usic.h **** /**
 475:C:/Projekte/Infineon_Dave/eHaJo/FlapFlap/Libraries/XMCLib/inc\xmc_usic.h ****  * USIC channel structure.<br> The members of the structure are same as in the device header file, 
 476:C:/Projekte/Infineon_Dave/eHaJo/FlapFlap/Libraries/XMCLib/inc\xmc_usic.h ****  * except for some registers.
 477:C:/Projekte/Infineon_Dave/eHaJo/FlapFlap/Libraries/XMCLib/inc\xmc_usic.h ****  * DX0CR, DX1CR, DX2CR, DX3CR, DX4CR and DX5CR are replaced with the array DXCR[6].
 478:C:/Projekte/Infineon_Dave/eHaJo/FlapFlap/Libraries/XMCLib/inc\xmc_usic.h ****  * TBUF0 to TBUF31 are replaced with TBUF[32].
 479:C:/Projekte/Infineon_Dave/eHaJo/FlapFlap/Libraries/XMCLib/inc\xmc_usic.h ****  * IN0 to IN31 are replaced with IN[32].
 480:C:/Projekte/Infineon_Dave/eHaJo/FlapFlap/Libraries/XMCLib/inc\xmc_usic.h ****  */
 481:C:/Projekte/Infineon_Dave/eHaJo/FlapFlap/Libraries/XMCLib/inc\xmc_usic.h **** typedef struct XMC_USIC_CH
 482:C:/Projekte/Infineon_Dave/eHaJo/FlapFlap/Libraries/XMCLib/inc\xmc_usic.h **** {
 483:C:/Projekte/Infineon_Dave/eHaJo/FlapFlap/Libraries/XMCLib/inc\xmc_usic.h ****   __I  uint32_t  RESERVED0;
 484:C:/Projekte/Infineon_Dave/eHaJo/FlapFlap/Libraries/XMCLib/inc\xmc_usic.h ****   __I  uint32_t  CCFG;			/**< Channel configuration register*/
 485:C:/Projekte/Infineon_Dave/eHaJo/FlapFlap/Libraries/XMCLib/inc\xmc_usic.h ****   __I  uint32_t  RESERVED1;
 486:C:/Projekte/Infineon_Dave/eHaJo/FlapFlap/Libraries/XMCLib/inc\xmc_usic.h ****   __IO uint32_t  KSCFG;			/**< Kernel state configuration register*/
 487:C:/Projekte/Infineon_Dave/eHaJo/FlapFlap/Libraries/XMCLib/inc\xmc_usic.h ****   __IO uint32_t  FDR;			/**< Fractional divider configuration register*/
 488:C:/Projekte/Infineon_Dave/eHaJo/FlapFlap/Libraries/XMCLib/inc\xmc_usic.h ****   __IO uint32_t  BRG;			/**< Baud rate generator register*/
 489:C:/Projekte/Infineon_Dave/eHaJo/FlapFlap/Libraries/XMCLib/inc\xmc_usic.h ****   __IO uint32_t  INPR;			/**< Interrupt node pointer register*/
 490:C:/Projekte/Infineon_Dave/eHaJo/FlapFlap/Libraries/XMCLib/inc\xmc_usic.h ****   __IO uint32_t  DXCR[6];		/**< Input control registers DX0 to DX5.*/
 491:C:/Projekte/Infineon_Dave/eHaJo/FlapFlap/Libraries/XMCLib/inc\xmc_usic.h ****   __IO uint32_t  SCTR;			/**< Shift control register*/
 492:C:/Projekte/Infineon_Dave/eHaJo/FlapFlap/Libraries/XMCLib/inc\xmc_usic.h ****   __IO uint32_t  TCSR;
 493:C:/Projekte/Infineon_Dave/eHaJo/FlapFlap/Libraries/XMCLib/inc\xmc_usic.h **** 
 494:C:/Projekte/Infineon_Dave/eHaJo/FlapFlap/Libraries/XMCLib/inc\xmc_usic.h ****   union {
 495:C:/Projekte/Infineon_Dave/eHaJo/FlapFlap/Libraries/XMCLib/inc\xmc_usic.h ****     __IO uint32_t  PCR_IICMode;	/**< I2C protocol configuration register*/
 496:C:/Projekte/Infineon_Dave/eHaJo/FlapFlap/Libraries/XMCLib/inc\xmc_usic.h ****     __IO uint32_t  PCR_IISMode; /**< I2S protocol configuration register*/
 497:C:/Projekte/Infineon_Dave/eHaJo/FlapFlap/Libraries/XMCLib/inc\xmc_usic.h ****     __IO uint32_t  PCR_SSCMode;	/**< SPI protocol configuration register*/
 498:C:/Projekte/Infineon_Dave/eHaJo/FlapFlap/Libraries/XMCLib/inc\xmc_usic.h ****     __IO uint32_t  PCR;			/**< Protocol configuration register*/
 499:C:/Projekte/Infineon_Dave/eHaJo/FlapFlap/Libraries/XMCLib/inc\xmc_usic.h ****     __IO uint32_t  PCR_ASCMode;	/**< UART protocol configuration register*/
 500:C:/Projekte/Infineon_Dave/eHaJo/FlapFlap/Libraries/XMCLib/inc\xmc_usic.h ****   };
 501:C:/Projekte/Infineon_Dave/eHaJo/FlapFlap/Libraries/XMCLib/inc\xmc_usic.h ****   __IO uint32_t  CCR;			/**< Channel control register*/
 502:C:/Projekte/Infineon_Dave/eHaJo/FlapFlap/Libraries/XMCLib/inc\xmc_usic.h ****   __IO uint32_t  CMTR;			/**< Capture mode timer register*/
 503:C:/Projekte/Infineon_Dave/eHaJo/FlapFlap/Libraries/XMCLib/inc\xmc_usic.h **** 
 504:C:/Projekte/Infineon_Dave/eHaJo/FlapFlap/Libraries/XMCLib/inc\xmc_usic.h ****   union {
 505:C:/Projekte/Infineon_Dave/eHaJo/FlapFlap/Libraries/XMCLib/inc\xmc_usic.h ****     __IO uint32_t  PSR_IICMode;	/**< I2C protocol status register*/
 506:C:/Projekte/Infineon_Dave/eHaJo/FlapFlap/Libraries/XMCLib/inc\xmc_usic.h ****     __IO uint32_t  PSR_IISMode;	/**< I2S protocol status register*/
 507:C:/Projekte/Infineon_Dave/eHaJo/FlapFlap/Libraries/XMCLib/inc\xmc_usic.h ****     __IO uint32_t  PSR_SSCMode;	/**< SPI protocol status register*/
 508:C:/Projekte/Infineon_Dave/eHaJo/FlapFlap/Libraries/XMCLib/inc\xmc_usic.h ****     __IO uint32_t  PSR;			/**< Protocol status register*/
 509:C:/Projekte/Infineon_Dave/eHaJo/FlapFlap/Libraries/XMCLib/inc\xmc_usic.h ****     __IO uint32_t  PSR_ASCMode;	/**< UART protocol status register*/
 510:C:/Projekte/Infineon_Dave/eHaJo/FlapFlap/Libraries/XMCLib/inc\xmc_usic.h ****   };
 511:C:/Projekte/Infineon_Dave/eHaJo/FlapFlap/Libraries/XMCLib/inc\xmc_usic.h ****   __O  uint32_t  PSCR;			/**< Protocol status clear register*/
 512:C:/Projekte/Infineon_Dave/eHaJo/FlapFlap/Libraries/XMCLib/inc\xmc_usic.h ****   __I  uint32_t  RBUFSR;		/**< Receive buffer status register*/
 513:C:/Projekte/Infineon_Dave/eHaJo/FlapFlap/Libraries/XMCLib/inc\xmc_usic.h ****   __I  uint32_t  RBUF;			/**< Receive buffer register*/
 514:C:/Projekte/Infineon_Dave/eHaJo/FlapFlap/Libraries/XMCLib/inc\xmc_usic.h ****   __I  uint32_t  RBUFD;			/**< Debug mode receive buffer register*/
 515:C:/Projekte/Infineon_Dave/eHaJo/FlapFlap/Libraries/XMCLib/inc\xmc_usic.h ****   __I  uint32_t  RBUF0;			/**< Receive buffer 0*/
 516:C:/Projekte/Infineon_Dave/eHaJo/FlapFlap/Libraries/XMCLib/inc\xmc_usic.h ****   __I  uint32_t  RBUF1;			/**< Receive buffer 1*/
 517:C:/Projekte/Infineon_Dave/eHaJo/FlapFlap/Libraries/XMCLib/inc\xmc_usic.h ****   __I  uint32_t  RBUF01SR;		/**< Receive buffer status register*/
 518:C:/Projekte/Infineon_Dave/eHaJo/FlapFlap/Libraries/XMCLib/inc\xmc_usic.h ****   __O  uint32_t  FMR;			/**< Flag modification register*/
 519:C:/Projekte/Infineon_Dave/eHaJo/FlapFlap/Libraries/XMCLib/inc\xmc_usic.h ****   __I  uint32_t  RESERVED2[5];
 520:C:/Projekte/Infineon_Dave/eHaJo/FlapFlap/Libraries/XMCLib/inc\xmc_usic.h ****   __IO uint32_t  TBUF[32];		/**< Tranmsit buffer registers*/
 521:C:/Projekte/Infineon_Dave/eHaJo/FlapFlap/Libraries/XMCLib/inc\xmc_usic.h ****   __IO uint32_t  BYP;			/**< FIFO bypass register*/
 522:C:/Projekte/Infineon_Dave/eHaJo/FlapFlap/Libraries/XMCLib/inc\xmc_usic.h ****   __IO uint32_t  BYPCR;			/**< FIFO bypass control register*/
 523:C:/Projekte/Infineon_Dave/eHaJo/FlapFlap/Libraries/XMCLib/inc\xmc_usic.h ****   __IO uint32_t  TBCTR;			/**< Transmit FIFO control register*/
 524:C:/Projekte/Infineon_Dave/eHaJo/FlapFlap/Libraries/XMCLib/inc\xmc_usic.h ****   __IO uint32_t  RBCTR;			/**< Receive FIFO control register*/
 525:C:/Projekte/Infineon_Dave/eHaJo/FlapFlap/Libraries/XMCLib/inc\xmc_usic.h ****   __I  uint32_t  TRBPTR;		/**< Transmit/recive buffer pointer register*/
 526:C:/Projekte/Infineon_Dave/eHaJo/FlapFlap/Libraries/XMCLib/inc\xmc_usic.h ****   __IO uint32_t  TRBSR;			/**< Transmit/receive buffer status register*/
 527:C:/Projekte/Infineon_Dave/eHaJo/FlapFlap/Libraries/XMCLib/inc\xmc_usic.h ****   __O  uint32_t  TRBSCR;		/**< Transmit/receive buffer status clear register*/
 528:C:/Projekte/Infineon_Dave/eHaJo/FlapFlap/Libraries/XMCLib/inc\xmc_usic.h ****   __I  uint32_t  OUTR;			/**< Receive FIFO output register*/
 529:C:/Projekte/Infineon_Dave/eHaJo/FlapFlap/Libraries/XMCLib/inc\xmc_usic.h ****   __I  uint32_t  OUTDR;			/**< Receive FIFO debug output register*/
 530:C:/Projekte/Infineon_Dave/eHaJo/FlapFlap/Libraries/XMCLib/inc\xmc_usic.h ****   __I  uint32_t  RESERVED3[23];
 531:C:/Projekte/Infineon_Dave/eHaJo/FlapFlap/Libraries/XMCLib/inc\xmc_usic.h ****   __O  uint32_t  IN[32];		/**< Transmit FIFO input register*/
 532:C:/Projekte/Infineon_Dave/eHaJo/FlapFlap/Libraries/XMCLib/inc\xmc_usic.h **** } XMC_USIC_CH_t;
 533:C:/Projekte/Infineon_Dave/eHaJo/FlapFlap/Libraries/XMCLib/inc\xmc_usic.h **** 
 534:C:/Projekte/Infineon_Dave/eHaJo/FlapFlap/Libraries/XMCLib/inc\xmc_usic.h **** 
 535:C:/Projekte/Infineon_Dave/eHaJo/FlapFlap/Libraries/XMCLib/inc\xmc_usic.h **** /*Anonymous structure/union guard end*/
 536:C:/Projekte/Infineon_Dave/eHaJo/FlapFlap/Libraries/XMCLib/inc\xmc_usic.h **** #if defined(__CC_ARM)
 537:C:/Projekte/Infineon_Dave/eHaJo/FlapFlap/Libraries/XMCLib/inc\xmc_usic.h ****   #pragma pop
 538:C:/Projekte/Infineon_Dave/eHaJo/FlapFlap/Libraries/XMCLib/inc\xmc_usic.h **** #elif defined(__TASKING__)
 539:C:/Projekte/Infineon_Dave/eHaJo/FlapFlap/Libraries/XMCLib/inc\xmc_usic.h ****   #pragma warning restore
 540:C:/Projekte/Infineon_Dave/eHaJo/FlapFlap/Libraries/XMCLib/inc\xmc_usic.h **** #endif
 541:C:/Projekte/Infineon_Dave/eHaJo/FlapFlap/Libraries/XMCLib/inc\xmc_usic.h **** 
 542:C:/Projekte/Infineon_Dave/eHaJo/FlapFlap/Libraries/XMCLib/inc\xmc_usic.h **** /*******************************************************************************
 543:C:/Projekte/Infineon_Dave/eHaJo/FlapFlap/Libraries/XMCLib/inc\xmc_usic.h ****  * API PROTOTYPES
 544:C:/Projekte/Infineon_Dave/eHaJo/FlapFlap/Libraries/XMCLib/inc\xmc_usic.h ****  ******************************************************************************/
 545:C:/Projekte/Infineon_Dave/eHaJo/FlapFlap/Libraries/XMCLib/inc\xmc_usic.h **** 
 546:C:/Projekte/Infineon_Dave/eHaJo/FlapFlap/Libraries/XMCLib/inc\xmc_usic.h **** #ifdef __cplusplus
 547:C:/Projekte/Infineon_Dave/eHaJo/FlapFlap/Libraries/XMCLib/inc\xmc_usic.h **** extern "C" {
 548:C:/Projekte/Infineon_Dave/eHaJo/FlapFlap/Libraries/XMCLib/inc\xmc_usic.h **** #endif
 549:C:/Projekte/Infineon_Dave/eHaJo/FlapFlap/Libraries/XMCLib/inc\xmc_usic.h **** 
 550:C:/Projekte/Infineon_Dave/eHaJo/FlapFlap/Libraries/XMCLib/inc\xmc_usic.h **** __STATIC_INLINE bool XMC_USIC_IsModuleValid(const XMC_USIC_t *const module)
 551:C:/Projekte/Infineon_Dave/eHaJo/FlapFlap/Libraries/XMCLib/inc\xmc_usic.h **** {
 552:C:/Projekte/Infineon_Dave/eHaJo/FlapFlap/Libraries/XMCLib/inc\xmc_usic.h ****   bool tmp;
 553:C:/Projekte/Infineon_Dave/eHaJo/FlapFlap/Libraries/XMCLib/inc\xmc_usic.h **** 
 554:C:/Projekte/Infineon_Dave/eHaJo/FlapFlap/Libraries/XMCLib/inc\xmc_usic.h ****   tmp = (module == XMC_USIC0);
 555:C:/Projekte/Infineon_Dave/eHaJo/FlapFlap/Libraries/XMCLib/inc\xmc_usic.h **** #if defined(XMC_USIC1)  
 556:C:/Projekte/Infineon_Dave/eHaJo/FlapFlap/Libraries/XMCLib/inc\xmc_usic.h ****   tmp = tmp || (module == XMC_USIC1);
 557:C:/Projekte/Infineon_Dave/eHaJo/FlapFlap/Libraries/XMCLib/inc\xmc_usic.h **** #endif
 558:C:/Projekte/Infineon_Dave/eHaJo/FlapFlap/Libraries/XMCLib/inc\xmc_usic.h **** #if defined(XMC_USIC2)  
 559:C:/Projekte/Infineon_Dave/eHaJo/FlapFlap/Libraries/XMCLib/inc\xmc_usic.h ****   tmp = tmp || (module == XMC_USIC2);
 560:C:/Projekte/Infineon_Dave/eHaJo/FlapFlap/Libraries/XMCLib/inc\xmc_usic.h **** #endif
 561:C:/Projekte/Infineon_Dave/eHaJo/FlapFlap/Libraries/XMCLib/inc\xmc_usic.h **** 
 562:C:/Projekte/Infineon_Dave/eHaJo/FlapFlap/Libraries/XMCLib/inc\xmc_usic.h ****   return tmp;
 563:C:/Projekte/Infineon_Dave/eHaJo/FlapFlap/Libraries/XMCLib/inc\xmc_usic.h **** }
 564:C:/Projekte/Infineon_Dave/eHaJo/FlapFlap/Libraries/XMCLib/inc\xmc_usic.h **** 
 565:C:/Projekte/Infineon_Dave/eHaJo/FlapFlap/Libraries/XMCLib/inc\xmc_usic.h **** __STATIC_INLINE bool XMC_USIC_IsChannelValid(const XMC_USIC_CH_t *const channel)
 566:C:/Projekte/Infineon_Dave/eHaJo/FlapFlap/Libraries/XMCLib/inc\xmc_usic.h **** {
 567:C:/Projekte/Infineon_Dave/eHaJo/FlapFlap/Libraries/XMCLib/inc\xmc_usic.h ****   bool tmp;
 568:C:/Projekte/Infineon_Dave/eHaJo/FlapFlap/Libraries/XMCLib/inc\xmc_usic.h **** 
 569:C:/Projekte/Infineon_Dave/eHaJo/FlapFlap/Libraries/XMCLib/inc\xmc_usic.h ****   tmp = ((channel == XMC_USIC0_CH0) || (channel == XMC_USIC0_CH1));
 570:C:/Projekte/Infineon_Dave/eHaJo/FlapFlap/Libraries/XMCLib/inc\xmc_usic.h **** #if defined(XMC_USIC1)  
 571:C:/Projekte/Infineon_Dave/eHaJo/FlapFlap/Libraries/XMCLib/inc\xmc_usic.h ****   tmp = tmp || ((channel == XMC_USIC1_CH0) || (channel == XMC_USIC1_CH1));
 572:C:/Projekte/Infineon_Dave/eHaJo/FlapFlap/Libraries/XMCLib/inc\xmc_usic.h **** #endif
 573:C:/Projekte/Infineon_Dave/eHaJo/FlapFlap/Libraries/XMCLib/inc\xmc_usic.h **** #if defined(XMC_USIC2)  
 574:C:/Projekte/Infineon_Dave/eHaJo/FlapFlap/Libraries/XMCLib/inc\xmc_usic.h ****   tmp = tmp || ((channel == XMC_USIC2_CH0) || (channel == XMC_USIC2_CH1));
 575:C:/Projekte/Infineon_Dave/eHaJo/FlapFlap/Libraries/XMCLib/inc\xmc_usic.h **** #endif
 576:C:/Projekte/Infineon_Dave/eHaJo/FlapFlap/Libraries/XMCLib/inc\xmc_usic.h **** 
 577:C:/Projekte/Infineon_Dave/eHaJo/FlapFlap/Libraries/XMCLib/inc\xmc_usic.h ****   return tmp;
 578:C:/Projekte/Infineon_Dave/eHaJo/FlapFlap/Libraries/XMCLib/inc\xmc_usic.h **** }
 579:C:/Projekte/Infineon_Dave/eHaJo/FlapFlap/Libraries/XMCLib/inc\xmc_usic.h **** 
 580:C:/Projekte/Infineon_Dave/eHaJo/FlapFlap/Libraries/XMCLib/inc\xmc_usic.h **** /* Common APIs */
 581:C:/Projekte/Infineon_Dave/eHaJo/FlapFlap/Libraries/XMCLib/inc\xmc_usic.h **** 
 582:C:/Projekte/Infineon_Dave/eHaJo/FlapFlap/Libraries/XMCLib/inc\xmc_usic.h **** /**
 583:C:/Projekte/Infineon_Dave/eHaJo/FlapFlap/Libraries/XMCLib/inc\xmc_usic.h ****  * @param  usic Pointer to USIC module handler of type @ref XMC_USIC_t.\n
 584:C:/Projekte/Infineon_Dave/eHaJo/FlapFlap/Libraries/XMCLib/inc\xmc_usic.h ****  * 				\b Range: @ref XMC_USIC0 to @ref XMC_USIC2 based on device support.
 585:C:/Projekte/Infineon_Dave/eHaJo/FlapFlap/Libraries/XMCLib/inc\xmc_usic.h ****  * @return None
 586:C:/Projekte/Infineon_Dave/eHaJo/FlapFlap/Libraries/XMCLib/inc\xmc_usic.h ****  * 
 587:C:/Projekte/Infineon_Dave/eHaJo/FlapFlap/Libraries/XMCLib/inc\xmc_usic.h ****  * \par<b>Description</b><br>
 588:C:/Projekte/Infineon_Dave/eHaJo/FlapFlap/Libraries/XMCLib/inc\xmc_usic.h ****  * Enables the USIC module.\n\n
 589:C:/Projekte/Infineon_Dave/eHaJo/FlapFlap/Libraries/XMCLib/inc\xmc_usic.h ****  * Enables the clock for the USIC module by following the
 590:C:/Projekte/Infineon_Dave/eHaJo/FlapFlap/Libraries/XMCLib/inc\xmc_usic.h ****  * clock enabling sequence for the selected device.
 591:C:/Projekte/Infineon_Dave/eHaJo/FlapFlap/Libraries/XMCLib/inc\xmc_usic.h ****  *
 592:C:/Projekte/Infineon_Dave/eHaJo/FlapFlap/Libraries/XMCLib/inc\xmc_usic.h ****  * \par<b>Related APIs:</b><BR>
 593:C:/Projekte/Infineon_Dave/eHaJo/FlapFlap/Libraries/XMCLib/inc\xmc_usic.h ****  * XMC_USIC_CH_Enable(), XMC_USIC_Disable() \n\n\n
 594:C:/Projekte/Infineon_Dave/eHaJo/FlapFlap/Libraries/XMCLib/inc\xmc_usic.h ****  */
 595:C:/Projekte/Infineon_Dave/eHaJo/FlapFlap/Libraries/XMCLib/inc\xmc_usic.h **** void XMC_USIC_Enable(XMC_USIC_t *const usic);
 596:C:/Projekte/Infineon_Dave/eHaJo/FlapFlap/Libraries/XMCLib/inc\xmc_usic.h **** /**
 597:C:/Projekte/Infineon_Dave/eHaJo/FlapFlap/Libraries/XMCLib/inc\xmc_usic.h ****  * @param  usic Pointer to USIC module handler of type @ref XMC_USIC_t.\n
 598:C:/Projekte/Infineon_Dave/eHaJo/FlapFlap/Libraries/XMCLib/inc\xmc_usic.h ****  * 				\b Range: @ref XMC_USIC0 to @ref XMC_USIC2 based on device support.
 599:C:/Projekte/Infineon_Dave/eHaJo/FlapFlap/Libraries/XMCLib/inc\xmc_usic.h ****  * @return None
 600:C:/Projekte/Infineon_Dave/eHaJo/FlapFlap/Libraries/XMCLib/inc\xmc_usic.h ****  *
 601:C:/Projekte/Infineon_Dave/eHaJo/FlapFlap/Libraries/XMCLib/inc\xmc_usic.h ****  * \par<b>Description</b><br>
 602:C:/Projekte/Infineon_Dave/eHaJo/FlapFlap/Libraries/XMCLib/inc\xmc_usic.h ****  * Disables the USIC module.\n\n
 603:C:/Projekte/Infineon_Dave/eHaJo/FlapFlap/Libraries/XMCLib/inc\xmc_usic.h ****  * Disables the clock for the USIC module by following the clock
 604:C:/Projekte/Infineon_Dave/eHaJo/FlapFlap/Libraries/XMCLib/inc\xmc_usic.h ****  * disabling sequence for the selected device.
 605:C:/Projekte/Infineon_Dave/eHaJo/FlapFlap/Libraries/XMCLib/inc\xmc_usic.h ****  *
 606:C:/Projekte/Infineon_Dave/eHaJo/FlapFlap/Libraries/XMCLib/inc\xmc_usic.h ****  * \par<b>Related APIs:</b><BR>
 607:C:/Projekte/Infineon_Dave/eHaJo/FlapFlap/Libraries/XMCLib/inc\xmc_usic.h ****  * XMC_USIC_CH_Disable(), XMC_USIC_Enable() \n\n\n
 608:C:/Projekte/Infineon_Dave/eHaJo/FlapFlap/Libraries/XMCLib/inc\xmc_usic.h ****  */
 609:C:/Projekte/Infineon_Dave/eHaJo/FlapFlap/Libraries/XMCLib/inc\xmc_usic.h **** void XMC_USIC_Disable(XMC_USIC_t *const usic);
 610:C:/Projekte/Infineon_Dave/eHaJo/FlapFlap/Libraries/XMCLib/inc\xmc_usic.h **** /**
 611:C:/Projekte/Infineon_Dave/eHaJo/FlapFlap/Libraries/XMCLib/inc\xmc_usic.h ****  * @param  channel Pointer to USIC channel handler of type @ref XMC_USIC_CH_t \n
 612:C:/Projekte/Infineon_Dave/eHaJo/FlapFlap/Libraries/XMCLib/inc\xmc_usic.h ****  * 				   \b Range: @ref XMC_USIC0_CH0, @ref XMC_USIC0_CH1 to @ref XMC_USIC2_CH1 based on device su
 613:C:/Projekte/Infineon_Dave/eHaJo/FlapFlap/Libraries/XMCLib/inc\xmc_usic.h ****  * @return None
 614:C:/Projekte/Infineon_Dave/eHaJo/FlapFlap/Libraries/XMCLib/inc\xmc_usic.h ****  *
 615:C:/Projekte/Infineon_Dave/eHaJo/FlapFlap/Libraries/XMCLib/inc\xmc_usic.h ****  * \par<b>Description</b><br>
 616:C:/Projekte/Infineon_Dave/eHaJo/FlapFlap/Libraries/XMCLib/inc\xmc_usic.h ****  * Enables the USIC channel. \n\n
 617:C:/Projekte/Infineon_Dave/eHaJo/FlapFlap/Libraries/XMCLib/inc\xmc_usic.h ****  * USIC channel is enabled by setting the module enable bit in KSCFG register bitfield MODEN.
 618:C:/Projekte/Infineon_Dave/eHaJo/FlapFlap/Libraries/XMCLib/inc\xmc_usic.h ****  * On enabling, the channel is set to idle mode.
 619:C:/Projekte/Infineon_Dave/eHaJo/FlapFlap/Libraries/XMCLib/inc\xmc_usic.h ****  *
 620:C:/Projekte/Infineon_Dave/eHaJo/FlapFlap/Libraries/XMCLib/inc\xmc_usic.h ****  * \par<b>Related APIs:</b><BR>
 621:C:/Projekte/Infineon_Dave/eHaJo/FlapFlap/Libraries/XMCLib/inc\xmc_usic.h ****  * XMC_USIC_CH_Disable(), XMC_USIC_Enable() \n\n\n
 622:C:/Projekte/Infineon_Dave/eHaJo/FlapFlap/Libraries/XMCLib/inc\xmc_usic.h ****  */
 623:C:/Projekte/Infineon_Dave/eHaJo/FlapFlap/Libraries/XMCLib/inc\xmc_usic.h **** void XMC_USIC_CH_Enable(XMC_USIC_CH_t *const channel);
 624:C:/Projekte/Infineon_Dave/eHaJo/FlapFlap/Libraries/XMCLib/inc\xmc_usic.h **** /**
 625:C:/Projekte/Infineon_Dave/eHaJo/FlapFlap/Libraries/XMCLib/inc\xmc_usic.h ****  * @param  channel Pointer to USIC channel handler of type @ref XMC_USIC_CH_t \n
 626:C:/Projekte/Infineon_Dave/eHaJo/FlapFlap/Libraries/XMCLib/inc\xmc_usic.h ****  * 				   \b Range: @ref XMC_USIC0_CH0, @ref XMC_USIC0_CH1 to @ref XMC_USIC2_CH1 based on device su
 627:C:/Projekte/Infineon_Dave/eHaJo/FlapFlap/Libraries/XMCLib/inc\xmc_usic.h ****  * @return None
 628:C:/Projekte/Infineon_Dave/eHaJo/FlapFlap/Libraries/XMCLib/inc\xmc_usic.h ****  *
 629:C:/Projekte/Infineon_Dave/eHaJo/FlapFlap/Libraries/XMCLib/inc\xmc_usic.h ****  * \par<b>Description</b><br>
 630:C:/Projekte/Infineon_Dave/eHaJo/FlapFlap/Libraries/XMCLib/inc\xmc_usic.h ****  * Disables the USIC channel.\n\n
 631:C:/Projekte/Infineon_Dave/eHaJo/FlapFlap/Libraries/XMCLib/inc\xmc_usic.h ****  * USIC channel is disabled by setting the module enable bit(MDEN) to 0 in the register KSCFG.
 632:C:/Projekte/Infineon_Dave/eHaJo/FlapFlap/Libraries/XMCLib/inc\xmc_usic.h ****  *
 633:C:/Projekte/Infineon_Dave/eHaJo/FlapFlap/Libraries/XMCLib/inc\xmc_usic.h ****  * \par<b>Related APIs:</b><BR>
 634:C:/Projekte/Infineon_Dave/eHaJo/FlapFlap/Libraries/XMCLib/inc\xmc_usic.h ****  * XMC_USIC_CH_Enable(), XMC_USIC_Disable() \n\n\n
 635:C:/Projekte/Infineon_Dave/eHaJo/FlapFlap/Libraries/XMCLib/inc\xmc_usic.h ****  */
 636:C:/Projekte/Infineon_Dave/eHaJo/FlapFlap/Libraries/XMCLib/inc\xmc_usic.h **** void XMC_USIC_CH_Disable(XMC_USIC_CH_t *const channel);
 637:C:/Projekte/Infineon_Dave/eHaJo/FlapFlap/Libraries/XMCLib/inc\xmc_usic.h **** 
 638:C:/Projekte/Infineon_Dave/eHaJo/FlapFlap/Libraries/XMCLib/inc\xmc_usic.h **** /**
 639:C:/Projekte/Infineon_Dave/eHaJo/FlapFlap/Libraries/XMCLib/inc\xmc_usic.h ****  * @param  channel Pointer to USIC channel handler of type @ref XMC_USIC_CH_t \n
 640:C:/Projekte/Infineon_Dave/eHaJo/FlapFlap/Libraries/XMCLib/inc\xmc_usic.h ****  * 				   \b Range: @ref XMC_USIC0_CH0, @ref XMC_USIC0_CH1 to @ref XMC_USIC2_CH1 based on device su
 641:C:/Projekte/Infineon_Dave/eHaJo/FlapFlap/Libraries/XMCLib/inc\xmc_usic.h ****  * @param  rate Desired baudrate. \b Range: minimum value = 100, maximum value depends on the perip
 642:C:/Projekte/Infineon_Dave/eHaJo/FlapFlap/Libraries/XMCLib/inc\xmc_usic.h ****  * 				and \a oversampling. Maximum baudrate can be derived using the formula: (fperiph * 1023)/(10
 643:C:/Projekte/Infineon_Dave/eHaJo/FlapFlap/Libraries/XMCLib/inc\xmc_usic.h ****  * @param  oversampling Required oversampling. The value indicates the number of time quanta for on
 644:C:/Projekte/Infineon_Dave/eHaJo/FlapFlap/Libraries/XMCLib/inc\xmc_usic.h ****  * 						This can be related to the number of samples for each logic state of the data signal. \n
 645:C:/Projekte/Infineon_Dave/eHaJo/FlapFlap/Libraries/XMCLib/inc\xmc_usic.h ****  * 						\b Range: 1 to 32. Value should be chosen based on the protocol used.
 646:C:/Projekte/Infineon_Dave/eHaJo/FlapFlap/Libraries/XMCLib/inc\xmc_usic.h ****  * @return Status indicating the baudrate configuration.\n
 647:C:/Projekte/Infineon_Dave/eHaJo/FlapFlap/Libraries/XMCLib/inc\xmc_usic.h ****  * 			\b Range: @ref XMC_USIC_CH_STATUS_OK if baudrate is successfully configured,
 648:C:/Projekte/Infineon_Dave/eHaJo/FlapFlap/Libraries/XMCLib/inc\xmc_usic.h ****  * 					  @ref XMC_USIC_CH_STATUS_ERROR if desired baudrate or oversampling is invalid.
 649:C:/Projekte/Infineon_Dave/eHaJo/FlapFlap/Libraries/XMCLib/inc\xmc_usic.h ****  *
 650:C:/Projekte/Infineon_Dave/eHaJo/FlapFlap/Libraries/XMCLib/inc\xmc_usic.h ****  * \par<b>Description</b><br>
 651:C:/Projekte/Infineon_Dave/eHaJo/FlapFlap/Libraries/XMCLib/inc\xmc_usic.h ****  * Configures the baudrate of the USIC channel. \n\n
 652:C:/Projekte/Infineon_Dave/eHaJo/FlapFlap/Libraries/XMCLib/inc\xmc_usic.h ****  * Baudrate is configured by considering the peripheral frequency and the desired baudrate.
 653:C:/Projekte/Infineon_Dave/eHaJo/FlapFlap/Libraries/XMCLib/inc\xmc_usic.h ****  * Optimum values of FDR->STEP and BRG->PDIV are calulated and used for generating the desired
 654:C:/Projekte/Infineon_Dave/eHaJo/FlapFlap/Libraries/XMCLib/inc\xmc_usic.h ****  * baudrate.
 655:C:/Projekte/Infineon_Dave/eHaJo/FlapFlap/Libraries/XMCLib/inc\xmc_usic.h ****  *
 656:C:/Projekte/Infineon_Dave/eHaJo/FlapFlap/Libraries/XMCLib/inc\xmc_usic.h ****  * \par<b>Related APIs:</b><BR>
 657:C:/Projekte/Infineon_Dave/eHaJo/FlapFlap/Libraries/XMCLib/inc\xmc_usic.h ****  * XMC_USIC_CH_SetStartTransmisionMode(), XMC_USIC_CH_SetInputSource() \n\n\n
 658:C:/Projekte/Infineon_Dave/eHaJo/FlapFlap/Libraries/XMCLib/inc\xmc_usic.h ****  */
 659:C:/Projekte/Infineon_Dave/eHaJo/FlapFlap/Libraries/XMCLib/inc\xmc_usic.h **** XMC_USIC_CH_STATUS_t XMC_USIC_CH_SetBaudrate(XMC_USIC_CH_t *const channel, uint32_t rate, uint32_t 
 660:C:/Projekte/Infineon_Dave/eHaJo/FlapFlap/Libraries/XMCLib/inc\xmc_usic.h **** 
 661:C:/Projekte/Infineon_Dave/eHaJo/FlapFlap/Libraries/XMCLib/inc\xmc_usic.h **** /**
 662:C:/Projekte/Infineon_Dave/eHaJo/FlapFlap/Libraries/XMCLib/inc\xmc_usic.h ****  * @param  channel Pointer to USIC channel handler of type @ref XMC_USIC_CH_t \n
 663:C:/Projekte/Infineon_Dave/eHaJo/FlapFlap/Libraries/XMCLib/inc\xmc_usic.h ****  * 				   \b Range: @ref XMC_USIC0_CH0, @ref XMC_USIC0_CH1 to @ref XMC_USIC2_CH1 based on device su
 664:C:/Projekte/Infineon_Dave/eHaJo/FlapFlap/Libraries/XMCLib/inc\xmc_usic.h ****  * @param  pdiv Desired divider for the external frequency input. \b Range: minimum value = 1, maxi
 665:C:/Projekte/Infineon_Dave/eHaJo/FlapFlap/Libraries/XMCLib/inc\xmc_usic.h ****  * @param  oversampling Required oversampling. The value indicates the number of time quanta for on
 666:C:/Projekte/Infineon_Dave/eHaJo/FlapFlap/Libraries/XMCLib/inc\xmc_usic.h ****  * 						This can be related to the number of samples for each logic state of the data signal. \n
 667:C:/Projekte/Infineon_Dave/eHaJo/FlapFlap/Libraries/XMCLib/inc\xmc_usic.h ****  * 						\b Range: 1 to 32. Value should be chosen based on the protocol used.
 668:C:/Projekte/Infineon_Dave/eHaJo/FlapFlap/Libraries/XMCLib/inc\xmc_usic.h ****  * @param  combination_mode Selects which edge of the synchronized(and optionally filtered) signal 
 669:C:/Projekte/Infineon_Dave/eHaJo/FlapFlap/Libraries/XMCLib/inc\xmc_usic.h ****  *                          output DXnT of the input stage.
 670:C:/Projekte/Infineon_Dave/eHaJo/FlapFlap/Libraries/XMCLib/inc\xmc_usic.h ****  *
 671:C:/Projekte/Infineon_Dave/eHaJo/FlapFlap/Libraries/XMCLib/inc\xmc_usic.h ****  * @return None
 672:C:/Projekte/Infineon_Dave/eHaJo/FlapFlap/Libraries/XMCLib/inc\xmc_usic.h ****  *
 673:C:/Projekte/Infineon_Dave/eHaJo/FlapFlap/Libraries/XMCLib/inc\xmc_usic.h ****  * \par<b>Description</b><br>
 674:C:/Projekte/Infineon_Dave/eHaJo/FlapFlap/Libraries/XMCLib/inc\xmc_usic.h ****  * Enables the external frequency input for the Baudrate Generator and configures the divider, over
 675:C:/Projekte/Infineon_Dave/eHaJo/FlapFlap/Libraries/XMCLib/inc\xmc_usic.h ****  * the combination mode of the USIC channel. \n\n
 676:C:/Projekte/Infineon_Dave/eHaJo/FlapFlap/Libraries/XMCLib/inc\xmc_usic.h ****  *
 677:C:/Projekte/Infineon_Dave/eHaJo/FlapFlap/Libraries/XMCLib/inc\xmc_usic.h ****  * \par<b>Related APIs:</b><BR>
 678:C:/Projekte/Infineon_Dave/eHaJo/FlapFlap/Libraries/XMCLib/inc\xmc_usic.h ****  * XMC_USIC_CH_SetBRGInputClockSource(), XMC_USIC_CH_SetInputTriggerCombinationMode() \n\n\n
 679:C:/Projekte/Infineon_Dave/eHaJo/FlapFlap/Libraries/XMCLib/inc\xmc_usic.h ****  */
 680:C:/Projekte/Infineon_Dave/eHaJo/FlapFlap/Libraries/XMCLib/inc\xmc_usic.h **** void XMC_USIC_CH_ConfigExternalInputSignalToBRG(XMC_USIC_CH_t *const channel,
 681:C:/Projekte/Infineon_Dave/eHaJo/FlapFlap/Libraries/XMCLib/inc\xmc_usic.h **** 		                                         const uint16_t pdiv,
 682:C:/Projekte/Infineon_Dave/eHaJo/FlapFlap/Libraries/XMCLib/inc\xmc_usic.h **** 												 const uint32_t oversampling,
 683:C:/Projekte/Infineon_Dave/eHaJo/FlapFlap/Libraries/XMCLib/inc\xmc_usic.h **** 												 const XMC_USIC_CH_INPUT_COMBINATION_MODE_t combination_mode);
 684:C:/Projekte/Infineon_Dave/eHaJo/FlapFlap/Libraries/XMCLib/inc\xmc_usic.h **** 
 685:C:/Projekte/Infineon_Dave/eHaJo/FlapFlap/Libraries/XMCLib/inc\xmc_usic.h **** /**
 686:C:/Projekte/Infineon_Dave/eHaJo/FlapFlap/Libraries/XMCLib/inc\xmc_usic.h ****  * @param  channel Pointer to USIC channel handler of type @ref XMC_USIC_CH_t \n
 687:C:/Projekte/Infineon_Dave/eHaJo/FlapFlap/Libraries/XMCLib/inc\xmc_usic.h ****  * 				   \b Range: @ref XMC_USIC0_CH0, @ref XMC_USIC0_CH1 to @ref XMC_USIC2_CH1 based on device su
 688:C:/Projekte/Infineon_Dave/eHaJo/FlapFlap/Libraries/XMCLib/inc\xmc_usic.h ****  * @param  input USIC channel input stage of type @ref XMC_USIC_CH_INPUT_t. \n
 689:C:/Projekte/Infineon_Dave/eHaJo/FlapFlap/Libraries/XMCLib/inc\xmc_usic.h ****  * 				 \b Range: @ref XMC_USIC_CH_INPUT_DX0 to @ref XMC_USIC_CH_INPUT_DX5
 690:C:/Projekte/Infineon_Dave/eHaJo/FlapFlap/Libraries/XMCLib/inc\xmc_usic.h ****  * @param  source Input source select for the input stage. The table below maps the enum value with
 691:C:/Projekte/Infineon_Dave/eHaJo/FlapFlap/Libraries/XMCLib/inc\xmc_usic.h ****  * <table><tr><td>0</td><td>DXnA</td></tr><tr><td>1</td><td>DXnB</td></tr><tr><td>2</td><td>DXnC</t
 692:C:/Projekte/Infineon_Dave/eHaJo/FlapFlap/Libraries/XMCLib/inc\xmc_usic.h ****  * <tr><td>4</td><td>DXnE</td></tr><tr><td>5</td><td>DXnF</td></tr><tr><td>6</td><td>DXnG</td></tr>
 693:C:/Projekte/Infineon_Dave/eHaJo/FlapFlap/Libraries/XMCLib/inc\xmc_usic.h ****  * </tr></table>
 694:C:/Projekte/Infineon_Dave/eHaJo/FlapFlap/Libraries/XMCLib/inc\xmc_usic.h ****  * @return None
 695:C:/Projekte/Infineon_Dave/eHaJo/FlapFlap/Libraries/XMCLib/inc\xmc_usic.h ****  *
 696:C:/Projekte/Infineon_Dave/eHaJo/FlapFlap/Libraries/XMCLib/inc\xmc_usic.h ****  * \par<b>Description</b><br>
 697:C:/Projekte/Infineon_Dave/eHaJo/FlapFlap/Libraries/XMCLib/inc\xmc_usic.h ****  * Selects the data source for USIC input stage.\n\n
 698:C:/Projekte/Infineon_Dave/eHaJo/FlapFlap/Libraries/XMCLib/inc\xmc_usic.h ****  * Selects the input data signal source among DXnA, DXnB.. DXnG for the input stage. The API can be
 699:C:/Projekte/Infineon_Dave/eHaJo/FlapFlap/Libraries/XMCLib/inc\xmc_usic.h ****  * like DX0CR, DX1CR etc. 
 700:C:/Projekte/Infineon_Dave/eHaJo/FlapFlap/Libraries/XMCLib/inc\xmc_usic.h ****  *  
 701:C:/Projekte/Infineon_Dave/eHaJo/FlapFlap/Libraries/XMCLib/inc\xmc_usic.h ****  * \par<b>Related APIs:</b><BR>
 702:C:/Projekte/Infineon_Dave/eHaJo/FlapFlap/Libraries/XMCLib/inc\xmc_usic.h ****  * XMC_USIC_CH_EnableInputInversion(), XMC_USIC_CH_EnableInputDigitalFilter(), XMC_USIC_CH_EnableIn
 703:C:/Projekte/Infineon_Dave/eHaJo/FlapFlap/Libraries/XMCLib/inc\xmc_usic.h ****  * XMC_USIC_CH_SetInputSamplingFreq()\n\n\n
 704:C:/Projekte/Infineon_Dave/eHaJo/FlapFlap/Libraries/XMCLib/inc\xmc_usic.h ****  */
 705:C:/Projekte/Infineon_Dave/eHaJo/FlapFlap/Libraries/XMCLib/inc\xmc_usic.h **** __STATIC_INLINE void XMC_USIC_CH_SetInputSource(XMC_USIC_CH_t *const channel, const XMC_USIC_CH_INP
 706:C:/Projekte/Infineon_Dave/eHaJo/FlapFlap/Libraries/XMCLib/inc\xmc_usic.h **** {
 707:C:/Projekte/Infineon_Dave/eHaJo/FlapFlap/Libraries/XMCLib/inc\xmc_usic.h ****   channel->DXCR[input] = (uint32_t)((channel->DXCR[input] & (uint32_t)(~USIC_CH_DXCR_DSEL_Msk)) |
 287              	 .loc 4 707 0
 288 0072 E369     	 ldr r3,[r4,#28]
 289 0074 493A     	 sub r2,r2,#73
 290 0076 9343     	 bic r3,r2
 291 0078 023A     	 sub r2,r2,#2
 292 007a 1343     	 orr r3,r2
 293 007c E361     	 str r3,[r4,#28]
 294              	.LBE41:
 295              	.LBE40:
 296              	.LBE39:
 297              	.LBE38:
 144:../freemodbus-v1.5.0/port/portserial.c **** 	  XMC_UART_CH_SetInputSource(XMC_UART0_CH0,XMC_UART_CH_INPUT_RXD,USIC0_C0_DX0_P2_1);
 145:../freemodbus-v1.5.0/port/portserial.c **** 	  /* Configure TX pin */
 146:../freemodbus-v1.5.0/port/portserial.c **** 	  XMC_GPIO_CONFIG_t tx_pin_config;
 147:../freemodbus-v1.5.0/port/portserial.c **** 	  tx_pin_config.mode = XMC_GPIO_MODE_OUTPUT_PUSH_PULL_ALT6;
 298              	 .loc 1 147 0
 299 007e 03AA     	 add r2,sp,#12
 300 0080 B023     	 mov r3,#176
 301 0082 1370     	 strb r3,[r2]
 148:../freemodbus-v1.5.0/port/portserial.c **** 	  XMC_GPIO_Init(XMC_GPIO_PORT2,0, &tx_pin_config);
 302              	 .loc 1 148 0
 303 0084 281C     	 mov r0,r5
 304 0086 0021     	 mov r1,#0
 305 0088 FFF7FEFF 	 bl XMC_GPIO_Init
 306              	.LVL29:
 307              	.LBB42:
 308              	.LBB43:
 277:C:/Projekte/Infineon_Dave/eHaJo/FlapFlap/Libraries/XMCLib/inc\xmc_uart.h **** }
 309              	 .loc 3 277 0
 310 008c 236C     	 ldr r3,[r4,#64]
 311 008e 0F22     	 mov r2,#15
 312 0090 9343     	 bic r3,r2
 313 0092 0D3A     	 sub r2,r2,#13
 314 0094 1343     	 orr r3,r2
 315 0096 2364     	 str r3,[r4,#64]
 316              	.LBE43:
 317              	.LBE42:
 149:../freemodbus-v1.5.0/port/portserial.c **** 	  /* Start UART channel */
 150:../freemodbus-v1.5.0/port/portserial.c **** 	  XMC_UART_CH_Start(XMC_UART0_CH0);
 151:../freemodbus-v1.5.0/port/portserial.c **** 
 152:../freemodbus-v1.5.0/port/portserial.c **** 	  XMC_UART_CH_EnableEvent(XMC_UART0_CH0,(XMC_UART_CH_EVENT_STANDARD_RECEIVE | XMC_UART_CH_EVENT_AL
 318              	 .loc 1 152 0
 319 0098 201C     	 mov r0,r4
 320 009a F121     	 mov r1,#241
 321 009c 0902     	 lsl r1,r1,#8
 322 009e FFF7FEFF 	 bl XMC_UART_CH_EnableEvent
 323              	.LVL30:
 153:../freemodbus-v1.5.0/port/portserial.c **** 
 154:../freemodbus-v1.5.0/port/portserial.c **** 	  return_value=true;
 324              	 .loc 1 154 0
 325 00a2 0120     	 mov r0,#1
 326 00a4 00E0     	 b .L13
 327              	.LVL31:
 328              	.L19:
 329              	.LBE37:
 105:../freemodbus-v1.5.0/port/portserial.c **** 
 330              	 .loc 1 105 0
 331 00a6 0020     	 mov r0,#0
 332              	.LVL32:
 333              	.L13:
 155:../freemodbus-v1.5.0/port/portserial.c ****   }
 156:../freemodbus-v1.5.0/port/portserial.c **** 
 157:../freemodbus-v1.5.0/port/portserial.c ****   return return_value;
 158:../freemodbus-v1.5.0/port/portserial.c **** }
 334              	 .loc 1 158 0
 335 00a8 09B0     	 add sp,sp,#36
 336              	 
 337 00aa 30BD     	 pop {r4,r5,pc}
 338              	.L22:
 339              	 .align 2
 340              	.L21:
 341 00ac 00000000 	 .word .LANCHOR0
 342 00b0 00020440 	 .word 1074004480
 343              	 .cfi_endproc
 344              	.LFE497:
 346              	 .section .text.xMBPortSerialPutByte,"ax",%progbits
 347              	 .align 2
 348              	 .global xMBPortSerialPutByte
 349              	 .code 16
 350              	 .thumb_func
 352              	xMBPortSerialPutByte:
 353              	.LFB498:
 159:../freemodbus-v1.5.0/port/portserial.c **** 
 160:../freemodbus-v1.5.0/port/portserial.c **** BOOL
 161:../freemodbus-v1.5.0/port/portserial.c **** xMBPortSerialPutByte( CHAR ucByte )
 162:../freemodbus-v1.5.0/port/portserial.c **** {
 354              	 .loc 1 162 0
 355              	 .cfi_startproc
 356              	.LVL33:
 357 0000 08B5     	 push {r3,lr}
 358              	.LCFI3:
 359              	 .cfi_def_cfa_offset 8
 360              	 .cfi_offset 3,-8
 361              	 .cfi_offset 14,-4
 362 0002 011C     	 mov r1,r0
 363              	.LVL34:
 163:../freemodbus-v1.5.0/port/portserial.c ****   BOOL return_value=false;
 164:../freemodbus-v1.5.0/port/portserial.c **** 
 165:../freemodbus-v1.5.0/port/portserial.c ****   if (ptr_uart != 0)
 364              	 .loc 1 165 0
 365 0004 054B     	 ldr r3,.L26
 366 0006 1868     	 ldr r0,[r3]
 367              	.LVL35:
 368 0008 0028     	 cmp r0,#0
 369 000a 04D0     	 beq .L25
 166:../freemodbus-v1.5.0/port/portserial.c ****   {
 167:../freemodbus-v1.5.0/port/portserial.c **** 	  XMC_UART_CH_Transmit(ptr_uart,(uint8_t)ucByte);
 370              	 .loc 1 167 0
 371 000c C9B2     	 uxtb r1,r1
 372 000e FFF7FEFF 	 bl XMC_UART_CH_Transmit
 373              	.LVL36:
 168:../freemodbus-v1.5.0/port/portserial.c **** 	  //UART_TransmitWord(ptr_uart,(uint8_t)ucByte);
 169:../freemodbus-v1.5.0/port/portserial.c ****     return_value=true;
 374              	 .loc 1 169 0
 375 0012 0120     	 mov r0,#1
 376 0014 00E0     	 b .L24
 377              	.LVL37:
 378              	.L25:
 163:../freemodbus-v1.5.0/port/portserial.c **** 
 379              	 .loc 1 163 0
 380 0016 0020     	 mov r0,#0
 381              	.LVL38:
 382              	.L24:
 170:../freemodbus-v1.5.0/port/portserial.c ****   }
 171:../freemodbus-v1.5.0/port/portserial.c **** 
 172:../freemodbus-v1.5.0/port/portserial.c ****   return return_value;
 173:../freemodbus-v1.5.0/port/portserial.c **** }
 383              	 .loc 1 173 0
 384              	 
 385 0018 08BD     	 pop {r3,pc}
 386              	.L27:
 387 001a C046     	 .align 2
 388              	.L26:
 389 001c 00000000 	 .word .LANCHOR0
 390              	 .cfi_endproc
 391              	.LFE498:
 393              	 .section .text.xMBPortSerialGetByte,"ax",%progbits
 394              	 .align 2
 395              	 .global xMBPortSerialGetByte
 396              	 .code 16
 397              	 .thumb_func
 399              	xMBPortSerialGetByte:
 400              	.LFB499:
 174:../freemodbus-v1.5.0/port/portserial.c **** BOOL
 175:../freemodbus-v1.5.0/port/portserial.c **** xMBPortSerialGetByte( CHAR * pucByte )
 176:../freemodbus-v1.5.0/port/portserial.c **** {
 401              	 .loc 1 176 0
 402              	 .cfi_startproc
 403              	.LVL39:
 404 0000 10B5     	 push {r4,lr}
 405              	.LCFI4:
 406              	 .cfi_def_cfa_offset 8
 407              	 .cfi_offset 4,-8
 408              	 .cfi_offset 14,-4
 409              	.LVL40:
 177:../freemodbus-v1.5.0/port/portserial.c ****   BOOL return_value=false;
 178:../freemodbus-v1.5.0/port/portserial.c **** 
 179:../freemodbus-v1.5.0/port/portserial.c ****   if (ptr_uart != 0)
 410              	 .loc 1 179 0
 411 0002 084B     	 ldr r3,.L31
 412 0004 1B68     	 ldr r3,[r3]
 413 0006 002B     	 cmp r3,#0
 414 0008 0AD0     	 beq .L30
 415 000a 041C     	 mov r4,r0
 416              	.LVL41:
 417              	.LBB44:
 418              	.LBB45:
 558:C:/Projekte/Infineon_Dave/eHaJo/FlapFlap/Libraries/XMCLib/inc\xmc_uart.h **** }
 419              	 .loc 3 558 0
 420 000c 9020     	 mov r0,#144
 421              	.LVL42:
 422 000e C005     	 lsl r0,r0,#23
 423 0010 C023     	 mov r3,#192
 424 0012 1B02     	 lsl r3,r3,#8
 425 0014 C364     	 str r3,[r0,#76]
 426              	.LBE45:
 427              	.LBE44:
 180:../freemodbus-v1.5.0/port/portserial.c ****   {
 181:../freemodbus-v1.5.0/port/portserial.c **** 	  XMC_UART_CH_ClearStatusFlag(XMC_UART0_CH0, (XMC_UART_CH_STATUS_FLAG_ALTERNATIVE_RECEIVE_INDICATI
 182:../freemodbus-v1.5.0/port/portserial.c **** 	                                     XMC_UART_CH_STATUS_FLAG_RECEIVE_INDICATION));
 183:../freemodbus-v1.5.0/port/portserial.c **** 	  *pucByte=(int8_t)XMC_UART_CH_GetReceivedData(XMC_UART0_CH0);
 428              	 .loc 1 183 0
 429 0016 FFF7FEFF 	 bl XMC_UART_CH_GetReceivedData
 430              	.LVL43:
 431 001a 2070     	 strb r0,[r4]
 432              	.LVL44:
 184:../freemodbus-v1.5.0/port/portserial.c ****       return_value=true;
 433              	 .loc 1 184 0
 434 001c 0120     	 mov r0,#1
 435 001e 00E0     	 b .L29
 436              	.LVL45:
 437              	.L30:
 177:../freemodbus-v1.5.0/port/portserial.c **** 
 438              	 .loc 1 177 0
 439 0020 0020     	 mov r0,#0
 440              	.LVL46:
 441              	.L29:
 185:../freemodbus-v1.5.0/port/portserial.c ****   }
 186:../freemodbus-v1.5.0/port/portserial.c **** 
 187:../freemodbus-v1.5.0/port/portserial.c ****   return return_value;
 188:../freemodbus-v1.5.0/port/portserial.c **** }
 442              	 .loc 1 188 0
 443              	 
 444 0022 10BD     	 pop {r4,pc}
 445              	.L32:
 446              	 .align 2
 447              	.L31:
 448 0024 00000000 	 .word .LANCHOR0
 449              	 .cfi_endproc
 450              	.LFE499:
 452              	 .section .text.MB_RxHandler,"ax",%progbits
 453              	 .align 2
 454              	 .global MB_RxHandler
 455              	 .code 16
 456              	 .thumb_func
 458              	MB_RxHandler:
 459              	.LFB500:
 189:../freemodbus-v1.5.0/port/portserial.c **** 
 190:../freemodbus-v1.5.0/port/portserial.c **** void MB_RxHandler(void)
 191:../freemodbus-v1.5.0/port/portserial.c **** {
 460              	 .loc 1 191 0
 461              	 .cfi_startproc
 462 0000 08B5     	 push {r3,lr}
 463              	.LCFI5:
 464              	 .cfi_def_cfa_offset 8
 465              	 .cfi_offset 3,-8
 466              	 .cfi_offset 14,-4
 192:../freemodbus-v1.5.0/port/portserial.c ****   (void)pxMBFrameCBByteReceived();
 467              	 .loc 1 192 0
 468 0002 024B     	 ldr r3,.L34
 469 0004 1B68     	 ldr r3,[r3]
 470 0006 9847     	 blx r3
 471              	.LVL47:
 193:../freemodbus-v1.5.0/port/portserial.c **** }
 472              	 .loc 1 193 0
 473              	 
 474 0008 08BD     	 pop {r3,pc}
 475              	.L35:
 476 000a C046     	 .align 2
 477              	.L34:
 478 000c 00000000 	 .word pxMBFrameCBByteReceived
 479              	 .cfi_endproc
 480              	.LFE500:
 482              	 .section .text.MB_TxHandler,"ax",%progbits
 483              	 .align 2
 484              	 .global MB_TxHandler
 485              	 .code 16
 486              	 .thumb_func
 488              	MB_TxHandler:
 489              	.LFB501:
 194:../freemodbus-v1.5.0/port/portserial.c **** void MB_TxHandler(void)
 195:../freemodbus-v1.5.0/port/portserial.c **** {
 490              	 .loc 1 195 0
 491              	 .cfi_startproc
 492 0000 08B5     	 push {r3,lr}
 493              	.LCFI6:
 494              	 .cfi_def_cfa_offset 8
 495              	 .cfi_offset 3,-8
 496              	 .cfi_offset 14,-4
 196:../freemodbus-v1.5.0/port/portserial.c ****   (void)pxMBFrameCBTransmitterEmpty();
 497              	 .loc 1 196 0
 498 0002 024B     	 ldr r3,.L37
 499 0004 1B68     	 ldr r3,[r3]
 500 0006 9847     	 blx r3
 501              	.LVL48:
 197:../freemodbus-v1.5.0/port/portserial.c **** }
 502              	 .loc 1 197 0
 503              	 
 504 0008 08BD     	 pop {r3,pc}
 505              	.L38:
 506 000a C046     	 .align 2
 507              	.L37:
 508 000c 00000000 	 .word pxMBFrameCBTransmitterEmpty
 509              	 .cfi_endproc
 510              	.LFE501:
 512              	 .section .bss.ptr_uart,"aw",%nobits
 513              	 .align 2
 514              	 .set .LANCHOR0,.+0
 517              	ptr_uart:
 518 0000 00000000 	 .space 4
 519              	 .text
 520              	.Letext0:
 521              	 .file 5 "c:\\davev4-64bit\\dave-4.3.2\\eclipse\\arm-gcc-49\\arm-none-eabi\\include\\machine\\_default_types.h"
 522              	 .file 6 "c:\\davev4-64bit\\dave-4.3.2\\eclipse\\arm-gcc-49\\arm-none-eabi\\include\\stdint.h"
 523              	 .file 7 "C:/Projekte/Infineon_Dave/eHaJo/FlapFlap/Libraries/XMCLib/inc/xmc1_gpio.h"
 524              	 .file 8 "../freemodbus-v1.5.0/port/port.h"
 525              	 .file 9 "C:/Projekte/Infineon_Dave/eHaJo/FlapFlap/freemodbus-v1.5.0/modbus/include/mbport.h"