   1              	 .cpu cortex-m0
   2              	 .fpu softvfp
   3              	 .eabi_attribute 20,1
   4              	 .eabi_attribute 21,1
   5              	 .eabi_attribute 23,3
   6              	 .eabi_attribute 24,1
   7              	 .eabi_attribute 25,1
   8              	 .eabi_attribute 26,1
   9              	 .eabi_attribute 30,1
  10              	 .eabi_attribute 34,0
  11              	 .eabi_attribute 18,4
  12              	 .code 16
  13              	 .file "xmc_ccu4.c"
  14              	 .text
  15              	.Ltext0:
  16              	 .cfi_sections .debug_frame
  17              	 .section .text.XMC_CCU4_EnableModule,"ax",%progbits
  18              	 .align 2
  19              	 .global XMC_CCU4_EnableModule
  20              	 .code 16
  21              	 .thumb_func
  23              	XMC_CCU4_EnableModule:
  24              	.LFB93:
  25              	 .file 1 "../Libraries/XMCLib/src/xmc_ccu4.c"
   1:../Libraries/XMCLib/src/xmc_ccu4.c **** /**
   2:../Libraries/XMCLib/src/xmc_ccu4.c ****  * @file xmc_ccu4.c
   3:../Libraries/XMCLib/src/xmc_ccu4.c ****  * @date 2017-04-27
   4:../Libraries/XMCLib/src/xmc_ccu4.c ****  *
   5:../Libraries/XMCLib/src/xmc_ccu4.c ****  * @cond
   6:../Libraries/XMCLib/src/xmc_ccu4.c ****  **************************************************************************************************
   7:../Libraries/XMCLib/src/xmc_ccu4.c ****  * XMClib v2.1.16 - XMC Peripheral Driver Library 
   8:../Libraries/XMCLib/src/xmc_ccu4.c ****  *
   9:../Libraries/XMCLib/src/xmc_ccu4.c ****  * Copyright (c) 2015-2017, Infineon Technologies AG
  10:../Libraries/XMCLib/src/xmc_ccu4.c ****  * All rights reserved.                        
  11:../Libraries/XMCLib/src/xmc_ccu4.c ****  *                                             
  12:../Libraries/XMCLib/src/xmc_ccu4.c ****  * Redistribution and use in source and binary forms, with or without modification,are permitted pr
  13:../Libraries/XMCLib/src/xmc_ccu4.c ****  * following conditions are met:   
  14:../Libraries/XMCLib/src/xmc_ccu4.c ****  *                                                                              
  15:../Libraries/XMCLib/src/xmc_ccu4.c ****  * Redistributions of source code must retain the above copyright notice, this list of conditions a
  16:../Libraries/XMCLib/src/xmc_ccu4.c ****  * disclaimer.                        
  17:../Libraries/XMCLib/src/xmc_ccu4.c ****  * 
  18:../Libraries/XMCLib/src/xmc_ccu4.c ****  * Redistributions in binary form must reproduce the above copyright notice, this list of condition
  19:../Libraries/XMCLib/src/xmc_ccu4.c ****  * disclaimer in the documentation and/or other materials provided with the distribution.          
  20:../Libraries/XMCLib/src/xmc_ccu4.c ****  * 
  21:../Libraries/XMCLib/src/xmc_ccu4.c ****  * Neither the name of the copyright holders nor the names of its contributors may be used to endor
  22:../Libraries/XMCLib/src/xmc_ccu4.c ****  * products derived from this software without specific prior written permission.                  
  23:../Libraries/XMCLib/src/xmc_ccu4.c ****  *                                                                              
  24:../Libraries/XMCLib/src/xmc_ccu4.c ****  * THIS SOFTWARE IS PROVIDED BY THE COPYRIGHT HOLDERS AND CONTRIBUTORS "AS IS" AND ANY EXPRESS OR I
  25:../Libraries/XMCLib/src/xmc_ccu4.c ****  * INCLUDING, BUT NOT LIMITED TO, THE IMPLIED WARRANTIES OF MERCHANTABILITY AND FITNESS FOR A PARTI
  26:../Libraries/XMCLib/src/xmc_ccu4.c ****  * DISCLAIMED. IN NO EVENT SHALL THE COPYRIGHT HOLDER OR CONTRIBUTORS BE LIABLE  FOR ANY DIRECT, IN
  27:../Libraries/XMCLib/src/xmc_ccu4.c ****  * SPECIAL, EXEMPLARY, OR CONSEQUENTIAL DAMAGES (INCLUDING, BUT NOT LIMITED TO, PROCUREMENT OF SUBS
  28:../Libraries/XMCLib/src/xmc_ccu4.c ****  * SERVICES; LOSS OF USE, DATA, OR PROFITS; OR BUSINESS INTERRUPTION) HOWEVER CAUSED AND ON ANY THE
  29:../Libraries/XMCLib/src/xmc_ccu4.c ****  * WHETHER IN CONTRACT, STRICT LIABILITY,OR TORT (INCLUDING NEGLIGENCE OR OTHERWISE) ARISING IN ANY
  30:../Libraries/XMCLib/src/xmc_ccu4.c ****  * OF THIS SOFTWARE, EVEN IF ADVISED OF THE POSSIBILITY OF SUCH DAMAGE.                            
  31:../Libraries/XMCLib/src/xmc_ccu4.c ****  *                                                                              
  32:../Libraries/XMCLib/src/xmc_ccu4.c ****  * To improve the quality of the software, users are encouraged to share modifications, enhancement
  33:../Libraries/XMCLib/src/xmc_ccu4.c ****  * Infineon Technologies AG dave@infineon.com).                                                    
  34:../Libraries/XMCLib/src/xmc_ccu4.c ****  **************************************************************************************************
  35:../Libraries/XMCLib/src/xmc_ccu4.c ****  *
  36:../Libraries/XMCLib/src/xmc_ccu4.c ****  * Change History
  37:../Libraries/XMCLib/src/xmc_ccu4.c ****  * --------------
  38:../Libraries/XMCLib/src/xmc_ccu4.c ****  *
  39:../Libraries/XMCLib/src/xmc_ccu4.c ****  * 2015-02-20:
  40:../Libraries/XMCLib/src/xmc_ccu4.c ****  *     - Initial <br>
  41:../Libraries/XMCLib/src/xmc_ccu4.c ****  *
  42:../Libraries/XMCLib/src/xmc_ccu4.c ****  * 2015-06-20:
  43:../Libraries/XMCLib/src/xmc_ccu4.c ****  *     - Removed definition of GetDriverVersion API <br>
  44:../Libraries/XMCLib/src/xmc_ccu4.c ****  *
  45:../Libraries/XMCLib/src/xmc_ccu4.c ****  * 2015-07-01:
  46:../Libraries/XMCLib/src/xmc_ccu4.c ****  *     - In XMC_CCU4_SLICE_StartConfig(), Options in XMC_ASSERT check for start mode is corrected. 
  47:../Libraries/XMCLib/src/xmc_ccu4.c ****  *
  48:../Libraries/XMCLib/src/xmc_ccu4.c ****  * 2015-07-24:
  49:../Libraries/XMCLib/src/xmc_ccu4.c ****  *     - XMC_CCU4_SLICE_ConfigureStatusBitOverrideEvent() is updated to support XMC14 device. <br>
  50:../Libraries/XMCLib/src/xmc_ccu4.c ****  *
  51:../Libraries/XMCLib/src/xmc_ccu4.c ****  * 2015-08-17:
  52:../Libraries/XMCLib/src/xmc_ccu4.c ****  *     - Start of prescaler XMC_CCU4_StartPrescaler() is invoked in XMC_CCU4_Init() API. <br>
  53:../Libraries/XMCLib/src/xmc_ccu4.c ****  *     - Bug fix XMC_CCU4_SLICE_ConfigureEvent() during the level setting for XMC14 devices. <br>
  54:../Libraries/XMCLib/src/xmc_ccu4.c ****  *     - XMC_CCU4_EnableShadowTransfer() definition is removed, since the API is made as inline. <b
  55:../Libraries/XMCLib/src/xmc_ccu4.c ****  *
  56:../Libraries/XMCLib/src/xmc_ccu4.c ****  * 2015-10-07:
  57:../Libraries/XMCLib/src/xmc_ccu4.c ****  *     - XMC_CCU4_SLICE_GetEvent() is made as inline.
  58:../Libraries/XMCLib/src/xmc_ccu4.c ****  *     - DOC updates for the newly added APIs.
  59:../Libraries/XMCLib/src/xmc_ccu4.c ****  *
  60:../Libraries/XMCLib/src/xmc_ccu4.c ****  * 2017-02-25:
  61:../Libraries/XMCLib/src/xmc_ccu4.c ****  *     - XMC_CCU4_lAssertReset(), XMC_CCU4_lDeassertReset(), XMC_CCU4_lGateClock() and XMC_CCU4_lUn
  62:../Libraries/XMCLib/src/xmc_ccu4.c ****  *
  63:../Libraries/XMCLib/src/xmc_ccu4.c ****  * 2017-04-27:
  64:../Libraries/XMCLib/src/xmc_ccu4.c ****  *     - XMC_CCU4_SLICE_SetPrescaler() changed div_val parameter to type XMC_CCU4_SLICE_PRESCALER_t
  65:../Libraries/XMCLib/src/xmc_ccu4.c ****  *
  66:../Libraries/XMCLib/src/xmc_ccu4.c ****  * @endcond
  67:../Libraries/XMCLib/src/xmc_ccu4.c ****  */
  68:../Libraries/XMCLib/src/xmc_ccu4.c ****  
  69:../Libraries/XMCLib/src/xmc_ccu4.c **** /**************************************************************************************************
  70:../Libraries/XMCLib/src/xmc_ccu4.c ****  * HEADER FILES
  71:../Libraries/XMCLib/src/xmc_ccu4.c ****  **************************************************************************************************
  72:../Libraries/XMCLib/src/xmc_ccu4.c **** #include "xmc_ccu4.h"
  73:../Libraries/XMCLib/src/xmc_ccu4.c **** 
  74:../Libraries/XMCLib/src/xmc_ccu4.c **** #if defined(CCU40)
  75:../Libraries/XMCLib/src/xmc_ccu4.c **** #include "xmc_scu.h"
  76:../Libraries/XMCLib/src/xmc_ccu4.c **** /**************************************************************************************************
  77:../Libraries/XMCLib/src/xmc_ccu4.c ****  * MACROS
  78:../Libraries/XMCLib/src/xmc_ccu4.c ****  **************************************************************************************************
  79:../Libraries/XMCLib/src/xmc_ccu4.c **** #define XMC_CCU4_NUM_SLICES_PER_MODULE          (4U)
  80:../Libraries/XMCLib/src/xmc_ccu4.c **** #define XMC_CCU4_SLICE_DITHER_PERIOD_MASK       (1U)
  81:../Libraries/XMCLib/src/xmc_ccu4.c **** #define XMC_CCU4_SLICE_DITHER_DUTYCYCLE_MASK    (2U)
  82:../Libraries/XMCLib/src/xmc_ccu4.c **** #define XMC_CCU4_SLICE_EVENT_EDGE_CONFIG_MASK   (3U)
  83:../Libraries/XMCLib/src/xmc_ccu4.c **** #define XMC_CCU4_SLICE_EVENT_LEVEL_CONFIG_MASK  (1U)
  84:../Libraries/XMCLib/src/xmc_ccu4.c **** #define XMC_CCU4_SLICE_EVENT_FILTER_CONFIG_MASK (3U)
  85:../Libraries/XMCLib/src/xmc_ccu4.c **** #if defined(CCU4V3) /* Defined for XMC1400 devices only */
  86:../Libraries/XMCLib/src/xmc_ccu4.c **** #define XMC_CCU4_SLICE_EVENT_INPUT_CONFIG_MASK  CCU4_CC4_INS1_EV0IS_Msk
  87:../Libraries/XMCLib/src/xmc_ccu4.c **** #else
  88:../Libraries/XMCLib/src/xmc_ccu4.c **** #define XMC_CCU4_SLICE_EVENT_INPUT_CONFIG_MASK  CCU4_CC4_INS_EV0IS_Msk
  89:../Libraries/XMCLib/src/xmc_ccu4.c **** #endif
  90:../Libraries/XMCLib/src/xmc_ccu4.c **** #define XMC_CCU4_GIDLC_CLOCK_MASK               (15U)
  91:../Libraries/XMCLib/src/xmc_ccu4.c **** #define XMC_CCU4_GCSS_SLICE0_MASK               (1U)
  92:../Libraries/XMCLib/src/xmc_ccu4.c **** #define XMC_CCU4_GCSS_SLICE1_MASK               (16U)
  93:../Libraries/XMCLib/src/xmc_ccu4.c **** #define XMC_CCU4_GCSS_SLICE2_MASK               (256U)
  94:../Libraries/XMCLib/src/xmc_ccu4.c **** #define XMC_CCU4_GCSS_SLICE3_MASK               (4096U)
  95:../Libraries/XMCLib/src/xmc_ccu4.c **** 
  96:../Libraries/XMCLib/src/xmc_ccu4.c **** /** Macro to check if the clock selected enum passed is valid */
  97:../Libraries/XMCLib/src/xmc_ccu4.c **** #define XMC_CCU4_SLICE_CHECK_CLOCK(clock) \
  98:../Libraries/XMCLib/src/xmc_ccu4.c ****     ((clock == XMC_CCU4_CLOCK_SCU)        || \
  99:../Libraries/XMCLib/src/xmc_ccu4.c ****      (clock == XMC_CCU4_CLOCK_EXTERNAL_A) || \
 100:../Libraries/XMCLib/src/xmc_ccu4.c ****      (clock == XMC_CCU4_CLOCK_EXTERNAL_B) || \
 101:../Libraries/XMCLib/src/xmc_ccu4.c ****      (clock == XMC_CCU4_CLOCK_EXTERNAL_C))
 102:../Libraries/XMCLib/src/xmc_ccu4.c **** 
 103:../Libraries/XMCLib/src/xmc_ccu4.c **** /** Macro used to check if the event ID is valid*/
 104:../Libraries/XMCLib/src/xmc_ccu4.c **** #define XMC_CCU4_SLICE_CHECK_EVENT_ID(event_id) \
 105:../Libraries/XMCLib/src/xmc_ccu4.c ****     ((event_id == XMC_CCU4_SLICE_EVENT_NONE)|| \
 106:../Libraries/XMCLib/src/xmc_ccu4.c ****      (event_id == XMC_CCU4_SLICE_EVENT_0)   || \
 107:../Libraries/XMCLib/src/xmc_ccu4.c ****      (event_id == XMC_CCU4_SLICE_EVENT_1)   || \
 108:../Libraries/XMCLib/src/xmc_ccu4.c ****      (event_id == XMC_CCU4_SLICE_EVENT_2))
 109:../Libraries/XMCLib/src/xmc_ccu4.c **** 
 110:../Libraries/XMCLib/src/xmc_ccu4.c **** /** Macro used to check if the edge sensitivity is valid*/
 111:../Libraries/XMCLib/src/xmc_ccu4.c **** #define XMC_CCU4_SLICE_CHECK_EDGE_SENSITIVITY(edge) \
 112:../Libraries/XMCLib/src/xmc_ccu4.c ****     ((edge == XMC_CCU4_SLICE_EVENT_EDGE_SENSITIVITY_NONE)        || \
 113:../Libraries/XMCLib/src/xmc_ccu4.c ****      (edge == XMC_CCU4_SLICE_EVENT_EDGE_SENSITIVITY_RISING_EDGE) || \
 114:../Libraries/XMCLib/src/xmc_ccu4.c ****      (edge == XMC_CCU4_SLICE_EVENT_EDGE_SENSITIVITY_FALLING_EDGE)|| \
 115:../Libraries/XMCLib/src/xmc_ccu4.c ****      (edge == XMC_CCU4_SLICE_EVENT_EDGE_SENSITIVITY_DUAL_EDGE))
 116:../Libraries/XMCLib/src/xmc_ccu4.c **** 
 117:../Libraries/XMCLib/src/xmc_ccu4.c **** /** Macro used to check if the filter clock cycles are valid */
 118:../Libraries/XMCLib/src/xmc_ccu4.c **** #define XMC_CCU4_SLICE_CHECK_EVENT_FILTER(cycles) \
 119:../Libraries/XMCLib/src/xmc_ccu4.c ****     ((cycles == XMC_CCU4_SLICE_EVENT_FILTER_DISABLED) || \
 120:../Libraries/XMCLib/src/xmc_ccu4.c ****      (cycles == XMC_CCU4_SLICE_EVENT_FILTER_3_CYCLES) || \
 121:../Libraries/XMCLib/src/xmc_ccu4.c ****      (cycles == XMC_CCU4_SLICE_EVENT_FILTER_5_CYCLES) || \
 122:../Libraries/XMCLib/src/xmc_ccu4.c ****      (cycles == XMC_CCU4_SLICE_EVENT_FILTER_7_CYCLES))
 123:../Libraries/XMCLib/src/xmc_ccu4.c **** 
 124:../Libraries/XMCLib/src/xmc_ccu4.c **** /** Macro used to check if the Multi-channel input related action is valid*/
 125:../Libraries/XMCLib/src/xmc_ccu4.c **** #define XMC_CCU4_SLICE_CHECK_MCS_ACTION(mcs_action) \
 126:../Libraries/XMCLib/src/xmc_ccu4.c ****     ((mcs_action == XMC_CCU4_SLICE_MCMS_ACTION_TRANSFER_PR_CR)      || \
 127:../Libraries/XMCLib/src/xmc_ccu4.c ****      (mcs_action == XMC_CCU4_SLICE_MCMS_ACTION_TRANSFER_PR_CR_PCMP) || \
 128:../Libraries/XMCLib/src/xmc_ccu4.c ****      (mcs_action == XMC_CCU4_SLICE_MCMS_ACTION_TRANSFER_PR_CR_PCMP_DIT))
 129:../Libraries/XMCLib/src/xmc_ccu4.c **** 
 130:../Libraries/XMCLib/src/xmc_ccu4.c **** /** Macro used to check if the SR line is valid*/
 131:../Libraries/XMCLib/src/xmc_ccu4.c **** #define XMC_CCU4_SLICE_CHECK_SR_ID(id) \
 132:../Libraries/XMCLib/src/xmc_ccu4.c ****     ((id == XMC_CCU4_SLICE_SR_ID_0) || \
 133:../Libraries/XMCLib/src/xmc_ccu4.c ****      (id == XMC_CCU4_SLICE_SR_ID_1) || \
 134:../Libraries/XMCLib/src/xmc_ccu4.c ****      (id == XMC_CCU4_SLICE_SR_ID_2) || \
 135:../Libraries/XMCLib/src/xmc_ccu4.c ****      (id == XMC_CCU4_SLICE_SR_ID_3))
 136:../Libraries/XMCLib/src/xmc_ccu4.c **** 
 137:../Libraries/XMCLib/src/xmc_ccu4.c **** /** Macro to check if the end mode enum passed is valid */
 138:../Libraries/XMCLib/src/xmc_ccu4.c **** #define XMC_CCU4_CHECK_END_MODE(end_mode) \
 139:../Libraries/XMCLib/src/xmc_ccu4.c ****     ((end_mode == XMC_CCU4_SLICE_END_MODE_TIMER_STOP) || \
 140:../Libraries/XMCLib/src/xmc_ccu4.c ****      (end_mode == XMC_CCU4_SLICE_END_MODE_TIMER_CLEAR) || \
 141:../Libraries/XMCLib/src/xmc_ccu4.c ****      (end_mode == XMC_CCU4_SLICE_END_MODE_TIMER_STOP_CLEAR))
 142:../Libraries/XMCLib/src/xmc_ccu4.c **** 
 143:../Libraries/XMCLib/src/xmc_ccu4.c **** /**************************************************************************************************
 144:../Libraries/XMCLib/src/xmc_ccu4.c ****  * LOCAL ROUTINES
 145:../Libraries/XMCLib/src/xmc_ccu4.c ****  **************************************************************************************************
 146:../Libraries/XMCLib/src/xmc_ccu4.c **** #if defined(PERIPHERAL_RESET_SUPPORTED)
 147:../Libraries/XMCLib/src/xmc_ccu4.c **** __STATIC_INLINE void XMC_CCU4_lAssertReset(const XMC_CCU4_MODULE_t *const module)
 148:../Libraries/XMCLib/src/xmc_ccu4.c **** {
 149:../Libraries/XMCLib/src/xmc_ccu4.c ****   if (module == CCU40)
 150:../Libraries/XMCLib/src/xmc_ccu4.c ****   {
 151:../Libraries/XMCLib/src/xmc_ccu4.c ****     XMC_SCU_RESET_AssertPeripheralReset(XMC_SCU_PERIPHERAL_RESET_CCU40);
 152:../Libraries/XMCLib/src/xmc_ccu4.c ****   }
 153:../Libraries/XMCLib/src/xmc_ccu4.c **** #if defined(CCU41)
 154:../Libraries/XMCLib/src/xmc_ccu4.c ****   else if (module == CCU41)
 155:../Libraries/XMCLib/src/xmc_ccu4.c ****   {
 156:../Libraries/XMCLib/src/xmc_ccu4.c ****     XMC_SCU_RESET_AssertPeripheralReset(XMC_SCU_PERIPHERAL_RESET_CCU41);
 157:../Libraries/XMCLib/src/xmc_ccu4.c ****   }
 158:../Libraries/XMCLib/src/xmc_ccu4.c **** #endif
 159:../Libraries/XMCLib/src/xmc_ccu4.c **** #if defined(CCU42)
 160:../Libraries/XMCLib/src/xmc_ccu4.c ****   else if (module == CCU42)
 161:../Libraries/XMCLib/src/xmc_ccu4.c ****   {
 162:../Libraries/XMCLib/src/xmc_ccu4.c ****     XMC_SCU_RESET_AssertPeripheralReset(XMC_SCU_PERIPHERAL_RESET_CCU42);
 163:../Libraries/XMCLib/src/xmc_ccu4.c ****   }
 164:../Libraries/XMCLib/src/xmc_ccu4.c **** #endif
 165:../Libraries/XMCLib/src/xmc_ccu4.c **** #if defined(CCU43)
 166:../Libraries/XMCLib/src/xmc_ccu4.c ****   else if (module == CCU43)
 167:../Libraries/XMCLib/src/xmc_ccu4.c ****   {
 168:../Libraries/XMCLib/src/xmc_ccu4.c ****     XMC_SCU_RESET_AssertPeripheralReset(XMC_SCU_PERIPHERAL_RESET_CCU43);
 169:../Libraries/XMCLib/src/xmc_ccu4.c ****   }
 170:../Libraries/XMCLib/src/xmc_ccu4.c **** #endif
 171:../Libraries/XMCLib/src/xmc_ccu4.c ****   else
 172:../Libraries/XMCLib/src/xmc_ccu4.c ****   {
 173:../Libraries/XMCLib/src/xmc_ccu4.c ****     XMC_ASSERT("XMC_CCU4_lAssertReset:Invalid Module Pointer", 0);
 174:../Libraries/XMCLib/src/xmc_ccu4.c ****   }
 175:../Libraries/XMCLib/src/xmc_ccu4.c **** }
 176:../Libraries/XMCLib/src/xmc_ccu4.c **** 
 177:../Libraries/XMCLib/src/xmc_ccu4.c **** __STATIC_INLINE void XMC_CCU4_lDeassertReset(const XMC_CCU4_MODULE_t *const module)
 178:../Libraries/XMCLib/src/xmc_ccu4.c **** {
 179:../Libraries/XMCLib/src/xmc_ccu4.c ****   if (module == CCU40)
 180:../Libraries/XMCLib/src/xmc_ccu4.c ****   {
 181:../Libraries/XMCLib/src/xmc_ccu4.c ****     XMC_SCU_RESET_DeassertPeripheralReset(XMC_SCU_PERIPHERAL_RESET_CCU40);
 182:../Libraries/XMCLib/src/xmc_ccu4.c ****   }
 183:../Libraries/XMCLib/src/xmc_ccu4.c **** #if defined(CCU41)
 184:../Libraries/XMCLib/src/xmc_ccu4.c ****   else if (module == CCU41)
 185:../Libraries/XMCLib/src/xmc_ccu4.c ****   {
 186:../Libraries/XMCLib/src/xmc_ccu4.c ****     XMC_SCU_RESET_DeassertPeripheralReset(XMC_SCU_PERIPHERAL_RESET_CCU41);
 187:../Libraries/XMCLib/src/xmc_ccu4.c ****   }
 188:../Libraries/XMCLib/src/xmc_ccu4.c **** #endif
 189:../Libraries/XMCLib/src/xmc_ccu4.c **** #if defined(CCU42)
 190:../Libraries/XMCLib/src/xmc_ccu4.c ****   else if (module == CCU42)
 191:../Libraries/XMCLib/src/xmc_ccu4.c ****   {
 192:../Libraries/XMCLib/src/xmc_ccu4.c ****     XMC_SCU_RESET_DeassertPeripheralReset(XMC_SCU_PERIPHERAL_RESET_CCU42);
 193:../Libraries/XMCLib/src/xmc_ccu4.c ****   }
 194:../Libraries/XMCLib/src/xmc_ccu4.c **** #endif
 195:../Libraries/XMCLib/src/xmc_ccu4.c **** #if defined(CCU43)
 196:../Libraries/XMCLib/src/xmc_ccu4.c ****   else if (module == CCU43)
 197:../Libraries/XMCLib/src/xmc_ccu4.c ****   {
 198:../Libraries/XMCLib/src/xmc_ccu4.c ****     XMC_SCU_RESET_DeassertPeripheralReset(XMC_SCU_PERIPHERAL_RESET_CCU43);
 199:../Libraries/XMCLib/src/xmc_ccu4.c ****   }
 200:../Libraries/XMCLib/src/xmc_ccu4.c **** #endif
 201:../Libraries/XMCLib/src/xmc_ccu4.c ****   else
 202:../Libraries/XMCLib/src/xmc_ccu4.c ****   {
 203:../Libraries/XMCLib/src/xmc_ccu4.c ****     XMC_ASSERT("XMC_CCU4_lDeassertReset:Invalid Module Pointer", 0);
 204:../Libraries/XMCLib/src/xmc_ccu4.c ****   }
 205:../Libraries/XMCLib/src/xmc_ccu4.c **** }
 206:../Libraries/XMCLib/src/xmc_ccu4.c **** #endif
 207:../Libraries/XMCLib/src/xmc_ccu4.c **** 
 208:../Libraries/XMCLib/src/xmc_ccu4.c **** #if defined(CLOCK_GATING_SUPPORTED)
 209:../Libraries/XMCLib/src/xmc_ccu4.c **** __STATIC_INLINE void XMC_CCU4_lGateClock(const XMC_CCU4_MODULE_t *const module)
 210:../Libraries/XMCLib/src/xmc_ccu4.c **** {
 211:../Libraries/XMCLib/src/xmc_ccu4.c **** 
 212:../Libraries/XMCLib/src/xmc_ccu4.c ****   if (module == CCU40)
 213:../Libraries/XMCLib/src/xmc_ccu4.c ****   {
 214:../Libraries/XMCLib/src/xmc_ccu4.c ****     XMC_SCU_CLOCK_GatePeripheralClock(XMC_SCU_PERIPHERAL_CLOCK_CCU40);
 215:../Libraries/XMCLib/src/xmc_ccu4.c ****   }
 216:../Libraries/XMCLib/src/xmc_ccu4.c **** #if defined(CCU41)
 217:../Libraries/XMCLib/src/xmc_ccu4.c ****   else if (module == CCU41)
 218:../Libraries/XMCLib/src/xmc_ccu4.c ****   {
 219:../Libraries/XMCLib/src/xmc_ccu4.c ****     XMC_SCU_CLOCK_GatePeripheralClock(XMC_SCU_PERIPHERAL_CLOCK_CCU41);
 220:../Libraries/XMCLib/src/xmc_ccu4.c ****   }
 221:../Libraries/XMCLib/src/xmc_ccu4.c **** #endif
 222:../Libraries/XMCLib/src/xmc_ccu4.c **** #if defined(CCU42)
 223:../Libraries/XMCLib/src/xmc_ccu4.c ****   else if (module == CCU42)
 224:../Libraries/XMCLib/src/xmc_ccu4.c ****   {
 225:../Libraries/XMCLib/src/xmc_ccu4.c ****     XMC_SCU_CLOCK_GatePeripheralClock(XMC_SCU_PERIPHERAL_CLOCK_CCU42);
 226:../Libraries/XMCLib/src/xmc_ccu4.c ****   }
 227:../Libraries/XMCLib/src/xmc_ccu4.c **** #endif
 228:../Libraries/XMCLib/src/xmc_ccu4.c **** #if defined(CCU43)
 229:../Libraries/XMCLib/src/xmc_ccu4.c ****   else if (module == CCU43)
 230:../Libraries/XMCLib/src/xmc_ccu4.c ****   {
 231:../Libraries/XMCLib/src/xmc_ccu4.c ****     XMC_SCU_CLOCK_GatePeripheralClock(XMC_SCU_PERIPHERAL_CLOCK_CCU43);
 232:../Libraries/XMCLib/src/xmc_ccu4.c ****   }
 233:../Libraries/XMCLib/src/xmc_ccu4.c **** #endif
 234:../Libraries/XMCLib/src/xmc_ccu4.c ****   else
 235:../Libraries/XMCLib/src/xmc_ccu4.c ****   {
 236:../Libraries/XMCLib/src/xmc_ccu4.c ****     XMC_ASSERT("XMC_CCU4_lGateClock:Invalid Module Pointer", 0);
 237:../Libraries/XMCLib/src/xmc_ccu4.c ****   }
 238:../Libraries/XMCLib/src/xmc_ccu4.c **** }
 239:../Libraries/XMCLib/src/xmc_ccu4.c **** 
 240:../Libraries/XMCLib/src/xmc_ccu4.c **** __STATIC_INLINE void XMC_CCU4_lUngateClock(const XMC_CCU4_MODULE_t *const module)
 241:../Libraries/XMCLib/src/xmc_ccu4.c **** {
 242:../Libraries/XMCLib/src/xmc_ccu4.c ****   if (module == CCU40)
 243:../Libraries/XMCLib/src/xmc_ccu4.c ****   {
 244:../Libraries/XMCLib/src/xmc_ccu4.c ****     XMC_SCU_CLOCK_UngatePeripheralClock(XMC_SCU_PERIPHERAL_CLOCK_CCU40);
 245:../Libraries/XMCLib/src/xmc_ccu4.c ****   }
 246:../Libraries/XMCLib/src/xmc_ccu4.c **** #if defined(CCU41)
 247:../Libraries/XMCLib/src/xmc_ccu4.c ****   else if (module == CCU41)
 248:../Libraries/XMCLib/src/xmc_ccu4.c ****   {
 249:../Libraries/XMCLib/src/xmc_ccu4.c ****     XMC_SCU_CLOCK_UngatePeripheralClock(XMC_SCU_PERIPHERAL_CLOCK_CCU41);
 250:../Libraries/XMCLib/src/xmc_ccu4.c ****   }
 251:../Libraries/XMCLib/src/xmc_ccu4.c **** #endif
 252:../Libraries/XMCLib/src/xmc_ccu4.c **** #if defined(CCU42)
 253:../Libraries/XMCLib/src/xmc_ccu4.c ****   else if (module == CCU42)
 254:../Libraries/XMCLib/src/xmc_ccu4.c ****   {
 255:../Libraries/XMCLib/src/xmc_ccu4.c ****     XMC_SCU_CLOCK_UngatePeripheralClock(XMC_SCU_PERIPHERAL_CLOCK_CCU42);
 256:../Libraries/XMCLib/src/xmc_ccu4.c ****   }
 257:../Libraries/XMCLib/src/xmc_ccu4.c **** #endif
 258:../Libraries/XMCLib/src/xmc_ccu4.c **** #if defined(CCU43)
 259:../Libraries/XMCLib/src/xmc_ccu4.c ****   else if (module == CCU43)
 260:../Libraries/XMCLib/src/xmc_ccu4.c ****   {
 261:../Libraries/XMCLib/src/xmc_ccu4.c ****     XMC_SCU_CLOCK_UngatePeripheralClock(XMC_SCU_PERIPHERAL_CLOCK_CCU43);
 262:../Libraries/XMCLib/src/xmc_ccu4.c ****   }
 263:../Libraries/XMCLib/src/xmc_ccu4.c **** #endif
 264:../Libraries/XMCLib/src/xmc_ccu4.c ****   else
 265:../Libraries/XMCLib/src/xmc_ccu4.c ****   {
 266:../Libraries/XMCLib/src/xmc_ccu4.c ****     XMC_ASSERT("XMC_CCU4_lUngateClock:Invalid Module Pointer", 0);
 267:../Libraries/XMCLib/src/xmc_ccu4.c ****   }
 268:../Libraries/XMCLib/src/xmc_ccu4.c **** }
 269:../Libraries/XMCLib/src/xmc_ccu4.c **** #endif
 270:../Libraries/XMCLib/src/xmc_ccu4.c **** 
 271:../Libraries/XMCLib/src/xmc_ccu4.c **** #if defined (XMC_ASSERT_ENABLE)
 272:../Libraries/XMCLib/src/xmc_ccu4.c **** __STATIC_INLINE bool XMC_CCU4_SLICE_IsInputvalid(XMC_CCU4_SLICE_INPUT_t input)
 273:../Libraries/XMCLib/src/xmc_ccu4.c **** {
 274:../Libraries/XMCLib/src/xmc_ccu4.c **** #if (UC_SERIES == XMC14)
 275:../Libraries/XMCLib/src/xmc_ccu4.c ****   return (input < 48U);
 276:../Libraries/XMCLib/src/xmc_ccu4.c **** #else
 277:../Libraries/XMCLib/src/xmc_ccu4.c ****   return (input < 16U);
 278:../Libraries/XMCLib/src/xmc_ccu4.c **** #endif
 279:../Libraries/XMCLib/src/xmc_ccu4.c **** }
 280:../Libraries/XMCLib/src/xmc_ccu4.c **** #endif
 281:../Libraries/XMCLib/src/xmc_ccu4.c **** /**************************************************************************************************
 282:../Libraries/XMCLib/src/xmc_ccu4.c ****  * API IMPLEMENTATION
 283:../Libraries/XMCLib/src/xmc_ccu4.c ****  **************************************************************************************************
 284:../Libraries/XMCLib/src/xmc_ccu4.c **** 
 285:../Libraries/XMCLib/src/xmc_ccu4.c **** void XMC_CCU4_EnableModule(XMC_CCU4_MODULE_t *const module)
 286:../Libraries/XMCLib/src/xmc_ccu4.c **** {
  26              	 .loc 1 286 0
  27              	 .cfi_startproc
  28              	.LVL0:
  29 0000 08B5     	 push {r3,lr}
  30              	.LCFI0:
  31              	 .cfi_def_cfa_offset 8
  32              	 .cfi_offset 3,-8
  33              	 .cfi_offset 14,-4
  34              	.LVL1:
  35              	.LBB10:
  36              	.LBB11:
 242:../Libraries/XMCLib/src/xmc_ccu4.c ****   {
  37              	 .loc 1 242 0
  38 0002 034B     	 ldr r3,.L3
  39 0004 9842     	 cmp r0,r3
  40 0006 02D1     	 bne .L1
 244:../Libraries/XMCLib/src/xmc_ccu4.c ****   }
  41              	 .loc 1 244 0
  42 0008 0420     	 mov r0,#4
  43              	.LVL2:
  44 000a FFF7FEFF 	 bl XMC_SCU_CLOCK_UngatePeripheralClock
  45              	.LVL3:
  46              	.L1:
  47              	.LBE11:
  48              	.LBE10:
 287:../Libraries/XMCLib/src/xmc_ccu4.c ****   XMC_ASSERT("XMC_CCU4_EnableModule:Invalid Module Pointer", XMC_CCU4_IsValidModule(module));
 288:../Libraries/XMCLib/src/xmc_ccu4.c **** 
 289:../Libraries/XMCLib/src/xmc_ccu4.c **** #if UC_FAMILY == XMC4
 290:../Libraries/XMCLib/src/xmc_ccu4.c ****   /* Enable CCU4 module clock */
 291:../Libraries/XMCLib/src/xmc_ccu4.c ****   XMC_SCU_CLOCK_EnableClock(XMC_SCU_CLOCK_CCU);
 292:../Libraries/XMCLib/src/xmc_ccu4.c **** #endif
 293:../Libraries/XMCLib/src/xmc_ccu4.c ****   
 294:../Libraries/XMCLib/src/xmc_ccu4.c **** #if defined(CLOCK_GATING_SUPPORTED)
 295:../Libraries/XMCLib/src/xmc_ccu4.c ****   XMC_CCU4_lUngateClock(module);
 296:../Libraries/XMCLib/src/xmc_ccu4.c **** #endif
 297:../Libraries/XMCLib/src/xmc_ccu4.c **** 
 298:../Libraries/XMCLib/src/xmc_ccu4.c **** #if defined(PERIPHERAL_RESET_SUPPORTED)
 299:../Libraries/XMCLib/src/xmc_ccu4.c ****   XMC_CCU4_lDeassertReset(module);
 300:../Libraries/XMCLib/src/xmc_ccu4.c **** #endif
 301:../Libraries/XMCLib/src/xmc_ccu4.c **** }
  49              	 .loc 1 301 0
  50              	 
  51 000e 08BD     	 pop {r3,pc}
  52              	.L4:
  53              	 .align 2
  54              	.L3:
  55 0010 00000448 	 .word 1208221696
  56              	 .cfi_endproc
  57              	.LFE93:
  59              	 .section .text.XMC_CCU4_DisableModule,"ax",%progbits
  60              	 .align 2
  61              	 .global XMC_CCU4_DisableModule
  62              	 .code 16
  63              	 .thumb_func
  65              	XMC_CCU4_DisableModule:
  66              	.LFB94:
 302:../Libraries/XMCLib/src/xmc_ccu4.c **** 
 303:../Libraries/XMCLib/src/xmc_ccu4.c **** void XMC_CCU4_DisableModule(XMC_CCU4_MODULE_t *const module)
 304:../Libraries/XMCLib/src/xmc_ccu4.c **** {
  67              	 .loc 1 304 0
  68              	 .cfi_startproc
  69              	.LVL4:
  70 0000 08B5     	 push {r3,lr}
  71              	.LCFI1:
  72              	 .cfi_def_cfa_offset 8
  73              	 .cfi_offset 3,-8
  74              	 .cfi_offset 14,-4
  75              	.LVL5:
  76              	.LBB12:
  77              	.LBB13:
 212:../Libraries/XMCLib/src/xmc_ccu4.c ****   {
  78              	 .loc 1 212 0
  79 0002 034B     	 ldr r3,.L7
  80 0004 9842     	 cmp r0,r3
  81 0006 02D1     	 bne .L5
 214:../Libraries/XMCLib/src/xmc_ccu4.c ****   }
  82              	 .loc 1 214 0
  83 0008 0420     	 mov r0,#4
  84              	.LVL6:
  85 000a FFF7FEFF 	 bl XMC_SCU_CLOCK_GatePeripheralClock
  86              	.LVL7:
  87              	.L5:
  88              	.LBE13:
  89              	.LBE12:
 305:../Libraries/XMCLib/src/xmc_ccu4.c ****   XMC_ASSERT("XMC_CCU4_DisableModule:Invalid Module Pointer", XMC_CCU4_IsValidModule(module));
 306:../Libraries/XMCLib/src/xmc_ccu4.c **** 
 307:../Libraries/XMCLib/src/xmc_ccu4.c **** #if defined(PERIPHERAL_RESET_SUPPORTED)
 308:../Libraries/XMCLib/src/xmc_ccu4.c ****   XMC_CCU4_lAssertReset(module);
 309:../Libraries/XMCLib/src/xmc_ccu4.c **** #endif
 310:../Libraries/XMCLib/src/xmc_ccu4.c ****   
 311:../Libraries/XMCLib/src/xmc_ccu4.c **** #if defined(CLOCK_GATING_SUPPORTED)
 312:../Libraries/XMCLib/src/xmc_ccu4.c ****   XMC_CCU4_lGateClock(module);
 313:../Libraries/XMCLib/src/xmc_ccu4.c **** #endif
 314:../Libraries/XMCLib/src/xmc_ccu4.c **** }
  90              	 .loc 1 314 0
  91              	 
  92 000e 08BD     	 pop {r3,pc}
  93              	.L8:
  94              	 .align 2
  95              	.L7:
  96 0010 00000448 	 .word 1208221696
  97              	 .cfi_endproc
  98              	.LFE94:
 100              	 .section .text.XMC_CCU4_Init,"ax",%progbits
 101              	 .align 2
 102              	 .global XMC_CCU4_Init
 103              	 .code 16
 104              	 .thumb_func
 106              	XMC_CCU4_Init:
 107              	.LFB95:
 315:../Libraries/XMCLib/src/xmc_ccu4.c **** 
 316:../Libraries/XMCLib/src/xmc_ccu4.c **** /* API to initialize CCU4 global resources  */
 317:../Libraries/XMCLib/src/xmc_ccu4.c **** void XMC_CCU4_Init(XMC_CCU4_MODULE_t *const module, const XMC_CCU4_SLICE_MCMS_ACTION_t mcs_action)
 318:../Libraries/XMCLib/src/xmc_ccu4.c **** {
 108              	 .loc 1 318 0
 109              	 .cfi_startproc
 110              	.LVL8:
 111 0000 38B5     	 push {r3,r4,r5,lr}
 112              	.LCFI2:
 113              	 .cfi_def_cfa_offset 16
 114              	 .cfi_offset 3,-16
 115              	 .cfi_offset 4,-12
 116              	 .cfi_offset 5,-8
 117              	 .cfi_offset 14,-4
 118 0002 041C     	 mov r4,r0
 119 0004 0D1C     	 mov r5,r1
 319:../Libraries/XMCLib/src/xmc_ccu4.c ****   uint32_t gctrl;
 320:../Libraries/XMCLib/src/xmc_ccu4.c ****   
 321:../Libraries/XMCLib/src/xmc_ccu4.c ****   XMC_ASSERT("XMC_CCU4_Init:Invalid module pointer", XMC_CCU4_IsValidModule(module));
 322:../Libraries/XMCLib/src/xmc_ccu4.c ****   XMC_ASSERT("XMC_CCU4_Init:Invalid mcs action", XMC_CCU4_SLICE_CHECK_MCS_ACTION(mcs_action));
 323:../Libraries/XMCLib/src/xmc_ccu4.c **** 
 324:../Libraries/XMCLib/src/xmc_ccu4.c ****   /* Enable CCU4 module */
 325:../Libraries/XMCLib/src/xmc_ccu4.c ****   XMC_CCU4_EnableModule(module);
 120              	 .loc 1 325 0
 121 0006 FFF7FEFF 	 bl XMC_CCU4_EnableModule
 122              	.LVL9:
 123              	.LBB14:
 124              	.LBB15:
 125              	 .file 2 "C:/Projekte/Infineon_Dave/eHaJo/FlapFlap/Libraries/XMCLib/inc/xmc_ccu4.h"
   1:C:/Projekte/Infineon_Dave/eHaJo/FlapFlap/Libraries/XMCLib/inc\xmc_ccu4.h **** /**
   2:C:/Projekte/Infineon_Dave/eHaJo/FlapFlap/Libraries/XMCLib/inc\xmc_ccu4.h ****  * @file xmc_ccu4.h
   3:C:/Projekte/Infineon_Dave/eHaJo/FlapFlap/Libraries/XMCLib/inc\xmc_ccu4.h ****  * @date 2017-04-27
   4:C:/Projekte/Infineon_Dave/eHaJo/FlapFlap/Libraries/XMCLib/inc\xmc_ccu4.h ****  *
   5:C:/Projekte/Infineon_Dave/eHaJo/FlapFlap/Libraries/XMCLib/inc\xmc_ccu4.h ****  * @cond
   6:C:/Projekte/Infineon_Dave/eHaJo/FlapFlap/Libraries/XMCLib/inc\xmc_ccu4.h ****  **************************************************************************************************
   7:C:/Projekte/Infineon_Dave/eHaJo/FlapFlap/Libraries/XMCLib/inc\xmc_ccu4.h ****  * XMClib v2.1.16 - XMC Peripheral Driver Library 
   8:C:/Projekte/Infineon_Dave/eHaJo/FlapFlap/Libraries/XMCLib/inc\xmc_ccu4.h ****  *
   9:C:/Projekte/Infineon_Dave/eHaJo/FlapFlap/Libraries/XMCLib/inc\xmc_ccu4.h ****  * Copyright (c) 2015-2017, Infineon Technologies AG
  10:C:/Projekte/Infineon_Dave/eHaJo/FlapFlap/Libraries/XMCLib/inc\xmc_ccu4.h ****  * All rights reserved.                        
  11:C:/Projekte/Infineon_Dave/eHaJo/FlapFlap/Libraries/XMCLib/inc\xmc_ccu4.h ****  *                                             
  12:C:/Projekte/Infineon_Dave/eHaJo/FlapFlap/Libraries/XMCLib/inc\xmc_ccu4.h ****  * Redistribution and use in source and binary forms, with or without modification,are permitted pr
  13:C:/Projekte/Infineon_Dave/eHaJo/FlapFlap/Libraries/XMCLib/inc\xmc_ccu4.h ****  * following conditions are met:   
  14:C:/Projekte/Infineon_Dave/eHaJo/FlapFlap/Libraries/XMCLib/inc\xmc_ccu4.h ****  *                                                                              
  15:C:/Projekte/Infineon_Dave/eHaJo/FlapFlap/Libraries/XMCLib/inc\xmc_ccu4.h ****  * Redistributions of source code must retain the above copyright notice, this list of conditions a
  16:C:/Projekte/Infineon_Dave/eHaJo/FlapFlap/Libraries/XMCLib/inc\xmc_ccu4.h ****  * disclaimer.                        
  17:C:/Projekte/Infineon_Dave/eHaJo/FlapFlap/Libraries/XMCLib/inc\xmc_ccu4.h ****  * 
  18:C:/Projekte/Infineon_Dave/eHaJo/FlapFlap/Libraries/XMCLib/inc\xmc_ccu4.h ****  * Redistributions in binary form must reproduce the above copyright notice, this list of condition
  19:C:/Projekte/Infineon_Dave/eHaJo/FlapFlap/Libraries/XMCLib/inc\xmc_ccu4.h ****  * disclaimer in the documentation and/or other materials provided with the distribution.          
  20:C:/Projekte/Infineon_Dave/eHaJo/FlapFlap/Libraries/XMCLib/inc\xmc_ccu4.h ****  * 
  21:C:/Projekte/Infineon_Dave/eHaJo/FlapFlap/Libraries/XMCLib/inc\xmc_ccu4.h ****  * Neither the name of the copyright holders nor the names of its contributors may be used to endor
  22:C:/Projekte/Infineon_Dave/eHaJo/FlapFlap/Libraries/XMCLib/inc\xmc_ccu4.h ****  * products derived from this software without specific prior written permission.                  
  23:C:/Projekte/Infineon_Dave/eHaJo/FlapFlap/Libraries/XMCLib/inc\xmc_ccu4.h ****  *                                                                              
  24:C:/Projekte/Infineon_Dave/eHaJo/FlapFlap/Libraries/XMCLib/inc\xmc_ccu4.h ****  * THIS SOFTWARE IS PROVIDED BY THE COPYRIGHT HOLDERS AND CONTRIBUTORS "AS IS" AND ANY EXPRESS OR I
  25:C:/Projekte/Infineon_Dave/eHaJo/FlapFlap/Libraries/XMCLib/inc\xmc_ccu4.h ****  * INCLUDING, BUT NOT LIMITED TO, THE IMPLIED WARRANTIES OF MERCHANTABILITY AND FITNESS FOR A PARTI
  26:C:/Projekte/Infineon_Dave/eHaJo/FlapFlap/Libraries/XMCLib/inc\xmc_ccu4.h ****  * DISCLAIMED. IN NO EVENT SHALL THE COPYRIGHT HOLDER OR CONTRIBUTORS BE LIABLE  FOR ANY DIRECT, IN
  27:C:/Projekte/Infineon_Dave/eHaJo/FlapFlap/Libraries/XMCLib/inc\xmc_ccu4.h ****  * SPECIAL, EXEMPLARY, OR CONSEQUENTIAL DAMAGES (INCLUDING, BUT NOT LIMITED TO, PROCUREMENT OF SUBS
  28:C:/Projekte/Infineon_Dave/eHaJo/FlapFlap/Libraries/XMCLib/inc\xmc_ccu4.h ****  * SERVICES; LOSS OF USE, DATA, OR PROFITS; OR BUSINESS INTERRUPTION) HOWEVER CAUSED AND ON ANY THE
  29:C:/Projekte/Infineon_Dave/eHaJo/FlapFlap/Libraries/XMCLib/inc\xmc_ccu4.h ****  * WHETHER IN CONTRACT, STRICT LIABILITY,OR TORT (INCLUDING NEGLIGENCE OR OTHERWISE) ARISING IN ANY
  30:C:/Projekte/Infineon_Dave/eHaJo/FlapFlap/Libraries/XMCLib/inc\xmc_ccu4.h ****  * OF THIS SOFTWARE, EVEN IF ADVISED OF THE POSSIBILITY OF SUCH DAMAGE.                            
  31:C:/Projekte/Infineon_Dave/eHaJo/FlapFlap/Libraries/XMCLib/inc\xmc_ccu4.h ****  *                                                                              
  32:C:/Projekte/Infineon_Dave/eHaJo/FlapFlap/Libraries/XMCLib/inc\xmc_ccu4.h ****  * To improve the quality of the software, users are encouraged to share modifications, enhancement
  33:C:/Projekte/Infineon_Dave/eHaJo/FlapFlap/Libraries/XMCLib/inc\xmc_ccu4.h ****  * Infineon Technologies AG dave@infineon.com).                                                    
  34:C:/Projekte/Infineon_Dave/eHaJo/FlapFlap/Libraries/XMCLib/inc\xmc_ccu4.h ****  **************************************************************************************************
  35:C:/Projekte/Infineon_Dave/eHaJo/FlapFlap/Libraries/XMCLib/inc\xmc_ccu4.h ****  *
  36:C:/Projekte/Infineon_Dave/eHaJo/FlapFlap/Libraries/XMCLib/inc\xmc_ccu4.h ****  * Change History
  37:C:/Projekte/Infineon_Dave/eHaJo/FlapFlap/Libraries/XMCLib/inc\xmc_ccu4.h ****  * --------------
  38:C:/Projekte/Infineon_Dave/eHaJo/FlapFlap/Libraries/XMCLib/inc\xmc_ccu4.h ****  *
  39:C:/Projekte/Infineon_Dave/eHaJo/FlapFlap/Libraries/XMCLib/inc\xmc_ccu4.h ****  * 2015-02-20:
  40:C:/Projekte/Infineon_Dave/eHaJo/FlapFlap/Libraries/XMCLib/inc\xmc_ccu4.h ****  *     - Initial <br>
  41:C:/Projekte/Infineon_Dave/eHaJo/FlapFlap/Libraries/XMCLib/inc\xmc_ccu4.h ****  *     - Documentation updates <br>
  42:C:/Projekte/Infineon_Dave/eHaJo/FlapFlap/Libraries/XMCLib/inc\xmc_ccu4.h ****  *
  43:C:/Projekte/Infineon_Dave/eHaJo/FlapFlap/Libraries/XMCLib/inc\xmc_ccu4.h ****  * 2015-06-20:
  44:C:/Projekte/Infineon_Dave/eHaJo/FlapFlap/Libraries/XMCLib/inc\xmc_ccu4.h ****  *     - Removed version macros and declaration of GetDriverVersion API <br>
  45:C:/Projekte/Infineon_Dave/eHaJo/FlapFlap/Libraries/XMCLib/inc\xmc_ccu4.h ****  *
  46:C:/Projekte/Infineon_Dave/eHaJo/FlapFlap/Libraries/XMCLib/inc\xmc_ccu4.h ****  * 2015-07-22:
  47:C:/Projekte/Infineon_Dave/eHaJo/FlapFlap/Libraries/XMCLib/inc\xmc_ccu4.h ****  *     - XMC_CCU4_SLICE_ConfigureStatusBitOverrideEvent() is updated to support XMC14 device. <br>
  48:C:/Projekte/Infineon_Dave/eHaJo/FlapFlap/Libraries/XMCLib/inc\xmc_ccu4.h ****  *
  49:C:/Projekte/Infineon_Dave/eHaJo/FlapFlap/Libraries/XMCLib/inc\xmc_ccu4.h ****  * 2015-08-17:
  50:C:/Projekte/Infineon_Dave/eHaJo/FlapFlap/Libraries/XMCLib/inc\xmc_ccu4.h ****  *     - XMC_CCU4_SLICE_PRESCALER_t enum is added to set the prescaler divider. <br>
  51:C:/Projekte/Infineon_Dave/eHaJo/FlapFlap/Libraries/XMCLib/inc\xmc_ccu4.h ****  *     - XMC_CCU4_SLICE_SHADOW_TRANSFER_MODE_t enum item names are updated according to the guideli
  52:C:/Projekte/Infineon_Dave/eHaJo/FlapFlap/Libraries/XMCLib/inc\xmc_ccu4.h ****  *     - XMC_CCU4_EnableShadowTransfer() API is made as inline, to improve the speed. <br>
  53:C:/Projekte/Infineon_Dave/eHaJo/FlapFlap/Libraries/XMCLib/inc\xmc_ccu4.h ****  *
  54:C:/Projekte/Infineon_Dave/eHaJo/FlapFlap/Libraries/XMCLib/inc\xmc_ccu4.h ****  * 2015-09-29:
  55:C:/Projekte/Infineon_Dave/eHaJo/FlapFlap/Libraries/XMCLib/inc\xmc_ccu4.h ****  *     - In XMC_CCU4_SLICE_EVENT_LEVEL_SENSITIVITY_t, two more enum items are added to support exte
  56:C:/Projekte/Infineon_Dave/eHaJo/FlapFlap/Libraries/XMCLib/inc\xmc_ccu4.h ****  *       settings.
  57:C:/Projekte/Infineon_Dave/eHaJo/FlapFlap/Libraries/XMCLib/inc\xmc_ccu4.h ****  *
  58:C:/Projekte/Infineon_Dave/eHaJo/FlapFlap/Libraries/XMCLib/inc\xmc_ccu4.h ****  * 2015-10-07:
  59:C:/Projekte/Infineon_Dave/eHaJo/FlapFlap/Libraries/XMCLib/inc\xmc_ccu4.h ****  *     - XMC_CCU4_SLICE_GetEvent() is made as inline.
  60:C:/Projekte/Infineon_Dave/eHaJo/FlapFlap/Libraries/XMCLib/inc\xmc_ccu4.h ****  *     - XMC_CCU4_SLICE_MULTI_IRQ_ID_t is added to support the XMC_CCU4_SLICE_EnableMultipleEvents(
  61:C:/Projekte/Infineon_Dave/eHaJo/FlapFlap/Libraries/XMCLib/inc\xmc_ccu4.h ****  *       XMC_CCU4_SLICE_DisableMultipleEvents() APIs.
  62:C:/Projekte/Infineon_Dave/eHaJo/FlapFlap/Libraries/XMCLib/inc\xmc_ccu4.h ****  *     - DOC updates for the newly added APIs.
  63:C:/Projekte/Infineon_Dave/eHaJo/FlapFlap/Libraries/XMCLib/inc\xmc_ccu4.h ****  *
  64:C:/Projekte/Infineon_Dave/eHaJo/FlapFlap/Libraries/XMCLib/inc\xmc_ccu4.h ****  * 2016-03-09:
  65:C:/Projekte/Infineon_Dave/eHaJo/FlapFlap/Libraries/XMCLib/inc\xmc_ccu4.h ****  *     - Optimization of write only registers 
  66:C:/Projekte/Infineon_Dave/eHaJo/FlapFlap/Libraries/XMCLib/inc\xmc_ccu4.h ****  *
  67:C:/Projekte/Infineon_Dave/eHaJo/FlapFlap/Libraries/XMCLib/inc\xmc_ccu4.h ****  * 2016-05-20:
  68:C:/Projekte/Infineon_Dave/eHaJo/FlapFlap/Libraries/XMCLib/inc\xmc_ccu4.h ****  *     - Added XMC_CCU4_SLICE_StopClearTimer()
  69:C:/Projekte/Infineon_Dave/eHaJo/FlapFlap/Libraries/XMCLib/inc\xmc_ccu4.h ****  *     - Changed implementation of XMC_CCU4_SLICE_StopTimer() and XMC_CCU4_SLICE_ClearTimer() to av
  70:C:/Projekte/Infineon_Dave/eHaJo/FlapFlap/Libraries/XMCLib/inc\xmc_ccu4.h ****  *
  71:C:/Projekte/Infineon_Dave/eHaJo/FlapFlap/Libraries/XMCLib/inc\xmc_ccu4.h ****  * 2017-04-27:
  72:C:/Projekte/Infineon_Dave/eHaJo/FlapFlap/Libraries/XMCLib/inc\xmc_ccu4.h ****  *     - XMC_CCU4_SLICE_SetPrescaler() changed div_val parameter to type XMC_CCU4_SLICE_PRESCALER_t
  73:C:/Projekte/Infineon_Dave/eHaJo/FlapFlap/Libraries/XMCLib/inc\xmc_ccu4.h ****  * 
  74:C:/Projekte/Infineon_Dave/eHaJo/FlapFlap/Libraries/XMCLib/inc\xmc_ccu4.h ****  * @endcond
  75:C:/Projekte/Infineon_Dave/eHaJo/FlapFlap/Libraries/XMCLib/inc\xmc_ccu4.h ****  */
  76:C:/Projekte/Infineon_Dave/eHaJo/FlapFlap/Libraries/XMCLib/inc\xmc_ccu4.h **** 
  77:C:/Projekte/Infineon_Dave/eHaJo/FlapFlap/Libraries/XMCLib/inc\xmc_ccu4.h **** #ifndef XMC_CCU4_H
  78:C:/Projekte/Infineon_Dave/eHaJo/FlapFlap/Libraries/XMCLib/inc\xmc_ccu4.h **** #define XMC_CCU4_H
  79:C:/Projekte/Infineon_Dave/eHaJo/FlapFlap/Libraries/XMCLib/inc\xmc_ccu4.h ****  
  80:C:/Projekte/Infineon_Dave/eHaJo/FlapFlap/Libraries/XMCLib/inc\xmc_ccu4.h **** /**************************************************************************************************
  81:C:/Projekte/Infineon_Dave/eHaJo/FlapFlap/Libraries/XMCLib/inc\xmc_ccu4.h ****  * HEADER FILES
  82:C:/Projekte/Infineon_Dave/eHaJo/FlapFlap/Libraries/XMCLib/inc\xmc_ccu4.h ****  **************************************************************************************************
  83:C:/Projekte/Infineon_Dave/eHaJo/FlapFlap/Libraries/XMCLib/inc\xmc_ccu4.h **** #include "xmc_common.h"
  84:C:/Projekte/Infineon_Dave/eHaJo/FlapFlap/Libraries/XMCLib/inc\xmc_ccu4.h **** #if defined(CCU40)
  85:C:/Projekte/Infineon_Dave/eHaJo/FlapFlap/Libraries/XMCLib/inc\xmc_ccu4.h **** 
  86:C:/Projekte/Infineon_Dave/eHaJo/FlapFlap/Libraries/XMCLib/inc\xmc_ccu4.h **** #if UC_FAMILY == XMC1
  87:C:/Projekte/Infineon_Dave/eHaJo/FlapFlap/Libraries/XMCLib/inc\xmc_ccu4.h ****  #include "xmc1_ccu4_map.h"
  88:C:/Projekte/Infineon_Dave/eHaJo/FlapFlap/Libraries/XMCLib/inc\xmc_ccu4.h **** #endif
  89:C:/Projekte/Infineon_Dave/eHaJo/FlapFlap/Libraries/XMCLib/inc\xmc_ccu4.h **** 
  90:C:/Projekte/Infineon_Dave/eHaJo/FlapFlap/Libraries/XMCLib/inc\xmc_ccu4.h **** #if UC_FAMILY == XMC4
  91:C:/Projekte/Infineon_Dave/eHaJo/FlapFlap/Libraries/XMCLib/inc\xmc_ccu4.h ****  #include "xmc4_ccu4_map.h"
  92:C:/Projekte/Infineon_Dave/eHaJo/FlapFlap/Libraries/XMCLib/inc\xmc_ccu4.h **** #endif
  93:C:/Projekte/Infineon_Dave/eHaJo/FlapFlap/Libraries/XMCLib/inc\xmc_ccu4.h **** 
  94:C:/Projekte/Infineon_Dave/eHaJo/FlapFlap/Libraries/XMCLib/inc\xmc_ccu4.h **** /**
  95:C:/Projekte/Infineon_Dave/eHaJo/FlapFlap/Libraries/XMCLib/inc\xmc_ccu4.h ****  * @addtogroup XMClib XMC Peripheral Library
  96:C:/Projekte/Infineon_Dave/eHaJo/FlapFlap/Libraries/XMCLib/inc\xmc_ccu4.h ****  * @{
  97:C:/Projekte/Infineon_Dave/eHaJo/FlapFlap/Libraries/XMCLib/inc\xmc_ccu4.h ****  */
  98:C:/Projekte/Infineon_Dave/eHaJo/FlapFlap/Libraries/XMCLib/inc\xmc_ccu4.h ****  
  99:C:/Projekte/Infineon_Dave/eHaJo/FlapFlap/Libraries/XMCLib/inc\xmc_ccu4.h **** /**
 100:C:/Projekte/Infineon_Dave/eHaJo/FlapFlap/Libraries/XMCLib/inc\xmc_ccu4.h ****  * @addtogroup CCU4
 101:C:/Projekte/Infineon_Dave/eHaJo/FlapFlap/Libraries/XMCLib/inc\xmc_ccu4.h ****  * @brief Capture Compare Unit 4 (CCU4) low level driver for XMC family of microcontrollers<br>
 102:C:/Projekte/Infineon_Dave/eHaJo/FlapFlap/Libraries/XMCLib/inc\xmc_ccu4.h ****  *
 103:C:/Projekte/Infineon_Dave/eHaJo/FlapFlap/Libraries/XMCLib/inc\xmc_ccu4.h ****  * The CCU4 peripheral is a major component for systems that need general purpose timers for signal
 104:C:/Projekte/Infineon_Dave/eHaJo/FlapFlap/Libraries/XMCLib/inc\xmc_ccu4.h ****  * monitoring/conditioning and Pulse Width Modulation (PWM) signal generation. Power electronic con
 105:C:/Projekte/Infineon_Dave/eHaJo/FlapFlap/Libraries/XMCLib/inc\xmc_ccu4.h ****  * switched mode power supplies or interruptible power supplies, can easily be implemented with the
 106:C:/Projekte/Infineon_Dave/eHaJo/FlapFlap/Libraries/XMCLib/inc\xmc_ccu4.h ****  * CCU4 peripheral.\n
 107:C:/Projekte/Infineon_Dave/eHaJo/FlapFlap/Libraries/XMCLib/inc\xmc_ccu4.h ****  * Each CCU4 module is comprised of four identical 16 bit Capture/Compare Timer slices, CC4y (where
 108:C:/Projekte/Infineon_Dave/eHaJo/FlapFlap/Libraries/XMCLib/inc\xmc_ccu4.h ****  * timer slice can work in compare mode or in capture mode.
 109:C:/Projekte/Infineon_Dave/eHaJo/FlapFlap/Libraries/XMCLib/inc\xmc_ccu4.h ****  *
 110:C:/Projekte/Infineon_Dave/eHaJo/FlapFlap/Libraries/XMCLib/inc\xmc_ccu4.h ****  * APIs provided in this file cover the following functional blocks of CCU4:\n
 111:C:/Projekte/Infineon_Dave/eHaJo/FlapFlap/Libraries/XMCLib/inc\xmc_ccu4.h ****  * -- Timer configuration, Capture configuration, Function/Event configuration, Interrupt configura
 112:C:/Projekte/Infineon_Dave/eHaJo/FlapFlap/Libraries/XMCLib/inc\xmc_ccu4.h ****  * \par Note:
 113:C:/Projekte/Infineon_Dave/eHaJo/FlapFlap/Libraries/XMCLib/inc\xmc_ccu4.h ****  * 1. SLICE (APIs prefixed with e.g. XMC_CCU4_SLICE_)
 114:C:/Projekte/Infineon_Dave/eHaJo/FlapFlap/Libraries/XMCLib/inc\xmc_ccu4.h ****  * 2. Module (APIs are not having any prefix e.g. XMC_CCU4_)
 115:C:/Projekte/Infineon_Dave/eHaJo/FlapFlap/Libraries/XMCLib/inc\xmc_ccu4.h ****  *
 116:C:/Projekte/Infineon_Dave/eHaJo/FlapFlap/Libraries/XMCLib/inc\xmc_ccu4.h ****  * \par Timer(Compare mode) configuration:
 117:C:/Projekte/Infineon_Dave/eHaJo/FlapFlap/Libraries/XMCLib/inc\xmc_ccu4.h ****  * This section of the LLD provides the configuration structure XMC_CCU4_SLICE_COMPARE_CONFIG_t and
 118:C:/Projekte/Infineon_Dave/eHaJo/FlapFlap/Libraries/XMCLib/inc\xmc_ccu4.h ****  * function XMC_CCU4_SLICE_CompareInit().
 119:C:/Projekte/Infineon_Dave/eHaJo/FlapFlap/Libraries/XMCLib/inc\xmc_ccu4.h ****  *
 120:C:/Projekte/Infineon_Dave/eHaJo/FlapFlap/Libraries/XMCLib/inc\xmc_ccu4.h ****  * It can be used to:
 121:C:/Projekte/Infineon_Dave/eHaJo/FlapFlap/Libraries/XMCLib/inc\xmc_ccu4.h ****  * -# Start and Stop the timer. (XMC_CCU4_SLICE_StartTimer(), XMC_CCU4_SLICE_StopTimer())
 122:C:/Projekte/Infineon_Dave/eHaJo/FlapFlap/Libraries/XMCLib/inc\xmc_ccu4.h ****  * -# Update the period, compare, Dither, Prescaler  and Passive values. (XMC_CCU4_SLICE_SetTimerPe
 123:C:/Projekte/Infineon_Dave/eHaJo/FlapFlap/Libraries/XMCLib/inc\xmc_ccu4.h ****  *    XMC_CCU4_SLICE_SetTimerCompareMatch(), XMC_CCU4_SLICE_SetPrescaler(), XMC_CCU4_SLICE_SetDithe
 124:C:/Projekte/Infineon_Dave/eHaJo/FlapFlap/Libraries/XMCLib/inc\xmc_ccu4.h ****  *    XMC_CCU4_SLICE_SetPassiveLevel())
 125:C:/Projekte/Infineon_Dave/eHaJo/FlapFlap/Libraries/XMCLib/inc\xmc_ccu4.h ****  * -# Enable the slices to support multichannel mode. (XMC_CCU4_SLICE_EnableMultiChannelMode())
 126:C:/Projekte/Infineon_Dave/eHaJo/FlapFlap/Libraries/XMCLib/inc\xmc_ccu4.h ****  * 
 127:C:/Projekte/Infineon_Dave/eHaJo/FlapFlap/Libraries/XMCLib/inc\xmc_ccu4.h ****  * \par Capture configuration:
 128:C:/Projekte/Infineon_Dave/eHaJo/FlapFlap/Libraries/XMCLib/inc\xmc_ccu4.h ****  * This section of the LLD provides the configuration structure XMC_CCU4_SLICE_CAPTURE_CONFIG_t and
 129:C:/Projekte/Infineon_Dave/eHaJo/FlapFlap/Libraries/XMCLib/inc\xmc_ccu4.h ****  * function XMC_CCU4_SLICE_CaptureInit().
 130:C:/Projekte/Infineon_Dave/eHaJo/FlapFlap/Libraries/XMCLib/inc\xmc_ccu4.h ****  *
 131:C:/Projekte/Infineon_Dave/eHaJo/FlapFlap/Libraries/XMCLib/inc\xmc_ccu4.h ****  * It can be used to:
 132:C:/Projekte/Infineon_Dave/eHaJo/FlapFlap/Libraries/XMCLib/inc\xmc_ccu4.h ****  * -# Configure the capture functionality. (XMC_CCU4_SLICE_Capture0Config(), XMC_CCU4_SLICE_Capture
 133:C:/Projekte/Infineon_Dave/eHaJo/FlapFlap/Libraries/XMCLib/inc\xmc_ccu4.h ****  * -# Read the captured values along with the status, which indicate the value is latest or not.
 134:C:/Projekte/Infineon_Dave/eHaJo/FlapFlap/Libraries/XMCLib/inc\xmc_ccu4.h ****  *    (XMC_CCU4_SLICE_GetCaptureRegisterValue())
 135:C:/Projekte/Infineon_Dave/eHaJo/FlapFlap/Libraries/XMCLib/inc\xmc_ccu4.h ****  * 
 136:C:/Projekte/Infineon_Dave/eHaJo/FlapFlap/Libraries/XMCLib/inc\xmc_ccu4.h ****  * \par Function/Event configuration:
 137:C:/Projekte/Infineon_Dave/eHaJo/FlapFlap/Libraries/XMCLib/inc\xmc_ccu4.h ****  * This section of the LLD provides the configuration structure XMC_CCU4_SLICE_EVENT_CONFIG_t.\n
 138:C:/Projekte/Infineon_Dave/eHaJo/FlapFlap/Libraries/XMCLib/inc\xmc_ccu4.h ****  * 
 139:C:/Projekte/Infineon_Dave/eHaJo/FlapFlap/Libraries/XMCLib/inc\xmc_ccu4.h ****  * It can be used to:
 140:C:/Projekte/Infineon_Dave/eHaJo/FlapFlap/Libraries/XMCLib/inc\xmc_ccu4.h ****  * -# Enable and Disable the events. (XMC_CCU4_SLICE_EnableEvent(), XMC_CCU4_SLICE_DisableEvent())
 141:C:/Projekte/Infineon_Dave/eHaJo/FlapFlap/Libraries/XMCLib/inc\xmc_ccu4.h ****  * -# Configure to start and stop the timer on external events.(XMC_CCU4_SLICE_StartConfig(), XMC_C
 142:C:/Projekte/Infineon_Dave/eHaJo/FlapFlap/Libraries/XMCLib/inc\xmc_ccu4.h ****  * -# Modulation, external load and Gating of the timer output.(XMC_CCU4_SLICE_ModulationConfig(), 
 143:C:/Projekte/Infineon_Dave/eHaJo/FlapFlap/Libraries/XMCLib/inc\xmc_ccu4.h ****  *    XMC_CCU4_SLICE_LoadConfig(), XMC_CCU4_SLICE_GateConfig())
 144:C:/Projekte/Infineon_Dave/eHaJo/FlapFlap/Libraries/XMCLib/inc\xmc_ccu4.h ****  * -# Control the count direction of the timer based on the external event. (XMC_CCU4_SLICE_Directi
 145:C:/Projekte/Infineon_Dave/eHaJo/FlapFlap/Libraries/XMCLib/inc\xmc_ccu4.h ****  * -# Count the external events.(XMC_CCU4_SLICE_CountConfig())
 146:C:/Projekte/Infineon_Dave/eHaJo/FlapFlap/Libraries/XMCLib/inc\xmc_ccu4.h ****  * -# External Trap. Which can be used as protective feature.(XMC_CCU4_SLICE_EnableTrap(), XMC_CCU4
 147:C:/Projekte/Infineon_Dave/eHaJo/FlapFlap/Libraries/XMCLib/inc\xmc_ccu4.h ****  *    XMC_CCU4_SLICE_TrapConfig())
 148:C:/Projekte/Infineon_Dave/eHaJo/FlapFlap/Libraries/XMCLib/inc\xmc_ccu4.h ****  *
 149:C:/Projekte/Infineon_Dave/eHaJo/FlapFlap/Libraries/XMCLib/inc\xmc_ccu4.h ****  * \par Interrupt configuration:
 150:C:/Projekte/Infineon_Dave/eHaJo/FlapFlap/Libraries/XMCLib/inc\xmc_ccu4.h ****  * This section of the LLD provides the function to configure the interrupt node to each event (XMC
 151:C:/Projekte/Infineon_Dave/eHaJo/FlapFlap/Libraries/XMCLib/inc\xmc_ccu4.h ****  * @{
 152:C:/Projekte/Infineon_Dave/eHaJo/FlapFlap/Libraries/XMCLib/inc\xmc_ccu4.h ****  */
 153:C:/Projekte/Infineon_Dave/eHaJo/FlapFlap/Libraries/XMCLib/inc\xmc_ccu4.h ****  
 154:C:/Projekte/Infineon_Dave/eHaJo/FlapFlap/Libraries/XMCLib/inc\xmc_ccu4.h **** /**************************************************************************************************
 155:C:/Projekte/Infineon_Dave/eHaJo/FlapFlap/Libraries/XMCLib/inc\xmc_ccu4.h ****  * MACROS
 156:C:/Projekte/Infineon_Dave/eHaJo/FlapFlap/Libraries/XMCLib/inc\xmc_ccu4.h ****  **************************************************************************************************
 157:C:/Projekte/Infineon_Dave/eHaJo/FlapFlap/Libraries/XMCLib/inc\xmc_ccu4.h **** /* Macro to check if the interrupt enum passed is valid */
 158:C:/Projekte/Infineon_Dave/eHaJo/FlapFlap/Libraries/XMCLib/inc\xmc_ccu4.h **** #define XMC_CCU4_SLICE_CHECK_INTERRUPT(interrupt) \
 159:C:/Projekte/Infineon_Dave/eHaJo/FlapFlap/Libraries/XMCLib/inc\xmc_ccu4.h ****     ((interrupt == XMC_CCU4_SLICE_IRQ_ID_PERIOD_MATCH)           || \
 160:C:/Projekte/Infineon_Dave/eHaJo/FlapFlap/Libraries/XMCLib/inc\xmc_ccu4.h ****      (interrupt == XMC_CCU4_SLICE_IRQ_ID_ONE_MATCH)              || \
 161:C:/Projekte/Infineon_Dave/eHaJo/FlapFlap/Libraries/XMCLib/inc\xmc_ccu4.h ****      (interrupt == XMC_CCU4_SLICE_IRQ_ID_COMPARE_MATCH_UP)  || \
 162:C:/Projekte/Infineon_Dave/eHaJo/FlapFlap/Libraries/XMCLib/inc\xmc_ccu4.h ****      (interrupt == XMC_CCU4_SLICE_IRQ_ID_COMPARE_MATCH_DOWN)|| \
 163:C:/Projekte/Infineon_Dave/eHaJo/FlapFlap/Libraries/XMCLib/inc\xmc_ccu4.h ****      (interrupt == XMC_CCU4_SLICE_IRQ_ID_EVENT0)                 || \
 164:C:/Projekte/Infineon_Dave/eHaJo/FlapFlap/Libraries/XMCLib/inc\xmc_ccu4.h ****      (interrupt == XMC_CCU4_SLICE_IRQ_ID_EVENT1)                 || \
 165:C:/Projekte/Infineon_Dave/eHaJo/FlapFlap/Libraries/XMCLib/inc\xmc_ccu4.h ****      (interrupt == XMC_CCU4_SLICE_IRQ_ID_EVENT2)                 || \
 166:C:/Projekte/Infineon_Dave/eHaJo/FlapFlap/Libraries/XMCLib/inc\xmc_ccu4.h ****      (interrupt == XMC_CCU4_SLICE_IRQ_ID_TRAP))
 167:C:/Projekte/Infineon_Dave/eHaJo/FlapFlap/Libraries/XMCLib/inc\xmc_ccu4.h **** 
 168:C:/Projekte/Infineon_Dave/eHaJo/FlapFlap/Libraries/XMCLib/inc\xmc_ccu4.h **** /**************************************************************************************************
 169:C:/Projekte/Infineon_Dave/eHaJo/FlapFlap/Libraries/XMCLib/inc\xmc_ccu4.h ****  * ENUMS
 170:C:/Projekte/Infineon_Dave/eHaJo/FlapFlap/Libraries/XMCLib/inc\xmc_ccu4.h ****  **************************************************************************************************
 171:C:/Projekte/Infineon_Dave/eHaJo/FlapFlap/Libraries/XMCLib/inc\xmc_ccu4.h **** 
 172:C:/Projekte/Infineon_Dave/eHaJo/FlapFlap/Libraries/XMCLib/inc\xmc_ccu4.h **** /**
 173:C:/Projekte/Infineon_Dave/eHaJo/FlapFlap/Libraries/XMCLib/inc\xmc_ccu4.h ****  * Typedef for CCU4 Global data structure
 174:C:/Projekte/Infineon_Dave/eHaJo/FlapFlap/Libraries/XMCLib/inc\xmc_ccu4.h ****  */
 175:C:/Projekte/Infineon_Dave/eHaJo/FlapFlap/Libraries/XMCLib/inc\xmc_ccu4.h **** typedef CCU4_GLOBAL_TypeDef XMC_CCU4_MODULE_t;
 176:C:/Projekte/Infineon_Dave/eHaJo/FlapFlap/Libraries/XMCLib/inc\xmc_ccu4.h **** 
 177:C:/Projekte/Infineon_Dave/eHaJo/FlapFlap/Libraries/XMCLib/inc\xmc_ccu4.h **** /**
 178:C:/Projekte/Infineon_Dave/eHaJo/FlapFlap/Libraries/XMCLib/inc\xmc_ccu4.h ****  * Typedef for CCU4 Slice data structure
 179:C:/Projekte/Infineon_Dave/eHaJo/FlapFlap/Libraries/XMCLib/inc\xmc_ccu4.h ****  */
 180:C:/Projekte/Infineon_Dave/eHaJo/FlapFlap/Libraries/XMCLib/inc\xmc_ccu4.h **** typedef CCU4_CC4_TypeDef XMC_CCU4_SLICE_t;
 181:C:/Projekte/Infineon_Dave/eHaJo/FlapFlap/Libraries/XMCLib/inc\xmc_ccu4.h **** 
 182:C:/Projekte/Infineon_Dave/eHaJo/FlapFlap/Libraries/XMCLib/inc\xmc_ccu4.h **** /**
 183:C:/Projekte/Infineon_Dave/eHaJo/FlapFlap/Libraries/XMCLib/inc\xmc_ccu4.h ****  *  Return Value of an API
 184:C:/Projekte/Infineon_Dave/eHaJo/FlapFlap/Libraries/XMCLib/inc\xmc_ccu4.h ****  */ 
 185:C:/Projekte/Infineon_Dave/eHaJo/FlapFlap/Libraries/XMCLib/inc\xmc_ccu4.h **** typedef enum XMC_CCU4_STATUS
 186:C:/Projekte/Infineon_Dave/eHaJo/FlapFlap/Libraries/XMCLib/inc\xmc_ccu4.h **** {
 187:C:/Projekte/Infineon_Dave/eHaJo/FlapFlap/Libraries/XMCLib/inc\xmc_ccu4.h ****   XMC_CCU4_STATUS_OK      = 0U, /**< API fulfils request */
 188:C:/Projekte/Infineon_Dave/eHaJo/FlapFlap/Libraries/XMCLib/inc\xmc_ccu4.h ****   XMC_CCU4_STATUS_ERROR       , /**< API cannot fulfil the request */
 189:C:/Projekte/Infineon_Dave/eHaJo/FlapFlap/Libraries/XMCLib/inc\xmc_ccu4.h ****   XMC_CCU4_STATUS_RUNNING     , /**< The timer slice is currently running */
 190:C:/Projekte/Infineon_Dave/eHaJo/FlapFlap/Libraries/XMCLib/inc\xmc_ccu4.h ****   XMC_CCU4_STATUS_IDLE          /**< The timer slice is currently idle */
 191:C:/Projekte/Infineon_Dave/eHaJo/FlapFlap/Libraries/XMCLib/inc\xmc_ccu4.h **** } XMC_CCU4_STATUS_t;
 192:C:/Projekte/Infineon_Dave/eHaJo/FlapFlap/Libraries/XMCLib/inc\xmc_ccu4.h **** 
 193:C:/Projekte/Infineon_Dave/eHaJo/FlapFlap/Libraries/XMCLib/inc\xmc_ccu4.h **** /**
 194:C:/Projekte/Infineon_Dave/eHaJo/FlapFlap/Libraries/XMCLib/inc\xmc_ccu4.h ****  *  CCU4 module clock
 195:C:/Projekte/Infineon_Dave/eHaJo/FlapFlap/Libraries/XMCLib/inc\xmc_ccu4.h ****  */ 
 196:C:/Projekte/Infineon_Dave/eHaJo/FlapFlap/Libraries/XMCLib/inc\xmc_ccu4.h **** typedef enum XMC_CCU4_CLOCK
 197:C:/Projekte/Infineon_Dave/eHaJo/FlapFlap/Libraries/XMCLib/inc\xmc_ccu4.h **** {
 198:C:/Projekte/Infineon_Dave/eHaJo/FlapFlap/Libraries/XMCLib/inc\xmc_ccu4.h ****   XMC_CCU4_CLOCK_SCU        = 0U, /**< Select the fCCU as the clock */
 199:C:/Projekte/Infineon_Dave/eHaJo/FlapFlap/Libraries/XMCLib/inc\xmc_ccu4.h ****   XMC_CCU4_CLOCK_EXTERNAL_A     , /**< External clock-A */
 200:C:/Projekte/Infineon_Dave/eHaJo/FlapFlap/Libraries/XMCLib/inc\xmc_ccu4.h ****   XMC_CCU4_CLOCK_EXTERNAL_B     , /**< External clock-B */
 201:C:/Projekte/Infineon_Dave/eHaJo/FlapFlap/Libraries/XMCLib/inc\xmc_ccu4.h ****   XMC_CCU4_CLOCK_EXTERNAL_C       /**< External clock-C */
 202:C:/Projekte/Infineon_Dave/eHaJo/FlapFlap/Libraries/XMCLib/inc\xmc_ccu4.h **** } XMC_CCU4_CLOCK_t;
 203:C:/Projekte/Infineon_Dave/eHaJo/FlapFlap/Libraries/XMCLib/inc\xmc_ccu4.h **** 
 204:C:/Projekte/Infineon_Dave/eHaJo/FlapFlap/Libraries/XMCLib/inc\xmc_ccu4.h **** /**
 205:C:/Projekte/Infineon_Dave/eHaJo/FlapFlap/Libraries/XMCLib/inc\xmc_ccu4.h ****  * CCU4 set the shadow transfer type for multichannel mode
 206:C:/Projekte/Infineon_Dave/eHaJo/FlapFlap/Libraries/XMCLib/inc\xmc_ccu4.h ****  */
 207:C:/Projekte/Infineon_Dave/eHaJo/FlapFlap/Libraries/XMCLib/inc\xmc_ccu4.h **** typedef enum XMC_CCU4_MULTI_CHANNEL_SHADOW_TRANSFER
 208:C:/Projekte/Infineon_Dave/eHaJo/FlapFlap/Libraries/XMCLib/inc\xmc_ccu4.h **** {
 209:C:/Projekte/Infineon_Dave/eHaJo/FlapFlap/Libraries/XMCLib/inc\xmc_ccu4.h ****   XMC_CCU4_MULTI_CHANNEL_SHADOW_TRANSFER_SW_SLICE0       = (uint32_t)0x4000000, /**< Shadow transfe
 210:C:/Projekte/Infineon_Dave/eHaJo/FlapFlap/Libraries/XMCLib/inc\xmc_ccu4.h ****                                                                                      only for slice
 211:C:/Projekte/Infineon_Dave/eHaJo/FlapFlap/Libraries/XMCLib/inc\xmc_ccu4.h ****   XMC_CCU4_MULTI_CHANNEL_SHADOW_TRANSFER_SW_MCSS_SLICE0  = (uint32_t)0x4000400, /**< Shadow transfe
 212:C:/Projekte/Infineon_Dave/eHaJo/FlapFlap/Libraries/XMCLib/inc\xmc_ccu4.h ****                                                                                      and hardware f
 213:C:/Projekte/Infineon_Dave/eHaJo/FlapFlap/Libraries/XMCLib/inc\xmc_ccu4.h ****   XMC_CCU4_MULTI_CHANNEL_SHADOW_TRANSFER_SW_SLICE1       = (uint32_t)0x8000000, /**< Shadow transfe
 214:C:/Projekte/Infineon_Dave/eHaJo/FlapFlap/Libraries/XMCLib/inc\xmc_ccu4.h ****                                                                                      only for slice
 215:C:/Projekte/Infineon_Dave/eHaJo/FlapFlap/Libraries/XMCLib/inc\xmc_ccu4.h ****   XMC_CCU4_MULTI_CHANNEL_SHADOW_TRANSFER_SW_MCSS_SLICE1  = (uint32_t)0x8000800, /**< Shadow transfe
 216:C:/Projekte/Infineon_Dave/eHaJo/FlapFlap/Libraries/XMCLib/inc\xmc_ccu4.h ****                                                                                      and hardware f
 217:C:/Projekte/Infineon_Dave/eHaJo/FlapFlap/Libraries/XMCLib/inc\xmc_ccu4.h ****   XMC_CCU4_MULTI_CHANNEL_SHADOW_TRANSFER_SW_SLICE2       = (uint32_t)0x10000000, /**< Shadow transf
 218:C:/Projekte/Infineon_Dave/eHaJo/FlapFlap/Libraries/XMCLib/inc\xmc_ccu4.h ****                                                                                       only for slic
 219:C:/Projekte/Infineon_Dave/eHaJo/FlapFlap/Libraries/XMCLib/inc\xmc_ccu4.h ****   XMC_CCU4_MULTI_CHANNEL_SHADOW_TRANSFER_SW_MCSS_SLICE2  = (uint32_t)0x10001000, /**< Shadow transf
 220:C:/Projekte/Infineon_Dave/eHaJo/FlapFlap/Libraries/XMCLib/inc\xmc_ccu4.h ****                                                                                       and hardware 
 221:C:/Projekte/Infineon_Dave/eHaJo/FlapFlap/Libraries/XMCLib/inc\xmc_ccu4.h ****   XMC_CCU4_MULTI_CHANNEL_SHADOW_TRANSFER_SW_SLICE3       = (uint32_t)0x20000000, /**< Shadow transf
 222:C:/Projekte/Infineon_Dave/eHaJo/FlapFlap/Libraries/XMCLib/inc\xmc_ccu4.h ****                                                                                       only for slic
 223:C:/Projekte/Infineon_Dave/eHaJo/FlapFlap/Libraries/XMCLib/inc\xmc_ccu4.h ****   XMC_CCU4_MULTI_CHANNEL_SHADOW_TRANSFER_SW_MCSS_SLICE3  = (uint32_t)0x20002000  /**< Shadow transf
 224:C:/Projekte/Infineon_Dave/eHaJo/FlapFlap/Libraries/XMCLib/inc\xmc_ccu4.h ****                                                                                       and hardware 
 225:C:/Projekte/Infineon_Dave/eHaJo/FlapFlap/Libraries/XMCLib/inc\xmc_ccu4.h **** } XMC_CCU4_MULTI_CHANNEL_SHADOW_TRANSFER_t;
 226:C:/Projekte/Infineon_Dave/eHaJo/FlapFlap/Libraries/XMCLib/inc\xmc_ccu4.h **** 
 227:C:/Projekte/Infineon_Dave/eHaJo/FlapFlap/Libraries/XMCLib/inc\xmc_ccu4.h **** /**
 228:C:/Projekte/Infineon_Dave/eHaJo/FlapFlap/Libraries/XMCLib/inc\xmc_ccu4.h ****  *  Operational modes of CCU4 slice
 229:C:/Projekte/Infineon_Dave/eHaJo/FlapFlap/Libraries/XMCLib/inc\xmc_ccu4.h ****  */ 
 230:C:/Projekte/Infineon_Dave/eHaJo/FlapFlap/Libraries/XMCLib/inc\xmc_ccu4.h **** typedef enum XMC_CCU4_SLICE_MODE
 231:C:/Projekte/Infineon_Dave/eHaJo/FlapFlap/Libraries/XMCLib/inc\xmc_ccu4.h **** {
 232:C:/Projekte/Infineon_Dave/eHaJo/FlapFlap/Libraries/XMCLib/inc\xmc_ccu4.h ****   XMC_CCU4_SLICE_MODE_COMPARE  = 0U, /**< slice(CC4y) operates in Compare Mode */
 233:C:/Projekte/Infineon_Dave/eHaJo/FlapFlap/Libraries/XMCLib/inc\xmc_ccu4.h ****   XMC_CCU4_SLICE_MODE_CAPTURE        /**< slice(CC4y) operates in Capture Mode */
 234:C:/Projekte/Infineon_Dave/eHaJo/FlapFlap/Libraries/XMCLib/inc\xmc_ccu4.h **** } XMC_CCU4_SLICE_MODE_t;
 235:C:/Projekte/Infineon_Dave/eHaJo/FlapFlap/Libraries/XMCLib/inc\xmc_ccu4.h **** 
 236:C:/Projekte/Infineon_Dave/eHaJo/FlapFlap/Libraries/XMCLib/inc\xmc_ccu4.h **** /**
 237:C:/Projekte/Infineon_Dave/eHaJo/FlapFlap/Libraries/XMCLib/inc\xmc_ccu4.h ****  *  Timer counting modes for the slice
 238:C:/Projekte/Infineon_Dave/eHaJo/FlapFlap/Libraries/XMCLib/inc\xmc_ccu4.h ****  */ 
 239:C:/Projekte/Infineon_Dave/eHaJo/FlapFlap/Libraries/XMCLib/inc\xmc_ccu4.h **** typedef enum XMC_CCU4_SLICE_TIMER_COUNT_MODE
 240:C:/Projekte/Infineon_Dave/eHaJo/FlapFlap/Libraries/XMCLib/inc\xmc_ccu4.h **** {
 241:C:/Projekte/Infineon_Dave/eHaJo/FlapFlap/Libraries/XMCLib/inc\xmc_ccu4.h ****   XMC_CCU4_SLICE_TIMER_COUNT_MODE_EA  = 0U, /**< Edge Aligned Mode */
 242:C:/Projekte/Infineon_Dave/eHaJo/FlapFlap/Libraries/XMCLib/inc\xmc_ccu4.h ****   XMC_CCU4_SLICE_TIMER_COUNT_MODE_CA        /**< Center Aligned Mode */
 243:C:/Projekte/Infineon_Dave/eHaJo/FlapFlap/Libraries/XMCLib/inc\xmc_ccu4.h **** } XMC_CCU4_SLICE_TIMER_COUNT_MODE_t;
 244:C:/Projekte/Infineon_Dave/eHaJo/FlapFlap/Libraries/XMCLib/inc\xmc_ccu4.h **** 
 245:C:/Projekte/Infineon_Dave/eHaJo/FlapFlap/Libraries/XMCLib/inc\xmc_ccu4.h **** /**
 246:C:/Projekte/Infineon_Dave/eHaJo/FlapFlap/Libraries/XMCLib/inc\xmc_ccu4.h ****  *  Timer repetition mode for the slice
 247:C:/Projekte/Infineon_Dave/eHaJo/FlapFlap/Libraries/XMCLib/inc\xmc_ccu4.h ****  */ 
 248:C:/Projekte/Infineon_Dave/eHaJo/FlapFlap/Libraries/XMCLib/inc\xmc_ccu4.h **** typedef enum XMC_CCU4_SLICE_TIMER_REPEAT_MODE
 249:C:/Projekte/Infineon_Dave/eHaJo/FlapFlap/Libraries/XMCLib/inc\xmc_ccu4.h **** {
 250:C:/Projekte/Infineon_Dave/eHaJo/FlapFlap/Libraries/XMCLib/inc\xmc_ccu4.h ****   XMC_CCU4_SLICE_TIMER_REPEAT_MODE_REPEAT = 0U,  /**< Repetitive mode: continuous mode of operation
 251:C:/Projekte/Infineon_Dave/eHaJo/FlapFlap/Libraries/XMCLib/inc\xmc_ccu4.h ****   XMC_CCU4_SLICE_TIMER_REPEAT_MODE_SINGLE        /**< Single shot mode: Once a Period match/One mat
 252:C:/Projekte/Infineon_Dave/eHaJo/FlapFlap/Libraries/XMCLib/inc\xmc_ccu4.h ****                                                       occurs timer goes to idle state */
 253:C:/Projekte/Infineon_Dave/eHaJo/FlapFlap/Libraries/XMCLib/inc\xmc_ccu4.h **** } XMC_CCU4_SLICE_TIMER_REPEAT_MODE_t;
 254:C:/Projekte/Infineon_Dave/eHaJo/FlapFlap/Libraries/XMCLib/inc\xmc_ccu4.h **** 
 255:C:/Projekte/Infineon_Dave/eHaJo/FlapFlap/Libraries/XMCLib/inc\xmc_ccu4.h **** /**
 256:C:/Projekte/Infineon_Dave/eHaJo/FlapFlap/Libraries/XMCLib/inc\xmc_ccu4.h ****  * Timer counting direction for the CCU4 slice
 257:C:/Projekte/Infineon_Dave/eHaJo/FlapFlap/Libraries/XMCLib/inc\xmc_ccu4.h ****  */ 
 258:C:/Projekte/Infineon_Dave/eHaJo/FlapFlap/Libraries/XMCLib/inc\xmc_ccu4.h **** typedef enum XMC_CCU4_SLICE_TIMER_COUNT_DIR
 259:C:/Projekte/Infineon_Dave/eHaJo/FlapFlap/Libraries/XMCLib/inc\xmc_ccu4.h **** {
 260:C:/Projekte/Infineon_Dave/eHaJo/FlapFlap/Libraries/XMCLib/inc\xmc_ccu4.h ****   XMC_CCU4_SLICE_TIMER_COUNT_DIR_UP   = 0U, /**< Counting up */
 261:C:/Projekte/Infineon_Dave/eHaJo/FlapFlap/Libraries/XMCLib/inc\xmc_ccu4.h ****   XMC_CCU4_SLICE_TIMER_COUNT_DIR_DOWN       /**< Counting down */
 262:C:/Projekte/Infineon_Dave/eHaJo/FlapFlap/Libraries/XMCLib/inc\xmc_ccu4.h **** } XMC_CCU4_SLICE_TIMER_COUNT_DIR_t;
 263:C:/Projekte/Infineon_Dave/eHaJo/FlapFlap/Libraries/XMCLib/inc\xmc_ccu4.h **** 
 264:C:/Projekte/Infineon_Dave/eHaJo/FlapFlap/Libraries/XMCLib/inc\xmc_ccu4.h **** /**
 265:C:/Projekte/Infineon_Dave/eHaJo/FlapFlap/Libraries/XMCLib/inc\xmc_ccu4.h ****  *  Capture mode register sets
 266:C:/Projekte/Infineon_Dave/eHaJo/FlapFlap/Libraries/XMCLib/inc\xmc_ccu4.h ****  */ 
 267:C:/Projekte/Infineon_Dave/eHaJo/FlapFlap/Libraries/XMCLib/inc\xmc_ccu4.h **** typedef enum XMC_CCU4_SLICE_CAP_REG_SET
 268:C:/Projekte/Infineon_Dave/eHaJo/FlapFlap/Libraries/XMCLib/inc\xmc_ccu4.h **** {
 269:C:/Projekte/Infineon_Dave/eHaJo/FlapFlap/Libraries/XMCLib/inc\xmc_ccu4.h ****   XMC_CCU4_SLICE_CAP_REG_SET_LOW  = 0U, /**< Capture register-0, Capture register-1 used */
 270:C:/Projekte/Infineon_Dave/eHaJo/FlapFlap/Libraries/XMCLib/inc\xmc_ccu4.h ****   XMC_CCU4_SLICE_CAP_REG_SET_HIGH       /**< Capture register-2, Capture register-3 used */
 271:C:/Projekte/Infineon_Dave/eHaJo/FlapFlap/Libraries/XMCLib/inc\xmc_ccu4.h **** } XMC_CCU4_SLICE_CAP_REG_SET_t;
 272:C:/Projekte/Infineon_Dave/eHaJo/FlapFlap/Libraries/XMCLib/inc\xmc_ccu4.h **** 
 273:C:/Projekte/Infineon_Dave/eHaJo/FlapFlap/Libraries/XMCLib/inc\xmc_ccu4.h **** /**
 274:C:/Projekte/Infineon_Dave/eHaJo/FlapFlap/Libraries/XMCLib/inc\xmc_ccu4.h ****  *  Prescaler mode
 275:C:/Projekte/Infineon_Dave/eHaJo/FlapFlap/Libraries/XMCLib/inc\xmc_ccu4.h ****  */ 
 276:C:/Projekte/Infineon_Dave/eHaJo/FlapFlap/Libraries/XMCLib/inc\xmc_ccu4.h **** typedef enum XMC_CCU4_SLICE_PRESCALER_MODE
 277:C:/Projekte/Infineon_Dave/eHaJo/FlapFlap/Libraries/XMCLib/inc\xmc_ccu4.h **** {
 278:C:/Projekte/Infineon_Dave/eHaJo/FlapFlap/Libraries/XMCLib/inc\xmc_ccu4.h ****   XMC_CCU4_SLICE_PRESCALER_MODE_NORMAL = 0U, /**< Fixed division of module clock */
 279:C:/Projekte/Infineon_Dave/eHaJo/FlapFlap/Libraries/XMCLib/inc\xmc_ccu4.h ****   XMC_CCU4_SLICE_PRESCALER_MODE_FLOAT        /**< Floating divider. */
 280:C:/Projekte/Infineon_Dave/eHaJo/FlapFlap/Libraries/XMCLib/inc\xmc_ccu4.h **** } XMC_CCU4_SLICE_PRESCALER_MODE_t;
 281:C:/Projekte/Infineon_Dave/eHaJo/FlapFlap/Libraries/XMCLib/inc\xmc_ccu4.h **** 
 282:C:/Projekte/Infineon_Dave/eHaJo/FlapFlap/Libraries/XMCLib/inc\xmc_ccu4.h **** /**
 283:C:/Projekte/Infineon_Dave/eHaJo/FlapFlap/Libraries/XMCLib/inc\xmc_ccu4.h ****  *  Timer output passive level
 284:C:/Projekte/Infineon_Dave/eHaJo/FlapFlap/Libraries/XMCLib/inc\xmc_ccu4.h ****  */ 
 285:C:/Projekte/Infineon_Dave/eHaJo/FlapFlap/Libraries/XMCLib/inc\xmc_ccu4.h **** typedef enum XMC_CCU4_SLICE_OUTPUT_PASSIVE_LEVEL
 286:C:/Projekte/Infineon_Dave/eHaJo/FlapFlap/Libraries/XMCLib/inc\xmc_ccu4.h **** {
 287:C:/Projekte/Infineon_Dave/eHaJo/FlapFlap/Libraries/XMCLib/inc\xmc_ccu4.h ****   XMC_CCU4_SLICE_OUTPUT_PASSIVE_LEVEL_LOW  = 0U, /**< Passive level = Low */
 288:C:/Projekte/Infineon_Dave/eHaJo/FlapFlap/Libraries/XMCLib/inc\xmc_ccu4.h ****   XMC_CCU4_SLICE_OUTPUT_PASSIVE_LEVEL_HIGH       /**< Passive level = High */
 289:C:/Projekte/Infineon_Dave/eHaJo/FlapFlap/Libraries/XMCLib/inc\xmc_ccu4.h **** } XMC_CCU4_SLICE_OUTPUT_PASSIVE_LEVEL_t;
 290:C:/Projekte/Infineon_Dave/eHaJo/FlapFlap/Libraries/XMCLib/inc\xmc_ccu4.h **** 
 291:C:/Projekte/Infineon_Dave/eHaJo/FlapFlap/Libraries/XMCLib/inc\xmc_ccu4.h **** /**
 292:C:/Projekte/Infineon_Dave/eHaJo/FlapFlap/Libraries/XMCLib/inc\xmc_ccu4.h ****  * Timer clock Divider
 293:C:/Projekte/Infineon_Dave/eHaJo/FlapFlap/Libraries/XMCLib/inc\xmc_ccu4.h ****  */
 294:C:/Projekte/Infineon_Dave/eHaJo/FlapFlap/Libraries/XMCLib/inc\xmc_ccu4.h **** typedef enum XMC_CCU4_SLICE_PRESCALER
 295:C:/Projekte/Infineon_Dave/eHaJo/FlapFlap/Libraries/XMCLib/inc\xmc_ccu4.h **** {
 296:C:/Projekte/Infineon_Dave/eHaJo/FlapFlap/Libraries/XMCLib/inc\xmc_ccu4.h ****   XMC_CCU4_SLICE_PRESCALER_1  = 0U, /**< Slice Clock = fccu4 */
 297:C:/Projekte/Infineon_Dave/eHaJo/FlapFlap/Libraries/XMCLib/inc\xmc_ccu4.h ****   XMC_CCU4_SLICE_PRESCALER_2      , /**< Slice Clock = fccu4/2 */
 298:C:/Projekte/Infineon_Dave/eHaJo/FlapFlap/Libraries/XMCLib/inc\xmc_ccu4.h ****   XMC_CCU4_SLICE_PRESCALER_4      , /**< Slice Clock = fccu4/4 */
 299:C:/Projekte/Infineon_Dave/eHaJo/FlapFlap/Libraries/XMCLib/inc\xmc_ccu4.h ****   XMC_CCU4_SLICE_PRESCALER_8      , /**< Slice Clock = fccu4/8 */
 300:C:/Projekte/Infineon_Dave/eHaJo/FlapFlap/Libraries/XMCLib/inc\xmc_ccu4.h ****   XMC_CCU4_SLICE_PRESCALER_16     , /**< Slice Clock = fccu4/16 */
 301:C:/Projekte/Infineon_Dave/eHaJo/FlapFlap/Libraries/XMCLib/inc\xmc_ccu4.h ****   XMC_CCU4_SLICE_PRESCALER_32     , /**< Slice Clock = fccu4/32 */
 302:C:/Projekte/Infineon_Dave/eHaJo/FlapFlap/Libraries/XMCLib/inc\xmc_ccu4.h ****   XMC_CCU4_SLICE_PRESCALER_64     , /**< Slice Clock = fccu4/64 */
 303:C:/Projekte/Infineon_Dave/eHaJo/FlapFlap/Libraries/XMCLib/inc\xmc_ccu4.h ****   XMC_CCU4_SLICE_PRESCALER_128    , /**< Slice Clock = fccu4/128 */
 304:C:/Projekte/Infineon_Dave/eHaJo/FlapFlap/Libraries/XMCLib/inc\xmc_ccu4.h ****   XMC_CCU4_SLICE_PRESCALER_256    , /**< Slice Clock = fccu4/256 */
 305:C:/Projekte/Infineon_Dave/eHaJo/FlapFlap/Libraries/XMCLib/inc\xmc_ccu4.h ****   XMC_CCU4_SLICE_PRESCALER_512    , /**< Slice Clock = fccu4/512 */
 306:C:/Projekte/Infineon_Dave/eHaJo/FlapFlap/Libraries/XMCLib/inc\xmc_ccu4.h ****   XMC_CCU4_SLICE_PRESCALER_1024   , /**< Slice Clock = fccu4/1024 */
 307:C:/Projekte/Infineon_Dave/eHaJo/FlapFlap/Libraries/XMCLib/inc\xmc_ccu4.h ****   XMC_CCU4_SLICE_PRESCALER_2048   , /**< Slice Clock = fccu4/2048 */
 308:C:/Projekte/Infineon_Dave/eHaJo/FlapFlap/Libraries/XMCLib/inc\xmc_ccu4.h ****   XMC_CCU4_SLICE_PRESCALER_4096   , /**< Slice Clock = fccu4/4096 */
 309:C:/Projekte/Infineon_Dave/eHaJo/FlapFlap/Libraries/XMCLib/inc\xmc_ccu4.h ****   XMC_CCU4_SLICE_PRESCALER_8192   , /**< Slice Clock = fccu4/8192 */
 310:C:/Projekte/Infineon_Dave/eHaJo/FlapFlap/Libraries/XMCLib/inc\xmc_ccu4.h ****   XMC_CCU4_SLICE_PRESCALER_16384  , /**< Slice Clock = fccu4/16384 */
 311:C:/Projekte/Infineon_Dave/eHaJo/FlapFlap/Libraries/XMCLib/inc\xmc_ccu4.h ****   XMC_CCU4_SLICE_PRESCALER_32768    /**< Slice Clock = fccu4/32768 */
 312:C:/Projekte/Infineon_Dave/eHaJo/FlapFlap/Libraries/XMCLib/inc\xmc_ccu4.h **** } XMC_CCU4_SLICE_PRESCALER_t;
 313:C:/Projekte/Infineon_Dave/eHaJo/FlapFlap/Libraries/XMCLib/inc\xmc_ccu4.h **** 
 314:C:/Projekte/Infineon_Dave/eHaJo/FlapFlap/Libraries/XMCLib/inc\xmc_ccu4.h **** /**
 315:C:/Projekte/Infineon_Dave/eHaJo/FlapFlap/Libraries/XMCLib/inc\xmc_ccu4.h ****  *  External Function list
 316:C:/Projekte/Infineon_Dave/eHaJo/FlapFlap/Libraries/XMCLib/inc\xmc_ccu4.h ****  */ 
 317:C:/Projekte/Infineon_Dave/eHaJo/FlapFlap/Libraries/XMCLib/inc\xmc_ccu4.h **** typedef enum XMC_CCU4_SLICE_FUNCTION
 318:C:/Projekte/Infineon_Dave/eHaJo/FlapFlap/Libraries/XMCLib/inc\xmc_ccu4.h **** {
 319:C:/Projekte/Infineon_Dave/eHaJo/FlapFlap/Libraries/XMCLib/inc\xmc_ccu4.h ****   XMC_CCU4_SLICE_FUNCTION_START           = 0U, /**< Start function */
 320:C:/Projekte/Infineon_Dave/eHaJo/FlapFlap/Libraries/XMCLib/inc\xmc_ccu4.h ****   XMC_CCU4_SLICE_FUNCTION_STOP                , /**< Stop function */
 321:C:/Projekte/Infineon_Dave/eHaJo/FlapFlap/Libraries/XMCLib/inc\xmc_ccu4.h ****   XMC_CCU4_SLICE_FUNCTION_CAPTURE_EVENT0      , /**< Capture Event-0 function, CCycapt0 signal is u
 322:C:/Projekte/Infineon_Dave/eHaJo/FlapFlap/Libraries/XMCLib/inc\xmc_ccu4.h ****                                                      generation */
 323:C:/Projekte/Infineon_Dave/eHaJo/FlapFlap/Libraries/XMCLib/inc\xmc_ccu4.h ****   XMC_CCU4_SLICE_FUNCTION_CAPTURE_EVENT1      , /**< Capture Event-1 function, CCycapt1 signal is u
 324:C:/Projekte/Infineon_Dave/eHaJo/FlapFlap/Libraries/XMCLib/inc\xmc_ccu4.h ****                                                      generation */
 325:C:/Projekte/Infineon_Dave/eHaJo/FlapFlap/Libraries/XMCLib/inc\xmc_ccu4.h ****   XMC_CCU4_SLICE_FUNCTION_GATING              , /**< Gating function */
 326:C:/Projekte/Infineon_Dave/eHaJo/FlapFlap/Libraries/XMCLib/inc\xmc_ccu4.h ****   XMC_CCU4_SLICE_FUNCTION_DIRECTION           , /**< Direction function */
 327:C:/Projekte/Infineon_Dave/eHaJo/FlapFlap/Libraries/XMCLib/inc\xmc_ccu4.h ****   XMC_CCU4_SLICE_FUNCTION_LOAD                , /**< Load function */
 328:C:/Projekte/Infineon_Dave/eHaJo/FlapFlap/Libraries/XMCLib/inc\xmc_ccu4.h ****   XMC_CCU4_SLICE_FUNCTION_COUNT               , /**< Counting function */
 329:C:/Projekte/Infineon_Dave/eHaJo/FlapFlap/Libraries/XMCLib/inc\xmc_ccu4.h ****   XMC_CCU4_SLICE_FUNCTION_OVERRIDE            , /**< Override function */
 330:C:/Projekte/Infineon_Dave/eHaJo/FlapFlap/Libraries/XMCLib/inc\xmc_ccu4.h ****   XMC_CCU4_SLICE_FUNCTION_MODULATION          , /**< Modulation function */
 331:C:/Projekte/Infineon_Dave/eHaJo/FlapFlap/Libraries/XMCLib/inc\xmc_ccu4.h ****   XMC_CCU4_SLICE_FUNCTION_TRAP                  /**< Trap function */
 332:C:/Projekte/Infineon_Dave/eHaJo/FlapFlap/Libraries/XMCLib/inc\xmc_ccu4.h **** } XMC_CCU4_SLICE_FUNCTION_t;
 333:C:/Projekte/Infineon_Dave/eHaJo/FlapFlap/Libraries/XMCLib/inc\xmc_ccu4.h **** 
 334:C:/Projekte/Infineon_Dave/eHaJo/FlapFlap/Libraries/XMCLib/inc\xmc_ccu4.h **** /**
 335:C:/Projekte/Infineon_Dave/eHaJo/FlapFlap/Libraries/XMCLib/inc\xmc_ccu4.h ****  *  External Event list
 336:C:/Projekte/Infineon_Dave/eHaJo/FlapFlap/Libraries/XMCLib/inc\xmc_ccu4.h ****  */ 
 337:C:/Projekte/Infineon_Dave/eHaJo/FlapFlap/Libraries/XMCLib/inc\xmc_ccu4.h **** typedef enum XMC_CCU4_SLICE_EVENT
 338:C:/Projekte/Infineon_Dave/eHaJo/FlapFlap/Libraries/XMCLib/inc\xmc_ccu4.h **** {
 339:C:/Projekte/Infineon_Dave/eHaJo/FlapFlap/Libraries/XMCLib/inc\xmc_ccu4.h ****   XMC_CCU4_SLICE_EVENT_NONE  = 0U, /**< None */
 340:C:/Projekte/Infineon_Dave/eHaJo/FlapFlap/Libraries/XMCLib/inc\xmc_ccu4.h ****   XMC_CCU4_SLICE_EVENT_0         , /**< Event-0 */
 341:C:/Projekte/Infineon_Dave/eHaJo/FlapFlap/Libraries/XMCLib/inc\xmc_ccu4.h ****   XMC_CCU4_SLICE_EVENT_1         , /**< Event-1 */
 342:C:/Projekte/Infineon_Dave/eHaJo/FlapFlap/Libraries/XMCLib/inc\xmc_ccu4.h ****   XMC_CCU4_SLICE_EVENT_2           /**< Event-2 */
 343:C:/Projekte/Infineon_Dave/eHaJo/FlapFlap/Libraries/XMCLib/inc\xmc_ccu4.h **** } XMC_CCU4_SLICE_EVENT_t;
 344:C:/Projekte/Infineon_Dave/eHaJo/FlapFlap/Libraries/XMCLib/inc\xmc_ccu4.h **** 
 345:C:/Projekte/Infineon_Dave/eHaJo/FlapFlap/Libraries/XMCLib/inc\xmc_ccu4.h **** /**
 346:C:/Projekte/Infineon_Dave/eHaJo/FlapFlap/Libraries/XMCLib/inc\xmc_ccu4.h ****  *  External Event trigger criteria  - Edge sensitivity
 347:C:/Projekte/Infineon_Dave/eHaJo/FlapFlap/Libraries/XMCLib/inc\xmc_ccu4.h ****  */ 
 348:C:/Projekte/Infineon_Dave/eHaJo/FlapFlap/Libraries/XMCLib/inc\xmc_ccu4.h **** typedef enum XMC_CCU4_SLICE_EVENT_EDGE_SENSITIVITY
 349:C:/Projekte/Infineon_Dave/eHaJo/FlapFlap/Libraries/XMCLib/inc\xmc_ccu4.h **** {
 350:C:/Projekte/Infineon_Dave/eHaJo/FlapFlap/Libraries/XMCLib/inc\xmc_ccu4.h ****   XMC_CCU4_SLICE_EVENT_EDGE_SENSITIVITY_NONE         = 0U, /**< None */
 351:C:/Projekte/Infineon_Dave/eHaJo/FlapFlap/Libraries/XMCLib/inc\xmc_ccu4.h ****   XMC_CCU4_SLICE_EVENT_EDGE_SENSITIVITY_RISING_EDGE      , /**< Rising Edge of the input signal gen
 352:C:/Projekte/Infineon_Dave/eHaJo/FlapFlap/Libraries/XMCLib/inc\xmc_ccu4.h ****   XMC_CCU4_SLICE_EVENT_EDGE_SENSITIVITY_FALLING_EDGE     , /**< Falling Edge of the input signal ge
 353:C:/Projekte/Infineon_Dave/eHaJo/FlapFlap/Libraries/XMCLib/inc\xmc_ccu4.h ****                                                                 trigger */
 354:C:/Projekte/Infineon_Dave/eHaJo/FlapFlap/Libraries/XMCLib/inc\xmc_ccu4.h ****   XMC_CCU4_SLICE_EVENT_EDGE_SENSITIVITY_DUAL_EDGE          /**< Both Rising and Falling edges cause
 355:C:/Projekte/Infineon_Dave/eHaJo/FlapFlap/Libraries/XMCLib/inc\xmc_ccu4.h **** } XMC_CCU4_SLICE_EVENT_EDGE_SENSITIVITY_t;
 356:C:/Projekte/Infineon_Dave/eHaJo/FlapFlap/Libraries/XMCLib/inc\xmc_ccu4.h **** 
 357:C:/Projekte/Infineon_Dave/eHaJo/FlapFlap/Libraries/XMCLib/inc\xmc_ccu4.h **** /**
 358:C:/Projekte/Infineon_Dave/eHaJo/FlapFlap/Libraries/XMCLib/inc\xmc_ccu4.h ****  *  External Event trigger criteria  - Level sensitivity
 359:C:/Projekte/Infineon_Dave/eHaJo/FlapFlap/Libraries/XMCLib/inc\xmc_ccu4.h ****  */ 
 360:C:/Projekte/Infineon_Dave/eHaJo/FlapFlap/Libraries/XMCLib/inc\xmc_ccu4.h **** typedef enum XMC_CCU4_SLICE_EVENT_LEVEL_SENSITIVITY
 361:C:/Projekte/Infineon_Dave/eHaJo/FlapFlap/Libraries/XMCLib/inc\xmc_ccu4.h **** {
 362:C:/Projekte/Infineon_Dave/eHaJo/FlapFlap/Libraries/XMCLib/inc\xmc_ccu4.h ****   XMC_CCU4_SLICE_EVENT_LEVEL_SENSITIVITY_ACTIVE_HIGH = 0U, /**< Level sensitive functions react to 
 363:C:/Projekte/Infineon_Dave/eHaJo/FlapFlap/Libraries/XMCLib/inc\xmc_ccu4.h ****   XMC_CCU4_SLICE_EVENT_LEVEL_SENSITIVITY_ACTIVE_LOW  = 1U, /**< Level sensitive functions react to 
 364:C:/Projekte/Infineon_Dave/eHaJo/FlapFlap/Libraries/XMCLib/inc\xmc_ccu4.h ****   /* Below enum items can be utilised specific to the functionality */
 365:C:/Projekte/Infineon_Dave/eHaJo/FlapFlap/Libraries/XMCLib/inc\xmc_ccu4.h ****   XMC_CCU4_SLICE_EVENT_LEVEL_SENSITIVITY_COUNT_UP_ON_LOW = 0U, /**< Timer counts up, during Low sta
 366:C:/Projekte/Infineon_Dave/eHaJo/FlapFlap/Libraries/XMCLib/inc\xmc_ccu4.h ****   XMC_CCU4_SLICE_EVENT_LEVEL_SENSITIVITY_COUNT_UP_ON_HIGH = 1U /**< Timer counts up, during High st
 367:C:/Projekte/Infineon_Dave/eHaJo/FlapFlap/Libraries/XMCLib/inc\xmc_ccu4.h **** } XMC_CCU4_SLICE_EVENT_LEVEL_SENSITIVITY_t;
 368:C:/Projekte/Infineon_Dave/eHaJo/FlapFlap/Libraries/XMCLib/inc\xmc_ccu4.h **** 
 369:C:/Projekte/Infineon_Dave/eHaJo/FlapFlap/Libraries/XMCLib/inc\xmc_ccu4.h **** /**
 370:C:/Projekte/Infineon_Dave/eHaJo/FlapFlap/Libraries/XMCLib/inc\xmc_ccu4.h ****  *  Low pass filter Configuration. The External Event input should be stable for a selected number 
 371:C:/Projekte/Infineon_Dave/eHaJo/FlapFlap/Libraries/XMCLib/inc\xmc_ccu4.h ****  */ 
 372:C:/Projekte/Infineon_Dave/eHaJo/FlapFlap/Libraries/XMCLib/inc\xmc_ccu4.h **** typedef enum XMC_CCU4_SLICE_EVENT_FILTER
 373:C:/Projekte/Infineon_Dave/eHaJo/FlapFlap/Libraries/XMCLib/inc\xmc_ccu4.h **** {
 374:C:/Projekte/Infineon_Dave/eHaJo/FlapFlap/Libraries/XMCLib/inc\xmc_ccu4.h ****   XMC_CCU4_SLICE_EVENT_FILTER_DISABLED  = 0U, /**< No Low Pass Filter */
 375:C:/Projekte/Infineon_Dave/eHaJo/FlapFlap/Libraries/XMCLib/inc\xmc_ccu4.h ****   XMC_CCU4_SLICE_EVENT_FILTER_3_CYCLES      , /**< 3 clock cycles */
 376:C:/Projekte/Infineon_Dave/eHaJo/FlapFlap/Libraries/XMCLib/inc\xmc_ccu4.h ****   XMC_CCU4_SLICE_EVENT_FILTER_5_CYCLES      , /**< 5 clock cycles */
 377:C:/Projekte/Infineon_Dave/eHaJo/FlapFlap/Libraries/XMCLib/inc\xmc_ccu4.h ****   XMC_CCU4_SLICE_EVENT_FILTER_7_CYCLES        /**< 7 clock cycles */
 378:C:/Projekte/Infineon_Dave/eHaJo/FlapFlap/Libraries/XMCLib/inc\xmc_ccu4.h **** } XMC_CCU4_SLICE_EVENT_FILTER_t;
 379:C:/Projekte/Infineon_Dave/eHaJo/FlapFlap/Libraries/XMCLib/inc\xmc_ccu4.h **** 
 380:C:/Projekte/Infineon_Dave/eHaJo/FlapFlap/Libraries/XMCLib/inc\xmc_ccu4.h **** /**
 381:C:/Projekte/Infineon_Dave/eHaJo/FlapFlap/Libraries/XMCLib/inc\xmc_ccu4.h ****  *  External Event Input list. This list depicts the possible input connections to the CCU4 slice.
 382:C:/Projekte/Infineon_Dave/eHaJo/FlapFlap/Libraries/XMCLib/inc\xmc_ccu4.h ****  *  Interconnects are specific to each device.
 383:C:/Projekte/Infineon_Dave/eHaJo/FlapFlap/Libraries/XMCLib/inc\xmc_ccu4.h ****  */ 
 384:C:/Projekte/Infineon_Dave/eHaJo/FlapFlap/Libraries/XMCLib/inc\xmc_ccu4.h **** typedef uint8_t XMC_CCU4_SLICE_INPUT_t;
 385:C:/Projekte/Infineon_Dave/eHaJo/FlapFlap/Libraries/XMCLib/inc\xmc_ccu4.h **** 
 386:C:/Projekte/Infineon_Dave/eHaJo/FlapFlap/Libraries/XMCLib/inc\xmc_ccu4.h **** /**
 387:C:/Projekte/Infineon_Dave/eHaJo/FlapFlap/Libraries/XMCLib/inc\xmc_ccu4.h ****  * Actions that can be performed upon detection of an external Timer STOP event
 388:C:/Projekte/Infineon_Dave/eHaJo/FlapFlap/Libraries/XMCLib/inc\xmc_ccu4.h ****  */ 
 389:C:/Projekte/Infineon_Dave/eHaJo/FlapFlap/Libraries/XMCLib/inc\xmc_ccu4.h **** typedef enum XMC_CCU4_SLICE_END_MODE
 390:C:/Projekte/Infineon_Dave/eHaJo/FlapFlap/Libraries/XMCLib/inc\xmc_ccu4.h **** {
 391:C:/Projekte/Infineon_Dave/eHaJo/FlapFlap/Libraries/XMCLib/inc\xmc_ccu4.h ****   XMC_CCU4_SLICE_END_MODE_TIMER_STOP       = 0U, /**< Stops the timer, without clearing TIMER regis
 392:C:/Projekte/Infineon_Dave/eHaJo/FlapFlap/Libraries/XMCLib/inc\xmc_ccu4.h ****   XMC_CCU4_SLICE_END_MODE_TIMER_CLEAR          , /**< Without stopping timer, clears the TIMER regi
 393:C:/Projekte/Infineon_Dave/eHaJo/FlapFlap/Libraries/XMCLib/inc\xmc_ccu4.h ****   XMC_CCU4_SLICE_END_MODE_TIMER_STOP_CLEAR       /**< Stops the timer and clears the TIMER register
 394:C:/Projekte/Infineon_Dave/eHaJo/FlapFlap/Libraries/XMCLib/inc\xmc_ccu4.h **** } XMC_CCU4_SLICE_END_MODE_t;
 395:C:/Projekte/Infineon_Dave/eHaJo/FlapFlap/Libraries/XMCLib/inc\xmc_ccu4.h **** 
 396:C:/Projekte/Infineon_Dave/eHaJo/FlapFlap/Libraries/XMCLib/inc\xmc_ccu4.h **** /**
 397:C:/Projekte/Infineon_Dave/eHaJo/FlapFlap/Libraries/XMCLib/inc\xmc_ccu4.h ****  *  Actions that can be performed upon detection of an external Timer START event
 398:C:/Projekte/Infineon_Dave/eHaJo/FlapFlap/Libraries/XMCLib/inc\xmc_ccu4.h ****  */ 
 399:C:/Projekte/Infineon_Dave/eHaJo/FlapFlap/Libraries/XMCLib/inc\xmc_ccu4.h **** typedef enum XMC_CCU4_SLICE_START_MODE
 400:C:/Projekte/Infineon_Dave/eHaJo/FlapFlap/Libraries/XMCLib/inc\xmc_ccu4.h **** {
 401:C:/Projekte/Infineon_Dave/eHaJo/FlapFlap/Libraries/XMCLib/inc\xmc_ccu4.h ****   XMC_CCU4_SLICE_START_MODE_TIMER_START       = 0U, /**< Start the timer from the current count of 
 402:C:/Projekte/Infineon_Dave/eHaJo/FlapFlap/Libraries/XMCLib/inc\xmc_ccu4.h ****   XMC_CCU4_SLICE_START_MODE_TIMER_START_CLEAR       /**< Clears the TIMER register and start the ti
 403:C:/Projekte/Infineon_Dave/eHaJo/FlapFlap/Libraries/XMCLib/inc\xmc_ccu4.h **** } XMC_CCU4_SLICE_START_MODE_t;
 404:C:/Projekte/Infineon_Dave/eHaJo/FlapFlap/Libraries/XMCLib/inc\xmc_ccu4.h **** 
 405:C:/Projekte/Infineon_Dave/eHaJo/FlapFlap/Libraries/XMCLib/inc\xmc_ccu4.h **** /**
 406:C:/Projekte/Infineon_Dave/eHaJo/FlapFlap/Libraries/XMCLib/inc\xmc_ccu4.h ****  *  Modulation of timer output signals
 407:C:/Projekte/Infineon_Dave/eHaJo/FlapFlap/Libraries/XMCLib/inc\xmc_ccu4.h ****  */ 
 408:C:/Projekte/Infineon_Dave/eHaJo/FlapFlap/Libraries/XMCLib/inc\xmc_ccu4.h **** typedef enum XMC_CCU4_SLICE_MODULATION_MODE
 409:C:/Projekte/Infineon_Dave/eHaJo/FlapFlap/Libraries/XMCLib/inc\xmc_ccu4.h **** {
 410:C:/Projekte/Infineon_Dave/eHaJo/FlapFlap/Libraries/XMCLib/inc\xmc_ccu4.h ****   XMC_CCU4_SLICE_MODULATION_MODE_CLEAR_ST_OUT  = 0U, /**< Clear ST and OUT signals */
 411:C:/Projekte/Infineon_Dave/eHaJo/FlapFlap/Libraries/XMCLib/inc\xmc_ccu4.h ****   XMC_CCU4_SLICE_MODULATION_MODE_CLEAR_OUT           /**< Clear only the OUT signal */
 412:C:/Projekte/Infineon_Dave/eHaJo/FlapFlap/Libraries/XMCLib/inc\xmc_ccu4.h **** } XMC_CCU4_SLICE_MODULATION_MODE_t;
 413:C:/Projekte/Infineon_Dave/eHaJo/FlapFlap/Libraries/XMCLib/inc\xmc_ccu4.h **** 
 414:C:/Projekte/Infineon_Dave/eHaJo/FlapFlap/Libraries/XMCLib/inc\xmc_ccu4.h **** /**
 415:C:/Projekte/Infineon_Dave/eHaJo/FlapFlap/Libraries/XMCLib/inc\xmc_ccu4.h ****  *  Trap exit mode
 416:C:/Projekte/Infineon_Dave/eHaJo/FlapFlap/Libraries/XMCLib/inc\xmc_ccu4.h ****  */ 
 417:C:/Projekte/Infineon_Dave/eHaJo/FlapFlap/Libraries/XMCLib/inc\xmc_ccu4.h **** typedef enum XMC_CCU4_SLICE_TRAP_EXIT_MODE
 418:C:/Projekte/Infineon_Dave/eHaJo/FlapFlap/Libraries/XMCLib/inc\xmc_ccu4.h **** {
 419:C:/Projekte/Infineon_Dave/eHaJo/FlapFlap/Libraries/XMCLib/inc\xmc_ccu4.h ****   XMC_CCU4_SLICE_TRAP_EXIT_MODE_AUTOMATIC = 0U, /**< Clear trap state as soon as the trap signal is
 420:C:/Projekte/Infineon_Dave/eHaJo/FlapFlap/Libraries/XMCLib/inc\xmc_ccu4.h ****   XMC_CCU4_SLICE_TRAP_EXIT_MODE_SW              /**< Clear only when acknowledged by software */
 421:C:/Projekte/Infineon_Dave/eHaJo/FlapFlap/Libraries/XMCLib/inc\xmc_ccu4.h **** } XMC_CCU4_SLICE_TRAP_EXIT_MODE_t;
 422:C:/Projekte/Infineon_Dave/eHaJo/FlapFlap/Libraries/XMCLib/inc\xmc_ccu4.h **** 
 423:C:/Projekte/Infineon_Dave/eHaJo/FlapFlap/Libraries/XMCLib/inc\xmc_ccu4.h **** /**
 424:C:/Projekte/Infineon_Dave/eHaJo/FlapFlap/Libraries/XMCLib/inc\xmc_ccu4.h ****  *  Timer clear on capture
 425:C:/Projekte/Infineon_Dave/eHaJo/FlapFlap/Libraries/XMCLib/inc\xmc_ccu4.h ****  */ 
 426:C:/Projekte/Infineon_Dave/eHaJo/FlapFlap/Libraries/XMCLib/inc\xmc_ccu4.h **** typedef enum XMC_CCU4_SLICE_TIMER_CLEAR_MODE
 427:C:/Projekte/Infineon_Dave/eHaJo/FlapFlap/Libraries/XMCLib/inc\xmc_ccu4.h **** {
 428:C:/Projekte/Infineon_Dave/eHaJo/FlapFlap/Libraries/XMCLib/inc\xmc_ccu4.h ****   XMC_CCU4_SLICE_TIMER_CLEAR_MODE_NEVER    = 0U, /**< Never clear the timer on any capture event */
 429:C:/Projekte/Infineon_Dave/eHaJo/FlapFlap/Libraries/XMCLib/inc\xmc_ccu4.h ****   XMC_CCU4_SLICE_TIMER_CLEAR_MODE_CAP_HIGH     , /**< Clear only when timer value has been captured
 430:C:/Projekte/Infineon_Dave/eHaJo/FlapFlap/Libraries/XMCLib/inc\xmc_ccu4.h ****   XMC_CCU4_SLICE_TIMER_CLEAR_MODE_CAP_LOW      , /**< Clear only when timer value has been captured
 431:C:/Projekte/Infineon_Dave/eHaJo/FlapFlap/Libraries/XMCLib/inc\xmc_ccu4.h ****   XMC_CCU4_SLICE_TIMER_CLEAR_MODE_ALWAYS         /**< Always clear the timer upon detection of any 
 432:C:/Projekte/Infineon_Dave/eHaJo/FlapFlap/Libraries/XMCLib/inc\xmc_ccu4.h **** } XMC_CCU4_SLICE_TIMER_CLEAR_MODE_t;
 433:C:/Projekte/Infineon_Dave/eHaJo/FlapFlap/Libraries/XMCLib/inc\xmc_ccu4.h **** 
 434:C:/Projekte/Infineon_Dave/eHaJo/FlapFlap/Libraries/XMCLib/inc\xmc_ccu4.h **** /**
 435:C:/Projekte/Infineon_Dave/eHaJo/FlapFlap/Libraries/XMCLib/inc\xmc_ccu4.h ****  *  Multi Channel Shadow transfer request configuration options
 436:C:/Projekte/Infineon_Dave/eHaJo/FlapFlap/Libraries/XMCLib/inc\xmc_ccu4.h ****  */ 
 437:C:/Projekte/Infineon_Dave/eHaJo/FlapFlap/Libraries/XMCLib/inc\xmc_ccu4.h **** typedef enum XMC_CCU4_SLICE_MCMS_ACTION
 438:C:/Projekte/Infineon_Dave/eHaJo/FlapFlap/Libraries/XMCLib/inc\xmc_ccu4.h **** {
 439:C:/Projekte/Infineon_Dave/eHaJo/FlapFlap/Libraries/XMCLib/inc\xmc_ccu4.h ****   XMC_CCU4_SLICE_MCMS_ACTION_TRANSFER_PR_CR          = 0U, /**< Transfer Compare and Period Shadow 
 440:C:/Projekte/Infineon_Dave/eHaJo/FlapFlap/Libraries/XMCLib/inc\xmc_ccu4.h ****                                                                 the actual registers upon MCS xfer 
 441:C:/Projekte/Infineon_Dave/eHaJo/FlapFlap/Libraries/XMCLib/inc\xmc_ccu4.h ****   XMC_CCU4_SLICE_MCMS_ACTION_TRANSFER_PR_CR_PCMP     = 1U, /**< Transfer Compare, Period and Presca
 442:C:/Projekte/Infineon_Dave/eHaJo/FlapFlap/Libraries/XMCLib/inc\xmc_ccu4.h ****                                                                 register values to the actual regis
 443:C:/Projekte/Infineon_Dave/eHaJo/FlapFlap/Libraries/XMCLib/inc\xmc_ccu4.h ****                                                                 request */
 444:C:/Projekte/Infineon_Dave/eHaJo/FlapFlap/Libraries/XMCLib/inc\xmc_ccu4.h ****   XMC_CCU4_SLICE_MCMS_ACTION_TRANSFER_PR_CR_PCMP_DIT = 3U  /**< Transfer Compare, Period ,Prescaler
 445:C:/Projekte/Infineon_Dave/eHaJo/FlapFlap/Libraries/XMCLib/inc\xmc_ccu4.h ****                                                                 Compare register values to the actu
 446:C:/Projekte/Infineon_Dave/eHaJo/FlapFlap/Libraries/XMCLib/inc\xmc_ccu4.h ****                                                                 MCS xfer request */
 447:C:/Projekte/Infineon_Dave/eHaJo/FlapFlap/Libraries/XMCLib/inc\xmc_ccu4.h **** } XMC_CCU4_SLICE_MCMS_ACTION_t;
 448:C:/Projekte/Infineon_Dave/eHaJo/FlapFlap/Libraries/XMCLib/inc\xmc_ccu4.h **** 
 449:C:/Projekte/Infineon_Dave/eHaJo/FlapFlap/Libraries/XMCLib/inc\xmc_ccu4.h **** /**
 450:C:/Projekte/Infineon_Dave/eHaJo/FlapFlap/Libraries/XMCLib/inc\xmc_ccu4.h ****  * Available Interrupt Event Ids
 451:C:/Projekte/Infineon_Dave/eHaJo/FlapFlap/Libraries/XMCLib/inc\xmc_ccu4.h ****  */ 
 452:C:/Projekte/Infineon_Dave/eHaJo/FlapFlap/Libraries/XMCLib/inc\xmc_ccu4.h **** typedef enum XMC_CCU4_SLICE_IRQ_ID
 453:C:/Projekte/Infineon_Dave/eHaJo/FlapFlap/Libraries/XMCLib/inc\xmc_ccu4.h **** {
 454:C:/Projekte/Infineon_Dave/eHaJo/FlapFlap/Libraries/XMCLib/inc\xmc_ccu4.h ****   XMC_CCU4_SLICE_IRQ_ID_PERIOD_MATCH       = 0U , /**< Period match counting up */
 455:C:/Projekte/Infineon_Dave/eHaJo/FlapFlap/Libraries/XMCLib/inc\xmc_ccu4.h ****   XMC_CCU4_SLICE_IRQ_ID_ONE_MATCH          = 1U , /**< Period match -> One match counting down */
 456:C:/Projekte/Infineon_Dave/eHaJo/FlapFlap/Libraries/XMCLib/inc\xmc_ccu4.h ****   XMC_CCU4_SLICE_IRQ_ID_COMPARE_MATCH_UP   = 2U , /**< Compare match counting up */
 457:C:/Projekte/Infineon_Dave/eHaJo/FlapFlap/Libraries/XMCLib/inc\xmc_ccu4.h ****   XMC_CCU4_SLICE_IRQ_ID_COMPARE_MATCH_DOWN = 3U , /**< Compare match counting down */
 458:C:/Projekte/Infineon_Dave/eHaJo/FlapFlap/Libraries/XMCLib/inc\xmc_ccu4.h ****   XMC_CCU4_SLICE_IRQ_ID_EVENT0             = 8U , /**< Event-0 occurrence */
 459:C:/Projekte/Infineon_Dave/eHaJo/FlapFlap/Libraries/XMCLib/inc\xmc_ccu4.h ****   XMC_CCU4_SLICE_IRQ_ID_EVENT1             = 9U , /**< Event-1 occurrence */
 460:C:/Projekte/Infineon_Dave/eHaJo/FlapFlap/Libraries/XMCLib/inc\xmc_ccu4.h ****   XMC_CCU4_SLICE_IRQ_ID_EVENT2             = 10U, /**< Event-2 occurrence */
 461:C:/Projekte/Infineon_Dave/eHaJo/FlapFlap/Libraries/XMCLib/inc\xmc_ccu4.h ****   XMC_CCU4_SLICE_IRQ_ID_TRAP               = 11U  /**< Trap occurrence */
 462:C:/Projekte/Infineon_Dave/eHaJo/FlapFlap/Libraries/XMCLib/inc\xmc_ccu4.h **** } XMC_CCU4_SLICE_IRQ_ID_t;
 463:C:/Projekte/Infineon_Dave/eHaJo/FlapFlap/Libraries/XMCLib/inc\xmc_ccu4.h **** 
 464:C:/Projekte/Infineon_Dave/eHaJo/FlapFlap/Libraries/XMCLib/inc\xmc_ccu4.h **** /**
 465:C:/Projekte/Infineon_Dave/eHaJo/FlapFlap/Libraries/XMCLib/inc\xmc_ccu4.h ****  * Available Interrupt Event Ids, which is added to support multi event APIs
 466:C:/Projekte/Infineon_Dave/eHaJo/FlapFlap/Libraries/XMCLib/inc\xmc_ccu4.h ****  */
 467:C:/Projekte/Infineon_Dave/eHaJo/FlapFlap/Libraries/XMCLib/inc\xmc_ccu4.h **** typedef enum XMC_CCU4_SLICE_MULTI_IRQ_ID
 468:C:/Projekte/Infineon_Dave/eHaJo/FlapFlap/Libraries/XMCLib/inc\xmc_ccu4.h **** {
 469:C:/Projekte/Infineon_Dave/eHaJo/FlapFlap/Libraries/XMCLib/inc\xmc_ccu4.h ****   XMC_CCU4_SLICE_MULTI_IRQ_ID_PERIOD_MATCH       = 0x1U,   /**< Period match counting up */
 470:C:/Projekte/Infineon_Dave/eHaJo/FlapFlap/Libraries/XMCLib/inc\xmc_ccu4.h ****   XMC_CCU4_SLICE_MULTI_IRQ_ID_ONE_MATCH          = 0x2U,   /**< Period match -> One match counting 
 471:C:/Projekte/Infineon_Dave/eHaJo/FlapFlap/Libraries/XMCLib/inc\xmc_ccu4.h ****   XMC_CCU4_SLICE_MULTI_IRQ_ID_COMPARE_MATCH_UP   = 0x4U,   /**< Compare match counting up */
 472:C:/Projekte/Infineon_Dave/eHaJo/FlapFlap/Libraries/XMCLib/inc\xmc_ccu4.h ****   XMC_CCU4_SLICE_MULTI_IRQ_ID_COMPARE_MATCH_DOWN = 0x8U,   /**< Compare match counting down */
 473:C:/Projekte/Infineon_Dave/eHaJo/FlapFlap/Libraries/XMCLib/inc\xmc_ccu4.h ****   XMC_CCU4_SLICE_MULTI_IRQ_ID_EVENT0             = 0x100U, /**< Event-0 occurrence */
 474:C:/Projekte/Infineon_Dave/eHaJo/FlapFlap/Libraries/XMCLib/inc\xmc_ccu4.h ****   XMC_CCU4_SLICE_MULTI_IRQ_ID_EVENT1             = 0x200U, /**< Event-1 occurrence */
 475:C:/Projekte/Infineon_Dave/eHaJo/FlapFlap/Libraries/XMCLib/inc\xmc_ccu4.h ****   XMC_CCU4_SLICE_MULTI_IRQ_ID_EVENT2             = 0x400U, /**< Event-2 occurrence */
 476:C:/Projekte/Infineon_Dave/eHaJo/FlapFlap/Libraries/XMCLib/inc\xmc_ccu4.h **** } XMC_CCU4_SLICE_MULTI_IRQ_ID_t;
 477:C:/Projekte/Infineon_Dave/eHaJo/FlapFlap/Libraries/XMCLib/inc\xmc_ccu4.h **** 
 478:C:/Projekte/Infineon_Dave/eHaJo/FlapFlap/Libraries/XMCLib/inc\xmc_ccu4.h **** /**
 479:C:/Projekte/Infineon_Dave/eHaJo/FlapFlap/Libraries/XMCLib/inc\xmc_ccu4.h ****  * Service Request Lines for CCU4. Event are mapped to these SR lines and these are used to generat
 480:C:/Projekte/Infineon_Dave/eHaJo/FlapFlap/Libraries/XMCLib/inc\xmc_ccu4.h ****  */ 
 481:C:/Projekte/Infineon_Dave/eHaJo/FlapFlap/Libraries/XMCLib/inc\xmc_ccu4.h **** typedef enum XMC_CCU4_SLICE_SR_ID
 482:C:/Projekte/Infineon_Dave/eHaJo/FlapFlap/Libraries/XMCLib/inc\xmc_ccu4.h **** {
 483:C:/Projekte/Infineon_Dave/eHaJo/FlapFlap/Libraries/XMCLib/inc\xmc_ccu4.h ****   XMC_CCU4_SLICE_SR_ID_0    = 0U, /**< Service Request Line-0 selected  */
 484:C:/Projekte/Infineon_Dave/eHaJo/FlapFlap/Libraries/XMCLib/inc\xmc_ccu4.h ****   XMC_CCU4_SLICE_SR_ID_1        , /**< Service Request Line-1 selected  */
 485:C:/Projekte/Infineon_Dave/eHaJo/FlapFlap/Libraries/XMCLib/inc\xmc_ccu4.h ****   XMC_CCU4_SLICE_SR_ID_2        , /**< Service Request Line-2 selected  */
 486:C:/Projekte/Infineon_Dave/eHaJo/FlapFlap/Libraries/XMCLib/inc\xmc_ccu4.h ****   XMC_CCU4_SLICE_SR_ID_3          /**< Service Request Line-3 selected  */
 487:C:/Projekte/Infineon_Dave/eHaJo/FlapFlap/Libraries/XMCLib/inc\xmc_ccu4.h **** } XMC_CCU4_SLICE_SR_ID_t;
 488:C:/Projekte/Infineon_Dave/eHaJo/FlapFlap/Libraries/XMCLib/inc\xmc_ccu4.h **** 
 489:C:/Projekte/Infineon_Dave/eHaJo/FlapFlap/Libraries/XMCLib/inc\xmc_ccu4.h **** /**
 490:C:/Projekte/Infineon_Dave/eHaJo/FlapFlap/Libraries/XMCLib/inc\xmc_ccu4.h ****  *  Slice shadow transfer options.
 491:C:/Projekte/Infineon_Dave/eHaJo/FlapFlap/Libraries/XMCLib/inc\xmc_ccu4.h ****  */
 492:C:/Projekte/Infineon_Dave/eHaJo/FlapFlap/Libraries/XMCLib/inc\xmc_ccu4.h **** typedef enum XMC_CCU4_SHADOW_TRANSFER
 493:C:/Projekte/Infineon_Dave/eHaJo/FlapFlap/Libraries/XMCLib/inc\xmc_ccu4.h **** {
 494:C:/Projekte/Infineon_Dave/eHaJo/FlapFlap/Libraries/XMCLib/inc\xmc_ccu4.h ****   XMC_CCU4_SHADOW_TRANSFER_SLICE_0            = CCU4_GCSS_S0SE_Msk, /**< Transfer Period, Compare a
 495:C:/Projekte/Infineon_Dave/eHaJo/FlapFlap/Libraries/XMCLib/inc\xmc_ccu4.h ****                                                                           shadow register values to
 496:C:/Projekte/Infineon_Dave/eHaJo/FlapFlap/Libraries/XMCLib/inc\xmc_ccu4.h ****                                                                           SLICE-0 */
 497:C:/Projekte/Infineon_Dave/eHaJo/FlapFlap/Libraries/XMCLib/inc\xmc_ccu4.h ****   XMC_CCU4_SHADOW_TRANSFER_DITHER_SLICE_0     = CCU4_GCSS_S0DSE_Msk, /**< Transfer Dither compare s
 498:C:/Projekte/Infineon_Dave/eHaJo/FlapFlap/Libraries/XMCLib/inc\xmc_ccu4.h ****                                                                           to actual register for SL
 499:C:/Projekte/Infineon_Dave/eHaJo/FlapFlap/Libraries/XMCLib/inc\xmc_ccu4.h ****   XMC_CCU4_SHADOW_TRANSFER_PRESCALER_SLICE_0  = CCU4_GCSS_S0PSE_Msk, /**< Transfer Prescaler shadow
 500:C:/Projekte/Infineon_Dave/eHaJo/FlapFlap/Libraries/XMCLib/inc\xmc_ccu4.h ****                                                                           actual register for SLICE
 501:C:/Projekte/Infineon_Dave/eHaJo/FlapFlap/Libraries/XMCLib/inc\xmc_ccu4.h ****   XMC_CCU4_SHADOW_TRANSFER_SLICE_1            = CCU4_GCSS_S1SE_Msk, /**< Transfer Period, Compare a
 502:C:/Projekte/Infineon_Dave/eHaJo/FlapFlap/Libraries/XMCLib/inc\xmc_ccu4.h ****                                                                           shadow register values to
 503:C:/Projekte/Infineon_Dave/eHaJo/FlapFlap/Libraries/XMCLib/inc\xmc_ccu4.h ****                                                                           SLICE-1 */
 504:C:/Projekte/Infineon_Dave/eHaJo/FlapFlap/Libraries/XMCLib/inc\xmc_ccu4.h ****   XMC_CCU4_SHADOW_TRANSFER_DITHER_SLICE_1     = CCU4_GCSS_S1DSE_Msk, /**< Transfer Dither compare s
 505:C:/Projekte/Infineon_Dave/eHaJo/FlapFlap/Libraries/XMCLib/inc\xmc_ccu4.h ****                                                                           to actual registers for S
 506:C:/Projekte/Infineon_Dave/eHaJo/FlapFlap/Libraries/XMCLib/inc\xmc_ccu4.h ****   XMC_CCU4_SHADOW_TRANSFER_PRESCALER_SLICE_1  = CCU4_GCSS_S1PSE_Msk, /**< Transfer Prescaler shadow
 507:C:/Projekte/Infineon_Dave/eHaJo/FlapFlap/Libraries/XMCLib/inc\xmc_ccu4.h ****                                                                           actual register for SLICE
 508:C:/Projekte/Infineon_Dave/eHaJo/FlapFlap/Libraries/XMCLib/inc\xmc_ccu4.h ****   XMC_CCU4_SHADOW_TRANSFER_SLICE_2            = CCU4_GCSS_S2SE_Msk, /**< Transfer Period, Compare a
 509:C:/Projekte/Infineon_Dave/eHaJo/FlapFlap/Libraries/XMCLib/inc\xmc_ccu4.h ****                                                                           shadow register values to
 510:C:/Projekte/Infineon_Dave/eHaJo/FlapFlap/Libraries/XMCLib/inc\xmc_ccu4.h ****                                                                           SLICE-2 */
 511:C:/Projekte/Infineon_Dave/eHaJo/FlapFlap/Libraries/XMCLib/inc\xmc_ccu4.h ****   XMC_CCU4_SHADOW_TRANSFER_DITHER_SLICE_2     = CCU4_GCSS_S2DSE_Msk, /**< Transfer Dither compare s
 512:C:/Projekte/Infineon_Dave/eHaJo/FlapFlap/Libraries/XMCLib/inc\xmc_ccu4.h ****                                                                           to actual register for SL
 513:C:/Projekte/Infineon_Dave/eHaJo/FlapFlap/Libraries/XMCLib/inc\xmc_ccu4.h ****   XMC_CCU4_SHADOW_TRANSFER_PRESCALER_SLICE_2  = CCU4_GCSS_S2PSE_Msk, /**< Transfer Prescaler shadow
 514:C:/Projekte/Infineon_Dave/eHaJo/FlapFlap/Libraries/XMCLib/inc\xmc_ccu4.h ****                                                                           actual register for SLICE
 515:C:/Projekte/Infineon_Dave/eHaJo/FlapFlap/Libraries/XMCLib/inc\xmc_ccu4.h ****   XMC_CCU4_SHADOW_TRANSFER_SLICE_3            = CCU4_GCSS_S3SE_Msk, /**< Transfer Period, Compare a
 516:C:/Projekte/Infineon_Dave/eHaJo/FlapFlap/Libraries/XMCLib/inc\xmc_ccu4.h ****                                                                           shadow register values to
 517:C:/Projekte/Infineon_Dave/eHaJo/FlapFlap/Libraries/XMCLib/inc\xmc_ccu4.h ****                                                                           SLICE-3 */
 518:C:/Projekte/Infineon_Dave/eHaJo/FlapFlap/Libraries/XMCLib/inc\xmc_ccu4.h ****   XMC_CCU4_SHADOW_TRANSFER_DITHER_SLICE_3     = CCU4_GCSS_S3DSE_Msk, /**< Transfer Dither compare s
 519:C:/Projekte/Infineon_Dave/eHaJo/FlapFlap/Libraries/XMCLib/inc\xmc_ccu4.h ****                                                                           to actual register for SL
 520:C:/Projekte/Infineon_Dave/eHaJo/FlapFlap/Libraries/XMCLib/inc\xmc_ccu4.h ****   XMC_CCU4_SHADOW_TRANSFER_PRESCALER_SLICE_3  = CCU4_GCSS_S3PSE_Msk  /**< Transfer Prescaler shadow
 521:C:/Projekte/Infineon_Dave/eHaJo/FlapFlap/Libraries/XMCLib/inc\xmc_ccu4.h ****                                                                           actual register for SLICE
 522:C:/Projekte/Infineon_Dave/eHaJo/FlapFlap/Libraries/XMCLib/inc\xmc_ccu4.h **** } XMC_CCU4_SHADOW_TRANSFER_t;
 523:C:/Projekte/Infineon_Dave/eHaJo/FlapFlap/Libraries/XMCLib/inc\xmc_ccu4.h **** 
 524:C:/Projekte/Infineon_Dave/eHaJo/FlapFlap/Libraries/XMCLib/inc\xmc_ccu4.h **** #if defined(CCU4V3) || defined(DOXYGEN)/* Defined for XMC1400 devices only */
 525:C:/Projekte/Infineon_Dave/eHaJo/FlapFlap/Libraries/XMCLib/inc\xmc_ccu4.h **** /**
 526:C:/Projekte/Infineon_Dave/eHaJo/FlapFlap/Libraries/XMCLib/inc\xmc_ccu4.h ****  *  Slice shadow transfer mode options.
 527:C:/Projekte/Infineon_Dave/eHaJo/FlapFlap/Libraries/XMCLib/inc\xmc_ccu4.h ****  * @note Only available for XMC1400 series
 528:C:/Projekte/Infineon_Dave/eHaJo/FlapFlap/Libraries/XMCLib/inc\xmc_ccu4.h ****  */
 529:C:/Projekte/Infineon_Dave/eHaJo/FlapFlap/Libraries/XMCLib/inc\xmc_ccu4.h **** typedef enum XMC_CCU4_SLICE_SHADOW_TRANSFER_MODE
 530:C:/Projekte/Infineon_Dave/eHaJo/FlapFlap/Libraries/XMCLib/inc\xmc_ccu4.h **** {
 531:C:/Projekte/Infineon_Dave/eHaJo/FlapFlap/Libraries/XMCLib/inc\xmc_ccu4.h ****   XMC_CCU4_SLICE_SHADOW_TRANSFER_MODE_IN_PERIOD_MATCH_AND_ONE_MATCH = 0U,  /**< Shadow transfer is 
 532:C:/Projekte/Infineon_Dave/eHaJo/FlapFlap/Libraries/XMCLib/inc\xmc_ccu4.h ****                                                                                 One match. */
 533:C:/Projekte/Infineon_Dave/eHaJo/FlapFlap/Libraries/XMCLib/inc\xmc_ccu4.h ****   XMC_CCU4_SLICE_SHADOW_TRANSFER_MODE_ONLY_IN_PERIOD_MATCH = 1U,  /**< Shadow transfer is done only
 534:C:/Projekte/Infineon_Dave/eHaJo/FlapFlap/Libraries/XMCLib/inc\xmc_ccu4.h ****   XMC_CCU4_SLICE_SHADOW_TRANSFER_MODE_ONLY_IN_ONE_MATCH = 2U  /**< Shadow transfer is done only in 
 535:C:/Projekte/Infineon_Dave/eHaJo/FlapFlap/Libraries/XMCLib/inc\xmc_ccu4.h **** } XMC_CCU4_SLICE_SHADOW_TRANSFER_MODE_t; 
 536:C:/Projekte/Infineon_Dave/eHaJo/FlapFlap/Libraries/XMCLib/inc\xmc_ccu4.h ****   
 537:C:/Projekte/Infineon_Dave/eHaJo/FlapFlap/Libraries/XMCLib/inc\xmc_ccu4.h ****   
 538:C:/Projekte/Infineon_Dave/eHaJo/FlapFlap/Libraries/XMCLib/inc\xmc_ccu4.h **** /**
 539:C:/Projekte/Infineon_Dave/eHaJo/FlapFlap/Libraries/XMCLib/inc\xmc_ccu4.h ****  *  Immediate write into configuration register
 540:C:/Projekte/Infineon_Dave/eHaJo/FlapFlap/Libraries/XMCLib/inc\xmc_ccu4.h ****  *  @note Only available for XMC1400 series
 541:C:/Projekte/Infineon_Dave/eHaJo/FlapFlap/Libraries/XMCLib/inc\xmc_ccu4.h ****  */
 542:C:/Projekte/Infineon_Dave/eHaJo/FlapFlap/Libraries/XMCLib/inc\xmc_ccu4.h **** typedef enum XMC_CCU4_SLICE_WRITE_INTO
 543:C:/Projekte/Infineon_Dave/eHaJo/FlapFlap/Libraries/XMCLib/inc\xmc_ccu4.h **** {
 544:C:/Projekte/Infineon_Dave/eHaJo/FlapFlap/Libraries/XMCLib/inc\xmc_ccu4.h ****   XMC_CCU4_SLICE_WRITE_INTO_PERIOD_CONFIGURATION = CCU4_CC4_STC_IRPC_Msk,                  /**< Imm
 545:C:/Projekte/Infineon_Dave/eHaJo/FlapFlap/Libraries/XMCLib/inc\xmc_ccu4.h ****                                                                                                 Wri
 546:C:/Projekte/Infineon_Dave/eHaJo/FlapFlap/Libraries/XMCLib/inc\xmc_ccu4.h ****                                                                                                 Con
 547:C:/Projekte/Infineon_Dave/eHaJo/FlapFlap/Libraries/XMCLib/inc\xmc_ccu4.h ****   XMC_CCU4_SLICE_WRITE_INTO_COMPARE_CONFIGURATION = CCU4_CC4_STC_IRCC_Msk,                 /**< Imm
 548:C:/Projekte/Infineon_Dave/eHaJo/FlapFlap/Libraries/XMCLib/inc\xmc_ccu4.h ****                                                                                                 Wri
 549:C:/Projekte/Infineon_Dave/eHaJo/FlapFlap/Libraries/XMCLib/inc\xmc_ccu4.h ****                                                                                                 Con
 550:C:/Projekte/Infineon_Dave/eHaJo/FlapFlap/Libraries/XMCLib/inc\xmc_ccu4.h ****   XMC_CCU4_SLICE_WRITE_INTO_PASSIVE_LEVEL_CONFIGURATION = CCU4_CC4_STC_IRLC_Msk,           /**< Imm
 551:C:/Projekte/Infineon_Dave/eHaJo/FlapFlap/Libraries/XMCLib/inc\xmc_ccu4.h ****                                                                                                 Wri
 552:C:/Projekte/Infineon_Dave/eHaJo/FlapFlap/Libraries/XMCLib/inc\xmc_ccu4.h **** 	                                                                                            Config
 553:C:/Projekte/Infineon_Dave/eHaJo/FlapFlap/Libraries/XMCLib/inc\xmc_ccu4.h ****   XMC_CCU4_SLICE_WRITE_INTO_DITHER_VALUE_CONFIGURATION = CCU4_CC4_STC_IRDC_Msk,            /**< Imm
 554:C:/Projekte/Infineon_Dave/eHaJo/FlapFlap/Libraries/XMCLib/inc\xmc_ccu4.h ****                                                                                                 Wri
 555:C:/Projekte/Infineon_Dave/eHaJo/FlapFlap/Libraries/XMCLib/inc\xmc_ccu4.h **** 	                                                                                            Config
 556:C:/Projekte/Infineon_Dave/eHaJo/FlapFlap/Libraries/XMCLib/inc\xmc_ccu4.h ****   XMC_CCU4_SLICE_WRITE_INTO_FLOATING_PRESCALER_VALUE_CONFIGURATION = CCU4_CC4_STC_IRFC_Msk /**< Imm
 557:C:/Projekte/Infineon_Dave/eHaJo/FlapFlap/Libraries/XMCLib/inc\xmc_ccu4.h ****                                                                                                 Wri
 558:C:/Projekte/Infineon_Dave/eHaJo/FlapFlap/Libraries/XMCLib/inc\xmc_ccu4.h ****                                                                                                 Val
 559:C:/Projekte/Infineon_Dave/eHaJo/FlapFlap/Libraries/XMCLib/inc\xmc_ccu4.h **** } XMC_CCU4_SLICE_WRITE_INTO_t;
 560:C:/Projekte/Infineon_Dave/eHaJo/FlapFlap/Libraries/XMCLib/inc\xmc_ccu4.h **** 
 561:C:/Projekte/Infineon_Dave/eHaJo/FlapFlap/Libraries/XMCLib/inc\xmc_ccu4.h **** 
 562:C:/Projekte/Infineon_Dave/eHaJo/FlapFlap/Libraries/XMCLib/inc\xmc_ccu4.h **** /**
 563:C:/Projekte/Infineon_Dave/eHaJo/FlapFlap/Libraries/XMCLib/inc\xmc_ccu4.h ****  *  Automatic Shadow Transfer request when writing into shadow register
 564:C:/Projekte/Infineon_Dave/eHaJo/FlapFlap/Libraries/XMCLib/inc\xmc_ccu4.h ****  *  @note Only available for XMC1400 series
 565:C:/Projekte/Infineon_Dave/eHaJo/FlapFlap/Libraries/XMCLib/inc\xmc_ccu4.h ****  */
 566:C:/Projekte/Infineon_Dave/eHaJo/FlapFlap/Libraries/XMCLib/inc\xmc_ccu4.h **** typedef enum XMC_CCU4_SLICE_AUTOMAIC_SHADOW_TRANSFER_WRITE_INTO
 567:C:/Projekte/Infineon_Dave/eHaJo/FlapFlap/Libraries/XMCLib/inc\xmc_ccu4.h **** {
 568:C:/Projekte/Infineon_Dave/eHaJo/FlapFlap/Libraries/XMCLib/inc\xmc_ccu4.h ****   XMC_CCU4_SLICE_AUTOMAIC_SHADOW_TRANSFER_WRITE_INTO_PERIOD_SHADOW = CCU4_CC4_STC_ASPC_Msk,        
 569:C:/Projekte/Infineon_Dave/eHaJo/FlapFlap/Libraries/XMCLib/inc\xmc_ccu4.h **** 	                                                                                                  
 570:C:/Projekte/Infineon_Dave/eHaJo/FlapFlap/Libraries/XMCLib/inc\xmc_ccu4.h ****                                                                                                    
 571:C:/Projekte/Infineon_Dave/eHaJo/FlapFlap/Libraries/XMCLib/inc\xmc_ccu4.h ****                                                                                                    
 572:C:/Projekte/Infineon_Dave/eHaJo/FlapFlap/Libraries/XMCLib/inc\xmc_ccu4.h ****   XMC_CCU4_SLICE_AUTOMAIC_SHADOW_TRANSFER_WRITE_INTO_COMPARE_SHADOW = CCU4_CC4_STC_ASCC_Msk,       
 573:C:/Projekte/Infineon_Dave/eHaJo/FlapFlap/Libraries/XMCLib/inc\xmc_ccu4.h **** 	                                                                                                  
 574:C:/Projekte/Infineon_Dave/eHaJo/FlapFlap/Libraries/XMCLib/inc\xmc_ccu4.h **** 	                                                                                                  
 575:C:/Projekte/Infineon_Dave/eHaJo/FlapFlap/Libraries/XMCLib/inc\xmc_ccu4.h **** 	                                                                                                  
 576:C:/Projekte/Infineon_Dave/eHaJo/FlapFlap/Libraries/XMCLib/inc\xmc_ccu4.h ****   XMC_CCU4_SLICE_AUTOMAIC_SHADOW_TRANSFER_WRITE_INTO_PASSIVE_LEVEL = CCU4_CC4_STC_ASLC_Msk,        
 577:C:/Projekte/Infineon_Dave/eHaJo/FlapFlap/Libraries/XMCLib/inc\xmc_ccu4.h **** 	                                                                                                  
 578:C:/Projekte/Infineon_Dave/eHaJo/FlapFlap/Libraries/XMCLib/inc\xmc_ccu4.h ****                                                                                                    
 579:C:/Projekte/Infineon_Dave/eHaJo/FlapFlap/Libraries/XMCLib/inc\xmc_ccu4.h ****   XMC_CCU4_SLICE_AUTOMAIC_SHADOW_TRANSFER_WRITE_INTO_DITHER_SHADOW = CCU4_CC4_STC_ASDC_Msk,        
 580:C:/Projekte/Infineon_Dave/eHaJo/FlapFlap/Libraries/XMCLib/inc\xmc_ccu4.h ****                                                                                                    
 581:C:/Projekte/Infineon_Dave/eHaJo/FlapFlap/Libraries/XMCLib/inc\xmc_ccu4.h ****                                                                                                    
 582:C:/Projekte/Infineon_Dave/eHaJo/FlapFlap/Libraries/XMCLib/inc\xmc_ccu4.h ****   XMC_CCU4_SLICE_AUTOMAIC_SHADOW_TRANSFER_WRITE_INTO_FLOATING_PRESCALER_SHADOW = CCU4_CC4_STC_ASFC_
 583:C:/Projekte/Infineon_Dave/eHaJo/FlapFlap/Libraries/XMCLib/inc\xmc_ccu4.h **** 	                                                                                                  
 584:C:/Projekte/Infineon_Dave/eHaJo/FlapFlap/Libraries/XMCLib/inc\xmc_ccu4.h ****                                                                                                    
 585:C:/Projekte/Infineon_Dave/eHaJo/FlapFlap/Libraries/XMCLib/inc\xmc_ccu4.h ****                                                                                                    
 586:C:/Projekte/Infineon_Dave/eHaJo/FlapFlap/Libraries/XMCLib/inc\xmc_ccu4.h **** 
 587:C:/Projekte/Infineon_Dave/eHaJo/FlapFlap/Libraries/XMCLib/inc\xmc_ccu4.h **** } XMC_CCU4_SLICE_AUTOMAIC_SHADOW_TRANSFER_WRITE_INTO_t;
 588:C:/Projekte/Infineon_Dave/eHaJo/FlapFlap/Libraries/XMCLib/inc\xmc_ccu4.h **** #endif
 589:C:/Projekte/Infineon_Dave/eHaJo/FlapFlap/Libraries/XMCLib/inc\xmc_ccu4.h **** /**
 590:C:/Projekte/Infineon_Dave/eHaJo/FlapFlap/Libraries/XMCLib/inc\xmc_ccu4.h ****  *  Used to create Mask needed for Multi-channel Shadow transfer enable/disable
 591:C:/Projekte/Infineon_Dave/eHaJo/FlapFlap/Libraries/XMCLib/inc\xmc_ccu4.h ****  */
 592:C:/Projekte/Infineon_Dave/eHaJo/FlapFlap/Libraries/XMCLib/inc\xmc_ccu4.h **** typedef enum XMC_CCU4_SLICE_MASK
 593:C:/Projekte/Infineon_Dave/eHaJo/FlapFlap/Libraries/XMCLib/inc\xmc_ccu4.h **** {
 594:C:/Projekte/Infineon_Dave/eHaJo/FlapFlap/Libraries/XMCLib/inc\xmc_ccu4.h ****   XMC_CCU4_SLICE_MASK_SLICE_0  = 1U , /**< SLICE-0 */
 595:C:/Projekte/Infineon_Dave/eHaJo/FlapFlap/Libraries/XMCLib/inc\xmc_ccu4.h ****   XMC_CCU4_SLICE_MASK_SLICE_1  = 2U , /**< SLICE-1 */
 596:C:/Projekte/Infineon_Dave/eHaJo/FlapFlap/Libraries/XMCLib/inc\xmc_ccu4.h ****   XMC_CCU4_SLICE_MASK_SLICE_2  = 4U , /**< SLICE-2 */
 597:C:/Projekte/Infineon_Dave/eHaJo/FlapFlap/Libraries/XMCLib/inc\xmc_ccu4.h ****   XMC_CCU4_SLICE_MASK_SLICE_3  = 8U   /**< SLICE-3 */
 598:C:/Projekte/Infineon_Dave/eHaJo/FlapFlap/Libraries/XMCLib/inc\xmc_ccu4.h **** } XMC_CCU4_SLICE_MASK_t;
 599:C:/Projekte/Infineon_Dave/eHaJo/FlapFlap/Libraries/XMCLib/inc\xmc_ccu4.h **** 
 600:C:/Projekte/Infineon_Dave/eHaJo/FlapFlap/Libraries/XMCLib/inc\xmc_ccu4.h **** 
 601:C:/Projekte/Infineon_Dave/eHaJo/FlapFlap/Libraries/XMCLib/inc\xmc_ccu4.h **** /**************************************************************************************************
 602:C:/Projekte/Infineon_Dave/eHaJo/FlapFlap/Libraries/XMCLib/inc\xmc_ccu4.h ****  * DATA STRUCTURES
 603:C:/Projekte/Infineon_Dave/eHaJo/FlapFlap/Libraries/XMCLib/inc\xmc_ccu4.h ****  **************************************************************************************************
 604:C:/Projekte/Infineon_Dave/eHaJo/FlapFlap/Libraries/XMCLib/inc\xmc_ccu4.h **** 
 605:C:/Projekte/Infineon_Dave/eHaJo/FlapFlap/Libraries/XMCLib/inc\xmc_ccu4.h **** /**
 606:C:/Projekte/Infineon_Dave/eHaJo/FlapFlap/Libraries/XMCLib/inc\xmc_ccu4.h ****  *  Configuration data structure of an External Event(Event-0/1/2).
 607:C:/Projekte/Infineon_Dave/eHaJo/FlapFlap/Libraries/XMCLib/inc\xmc_ccu4.h ****  *  Needed to configure the various aspects of an External Event.
 608:C:/Projekte/Infineon_Dave/eHaJo/FlapFlap/Libraries/XMCLib/inc\xmc_ccu4.h ****  *  This structure will not connect the external event with an external function.
 609:C:/Projekte/Infineon_Dave/eHaJo/FlapFlap/Libraries/XMCLib/inc\xmc_ccu4.h ****  */ 
 610:C:/Projekte/Infineon_Dave/eHaJo/FlapFlap/Libraries/XMCLib/inc\xmc_ccu4.h **** typedef struct XMC_CCU4_SLICE_EVENT_CONFIG
 611:C:/Projekte/Infineon_Dave/eHaJo/FlapFlap/Libraries/XMCLib/inc\xmc_ccu4.h **** {
 612:C:/Projekte/Infineon_Dave/eHaJo/FlapFlap/Libraries/XMCLib/inc\xmc_ccu4.h ****   XMC_CCU4_SLICE_INPUT_t                   mapped_input; /**< Required input signal for the Event *
 613:C:/Projekte/Infineon_Dave/eHaJo/FlapFlap/Libraries/XMCLib/inc\xmc_ccu4.h ****   XMC_CCU4_SLICE_EVENT_EDGE_SENSITIVITY_t  edge;         /**< Select the event edge of the input si
 614:C:/Projekte/Infineon_Dave/eHaJo/FlapFlap/Libraries/XMCLib/inc\xmc_ccu4.h ****                                                               This is needed for an edge sensitive 
 615:C:/Projekte/Infineon_Dave/eHaJo/FlapFlap/Libraries/XMCLib/inc\xmc_ccu4.h ****   XMC_CCU4_SLICE_EVENT_LEVEL_SENSITIVITY_t level;        /**< Select the event level of the input s
 616:C:/Projekte/Infineon_Dave/eHaJo/FlapFlap/Libraries/XMCLib/inc\xmc_ccu4.h ****                                                               This is needed for an level sensitive
 617:C:/Projekte/Infineon_Dave/eHaJo/FlapFlap/Libraries/XMCLib/inc\xmc_ccu4.h ****   XMC_CCU4_SLICE_EVENT_FILTER_t            duration;     /**< Low Pass filter duration in terms of 
 618:C:/Projekte/Infineon_Dave/eHaJo/FlapFlap/Libraries/XMCLib/inc\xmc_ccu4.h **** } XMC_CCU4_SLICE_EVENT_CONFIG_t;
 619:C:/Projekte/Infineon_Dave/eHaJo/FlapFlap/Libraries/XMCLib/inc\xmc_ccu4.h **** 
 620:C:/Projekte/Infineon_Dave/eHaJo/FlapFlap/Libraries/XMCLib/inc\xmc_ccu4.h **** /*Anonymous structure/union guard start*/
 621:C:/Projekte/Infineon_Dave/eHaJo/FlapFlap/Libraries/XMCLib/inc\xmc_ccu4.h **** #if defined(__CC_ARM)
 622:C:/Projekte/Infineon_Dave/eHaJo/FlapFlap/Libraries/XMCLib/inc\xmc_ccu4.h ****   #pragma push
 623:C:/Projekte/Infineon_Dave/eHaJo/FlapFlap/Libraries/XMCLib/inc\xmc_ccu4.h ****   #pragma anon_unions
 624:C:/Projekte/Infineon_Dave/eHaJo/FlapFlap/Libraries/XMCLib/inc\xmc_ccu4.h **** #elif defined(__TASKING__)
 625:C:/Projekte/Infineon_Dave/eHaJo/FlapFlap/Libraries/XMCLib/inc\xmc_ccu4.h ****   #pragma warning 586
 626:C:/Projekte/Infineon_Dave/eHaJo/FlapFlap/Libraries/XMCLib/inc\xmc_ccu4.h **** #endif
 627:C:/Projekte/Infineon_Dave/eHaJo/FlapFlap/Libraries/XMCLib/inc\xmc_ccu4.h **** 
 628:C:/Projekte/Infineon_Dave/eHaJo/FlapFlap/Libraries/XMCLib/inc\xmc_ccu4.h **** /**
 629:C:/Projekte/Infineon_Dave/eHaJo/FlapFlap/Libraries/XMCLib/inc\xmc_ccu4.h ****  *  Configuration data structure for CCU4 slice. Specifically configures the CCU4 slice to compare 
 630:C:/Projekte/Infineon_Dave/eHaJo/FlapFlap/Libraries/XMCLib/inc\xmc_ccu4.h ****  *  This excludes event and function configuration.
 631:C:/Projekte/Infineon_Dave/eHaJo/FlapFlap/Libraries/XMCLib/inc\xmc_ccu4.h ****  */ 
 632:C:/Projekte/Infineon_Dave/eHaJo/FlapFlap/Libraries/XMCLib/inc\xmc_ccu4.h **** typedef struct XMC_CCU4_SLICE_COMPARE_CONFIG
 633:C:/Projekte/Infineon_Dave/eHaJo/FlapFlap/Libraries/XMCLib/inc\xmc_ccu4.h **** {
 634:C:/Projekte/Infineon_Dave/eHaJo/FlapFlap/Libraries/XMCLib/inc\xmc_ccu4.h ****   union
 635:C:/Projekte/Infineon_Dave/eHaJo/FlapFlap/Libraries/XMCLib/inc\xmc_ccu4.h ****   {
 636:C:/Projekte/Infineon_Dave/eHaJo/FlapFlap/Libraries/XMCLib/inc\xmc_ccu4.h ****     struct
 637:C:/Projekte/Infineon_Dave/eHaJo/FlapFlap/Libraries/XMCLib/inc\xmc_ccu4.h ****     {
 638:C:/Projekte/Infineon_Dave/eHaJo/FlapFlap/Libraries/XMCLib/inc\xmc_ccu4.h ****       uint32_t timer_mode : 1;         /**< Edge aligned or Centre Aligned.
 639:C:/Projekte/Infineon_Dave/eHaJo/FlapFlap/Libraries/XMCLib/inc\xmc_ccu4.h ****                                              Accepts enum ::XMC_CCU4_SLICE_TIMER_COUNT_MODE_t */
 640:C:/Projekte/Infineon_Dave/eHaJo/FlapFlap/Libraries/XMCLib/inc\xmc_ccu4.h ****       uint32_t monoshot : 1;           /**< Single shot or Continuous mode .
 641:C:/Projekte/Infineon_Dave/eHaJo/FlapFlap/Libraries/XMCLib/inc\xmc_ccu4.h ****                                              Accepts enum :: XMC_CCU4_SLICE_TIMER_REPEAT_MODE_t*/
 642:C:/Projekte/Infineon_Dave/eHaJo/FlapFlap/Libraries/XMCLib/inc\xmc_ccu4.h ****       uint32_t shadow_xfer_clear : 1;  /**< Should PR and CR shadow xfer happen when timer is clear
 643:C:/Projekte/Infineon_Dave/eHaJo/FlapFlap/Libraries/XMCLib/inc\xmc_ccu4.h ****       uint32_t : 10;
 644:C:/Projekte/Infineon_Dave/eHaJo/FlapFlap/Libraries/XMCLib/inc\xmc_ccu4.h ****       uint32_t dither_timer_period: 1; /**< Can the period of the timer dither? */
 645:C:/Projekte/Infineon_Dave/eHaJo/FlapFlap/Libraries/XMCLib/inc\xmc_ccu4.h ****       uint32_t dither_duty_cycle : 1;  /**< Can the compare match of the timer dither? */
 646:C:/Projekte/Infineon_Dave/eHaJo/FlapFlap/Libraries/XMCLib/inc\xmc_ccu4.h ****       uint32_t : 1;
 647:C:/Projekte/Infineon_Dave/eHaJo/FlapFlap/Libraries/XMCLib/inc\xmc_ccu4.h ****       uint32_t prescaler_mode: 1;      /**< Normal or floating prescaler mode.
 648:C:/Projekte/Infineon_Dave/eHaJo/FlapFlap/Libraries/XMCLib/inc\xmc_ccu4.h ****                                              Accepts enum :: XMC_CCU4_SLICE_PRESCALER_MODE_t*/
 649:C:/Projekte/Infineon_Dave/eHaJo/FlapFlap/Libraries/XMCLib/inc\xmc_ccu4.h ****       uint32_t : 8;
 650:C:/Projekte/Infineon_Dave/eHaJo/FlapFlap/Libraries/XMCLib/inc\xmc_ccu4.h ****       uint32_t mcm_enable : 1;         /**< Multi-Channel mode enable? */
 651:C:/Projekte/Infineon_Dave/eHaJo/FlapFlap/Libraries/XMCLib/inc\xmc_ccu4.h ****       uint32_t : 6;
 652:C:/Projekte/Infineon_Dave/eHaJo/FlapFlap/Libraries/XMCLib/inc\xmc_ccu4.h ****     };
 653:C:/Projekte/Infineon_Dave/eHaJo/FlapFlap/Libraries/XMCLib/inc\xmc_ccu4.h ****     uint32_t tc;
 654:C:/Projekte/Infineon_Dave/eHaJo/FlapFlap/Libraries/XMCLib/inc\xmc_ccu4.h ****   };
 655:C:/Projekte/Infineon_Dave/eHaJo/FlapFlap/Libraries/XMCLib/inc\xmc_ccu4.h ****   uint32_t prescaler_initval : 4;      /**< Initial prescaler divider value 
 656:C:/Projekte/Infineon_Dave/eHaJo/FlapFlap/Libraries/XMCLib/inc\xmc_ccu4.h ****                                             Accepts enum :: XMC_CCU4_SLICE_PRESCALER_t */
 657:C:/Projekte/Infineon_Dave/eHaJo/FlapFlap/Libraries/XMCLib/inc\xmc_ccu4.h ****   uint32_t float_limit : 4;            /**< The max value which the prescaler divider can increment
 658:C:/Projekte/Infineon_Dave/eHaJo/FlapFlap/Libraries/XMCLib/inc\xmc_ccu4.h ****   uint32_t dither_limit : 4;           /**< The value that determines the spreading of dithering */
 659:C:/Projekte/Infineon_Dave/eHaJo/FlapFlap/Libraries/XMCLib/inc\xmc_ccu4.h ****   uint32_t passive_level : 1;          /**< Configuration of ST and OUT passive levels.
 660:C:/Projekte/Infineon_Dave/eHaJo/FlapFlap/Libraries/XMCLib/inc\xmc_ccu4.h ****                                              Accepts enum :: XMC_CCU4_SLICE_OUTPUT_PASSIVE_LEVEL_t*
 661:C:/Projekte/Infineon_Dave/eHaJo/FlapFlap/Libraries/XMCLib/inc\xmc_ccu4.h ****   uint32_t timer_concatenation : 1;    /**< Enables the concatenation of the timer if true.*/
 662:C:/Projekte/Infineon_Dave/eHaJo/FlapFlap/Libraries/XMCLib/inc\xmc_ccu4.h **** } XMC_CCU4_SLICE_COMPARE_CONFIG_t;
 663:C:/Projekte/Infineon_Dave/eHaJo/FlapFlap/Libraries/XMCLib/inc\xmc_ccu4.h **** 
 664:C:/Projekte/Infineon_Dave/eHaJo/FlapFlap/Libraries/XMCLib/inc\xmc_ccu4.h **** /**
 665:C:/Projekte/Infineon_Dave/eHaJo/FlapFlap/Libraries/XMCLib/inc\xmc_ccu4.h ****  *  Configuration data structure for CCU4 slice. Specifically configures the CCU4 slice to capture 
 666:C:/Projekte/Infineon_Dave/eHaJo/FlapFlap/Libraries/XMCLib/inc\xmc_ccu4.h ****  *  This excludes event and function configuration.
 667:C:/Projekte/Infineon_Dave/eHaJo/FlapFlap/Libraries/XMCLib/inc\xmc_ccu4.h ****  */ 
 668:C:/Projekte/Infineon_Dave/eHaJo/FlapFlap/Libraries/XMCLib/inc\xmc_ccu4.h **** typedef struct XMC_CCU4_SLICE_CAPTURE_CONFIG
 669:C:/Projekte/Infineon_Dave/eHaJo/FlapFlap/Libraries/XMCLib/inc\xmc_ccu4.h **** {
 670:C:/Projekte/Infineon_Dave/eHaJo/FlapFlap/Libraries/XMCLib/inc\xmc_ccu4.h ****   union
 671:C:/Projekte/Infineon_Dave/eHaJo/FlapFlap/Libraries/XMCLib/inc\xmc_ccu4.h ****   {
 672:C:/Projekte/Infineon_Dave/eHaJo/FlapFlap/Libraries/XMCLib/inc\xmc_ccu4.h ****     struct
 673:C:/Projekte/Infineon_Dave/eHaJo/FlapFlap/Libraries/XMCLib/inc\xmc_ccu4.h ****     {
 674:C:/Projekte/Infineon_Dave/eHaJo/FlapFlap/Libraries/XMCLib/inc\xmc_ccu4.h ****       uint32_t : 4;
 675:C:/Projekte/Infineon_Dave/eHaJo/FlapFlap/Libraries/XMCLib/inc\xmc_ccu4.h ****       uint32_t fifo_enable : 1;      /**< Should the capture registers be setup as a FIFO?(Extended
 676:C:/Projekte/Infineon_Dave/eHaJo/FlapFlap/Libraries/XMCLib/inc\xmc_ccu4.h ****       uint32_t timer_clear_mode : 2; /**< How should the timer register be cleared upon detection o
 677:C:/Projekte/Infineon_Dave/eHaJo/FlapFlap/Libraries/XMCLib/inc\xmc_ccu4.h ****                                           Accepts enum ::XMC_CCU4_SLICE_TIMER_CLEAR_MODE_t*/
 678:C:/Projekte/Infineon_Dave/eHaJo/FlapFlap/Libraries/XMCLib/inc\xmc_ccu4.h ****       uint32_t : 4;
 679:C:/Projekte/Infineon_Dave/eHaJo/FlapFlap/Libraries/XMCLib/inc\xmc_ccu4.h ****       uint32_t same_event : 1;       /**< Should the capture event for C1V/C0V and C3V/C2V be same 
 680:C:/Projekte/Infineon_Dave/eHaJo/FlapFlap/Libraries/XMCLib/inc\xmc_ccu4.h ****       uint32_t ignore_full_flag : 1; /**< Should updates to capture registers follow full flag rule
 681:C:/Projekte/Infineon_Dave/eHaJo/FlapFlap/Libraries/XMCLib/inc\xmc_ccu4.h ****       uint32_t : 3;
 682:C:/Projekte/Infineon_Dave/eHaJo/FlapFlap/Libraries/XMCLib/inc\xmc_ccu4.h ****       uint32_t prescaler_mode: 1;    /**< Normal or floating prescaler Accepts enum :: XMC_CCU4_SLI
 683:C:/Projekte/Infineon_Dave/eHaJo/FlapFlap/Libraries/XMCLib/inc\xmc_ccu4.h ****       uint32_t : 15;
 684:C:/Projekte/Infineon_Dave/eHaJo/FlapFlap/Libraries/XMCLib/inc\xmc_ccu4.h ****     };
 685:C:/Projekte/Infineon_Dave/eHaJo/FlapFlap/Libraries/XMCLib/inc\xmc_ccu4.h ****     uint32_t tc;
 686:C:/Projekte/Infineon_Dave/eHaJo/FlapFlap/Libraries/XMCLib/inc\xmc_ccu4.h ****   };
 687:C:/Projekte/Infineon_Dave/eHaJo/FlapFlap/Libraries/XMCLib/inc\xmc_ccu4.h ****   uint32_t prescaler_initval : 4;    /**< Prescaler divider value */
 688:C:/Projekte/Infineon_Dave/eHaJo/FlapFlap/Libraries/XMCLib/inc\xmc_ccu4.h ****   uint32_t float_limit : 4;          /**< The max value which the prescaler divider can increment t
 689:C:/Projekte/Infineon_Dave/eHaJo/FlapFlap/Libraries/XMCLib/inc\xmc_ccu4.h ****   uint32_t timer_concatenation : 1;  /**< Enables the concatenation of the timer */
 690:C:/Projekte/Infineon_Dave/eHaJo/FlapFlap/Libraries/XMCLib/inc\xmc_ccu4.h **** } XMC_CCU4_SLICE_CAPTURE_CONFIG_t;
 691:C:/Projekte/Infineon_Dave/eHaJo/FlapFlap/Libraries/XMCLib/inc\xmc_ccu4.h **** /*Anonymous structure/union guard end*/
 692:C:/Projekte/Infineon_Dave/eHaJo/FlapFlap/Libraries/XMCLib/inc\xmc_ccu4.h **** #if defined(__CC_ARM)
 693:C:/Projekte/Infineon_Dave/eHaJo/FlapFlap/Libraries/XMCLib/inc\xmc_ccu4.h ****   #pragma pop
 694:C:/Projekte/Infineon_Dave/eHaJo/FlapFlap/Libraries/XMCLib/inc\xmc_ccu4.h **** #elif defined(__TASKING__)
 695:C:/Projekte/Infineon_Dave/eHaJo/FlapFlap/Libraries/XMCLib/inc\xmc_ccu4.h ****   #pragma warning restore
 696:C:/Projekte/Infineon_Dave/eHaJo/FlapFlap/Libraries/XMCLib/inc\xmc_ccu4.h **** #endif
 697:C:/Projekte/Infineon_Dave/eHaJo/FlapFlap/Libraries/XMCLib/inc\xmc_ccu4.h **** /**************************************************************************************************
 698:C:/Projekte/Infineon_Dave/eHaJo/FlapFlap/Libraries/XMCLib/inc\xmc_ccu4.h ****  * API Prototypes
 699:C:/Projekte/Infineon_Dave/eHaJo/FlapFlap/Libraries/XMCLib/inc\xmc_ccu4.h ****  **************************************************************************************************
 700:C:/Projekte/Infineon_Dave/eHaJo/FlapFlap/Libraries/XMCLib/inc\xmc_ccu4.h **** 
 701:C:/Projekte/Infineon_Dave/eHaJo/FlapFlap/Libraries/XMCLib/inc\xmc_ccu4.h **** #ifdef __cplusplus
 702:C:/Projekte/Infineon_Dave/eHaJo/FlapFlap/Libraries/XMCLib/inc\xmc_ccu4.h **** extern "C" {
 703:C:/Projekte/Infineon_Dave/eHaJo/FlapFlap/Libraries/XMCLib/inc\xmc_ccu4.h **** #endif
 704:C:/Projekte/Infineon_Dave/eHaJo/FlapFlap/Libraries/XMCLib/inc\xmc_ccu4.h **** 
 705:C:/Projekte/Infineon_Dave/eHaJo/FlapFlap/Libraries/XMCLib/inc\xmc_ccu4.h **** __STATIC_INLINE bool XMC_CCU4_IsValidModule(const XMC_CCU4_MODULE_t *const module)
 706:C:/Projekte/Infineon_Dave/eHaJo/FlapFlap/Libraries/XMCLib/inc\xmc_ccu4.h **** {
 707:C:/Projekte/Infineon_Dave/eHaJo/FlapFlap/Libraries/XMCLib/inc\xmc_ccu4.h ****   bool tmp = false;
 708:C:/Projekte/Infineon_Dave/eHaJo/FlapFlap/Libraries/XMCLib/inc\xmc_ccu4.h ****   
 709:C:/Projekte/Infineon_Dave/eHaJo/FlapFlap/Libraries/XMCLib/inc\xmc_ccu4.h ****   tmp = (module == CCU40);
 710:C:/Projekte/Infineon_Dave/eHaJo/FlapFlap/Libraries/XMCLib/inc\xmc_ccu4.h ****   
 711:C:/Projekte/Infineon_Dave/eHaJo/FlapFlap/Libraries/XMCLib/inc\xmc_ccu4.h **** #if defined(CCU41) 
 712:C:/Projekte/Infineon_Dave/eHaJo/FlapFlap/Libraries/XMCLib/inc\xmc_ccu4.h ****   tmp = tmp || (module == CCU41);
 713:C:/Projekte/Infineon_Dave/eHaJo/FlapFlap/Libraries/XMCLib/inc\xmc_ccu4.h **** #endif
 714:C:/Projekte/Infineon_Dave/eHaJo/FlapFlap/Libraries/XMCLib/inc\xmc_ccu4.h **** 
 715:C:/Projekte/Infineon_Dave/eHaJo/FlapFlap/Libraries/XMCLib/inc\xmc_ccu4.h **** #if defined(CCU42)
 716:C:/Projekte/Infineon_Dave/eHaJo/FlapFlap/Libraries/XMCLib/inc\xmc_ccu4.h ****   tmp = tmp || (module == CCU42);
 717:C:/Projekte/Infineon_Dave/eHaJo/FlapFlap/Libraries/XMCLib/inc\xmc_ccu4.h **** #endif
 718:C:/Projekte/Infineon_Dave/eHaJo/FlapFlap/Libraries/XMCLib/inc\xmc_ccu4.h **** 
 719:C:/Projekte/Infineon_Dave/eHaJo/FlapFlap/Libraries/XMCLib/inc\xmc_ccu4.h **** #if defined(CCU43)
 720:C:/Projekte/Infineon_Dave/eHaJo/FlapFlap/Libraries/XMCLib/inc\xmc_ccu4.h ****   tmp = tmp || (module == CCU43);
 721:C:/Projekte/Infineon_Dave/eHaJo/FlapFlap/Libraries/XMCLib/inc\xmc_ccu4.h **** #endif
 722:C:/Projekte/Infineon_Dave/eHaJo/FlapFlap/Libraries/XMCLib/inc\xmc_ccu4.h ****   
 723:C:/Projekte/Infineon_Dave/eHaJo/FlapFlap/Libraries/XMCLib/inc\xmc_ccu4.h ****   return tmp;  
 724:C:/Projekte/Infineon_Dave/eHaJo/FlapFlap/Libraries/XMCLib/inc\xmc_ccu4.h **** } 
 725:C:/Projekte/Infineon_Dave/eHaJo/FlapFlap/Libraries/XMCLib/inc\xmc_ccu4.h **** 
 726:C:/Projekte/Infineon_Dave/eHaJo/FlapFlap/Libraries/XMCLib/inc\xmc_ccu4.h **** __STATIC_INLINE bool XMC_CCU4_IsValidSlice(const XMC_CCU4_SLICE_t *const slice)
 727:C:/Projekte/Infineon_Dave/eHaJo/FlapFlap/Libraries/XMCLib/inc\xmc_ccu4.h **** {
 728:C:/Projekte/Infineon_Dave/eHaJo/FlapFlap/Libraries/XMCLib/inc\xmc_ccu4.h ****   bool tmp = false;
 729:C:/Projekte/Infineon_Dave/eHaJo/FlapFlap/Libraries/XMCLib/inc\xmc_ccu4.h ****   
 730:C:/Projekte/Infineon_Dave/eHaJo/FlapFlap/Libraries/XMCLib/inc\xmc_ccu4.h ****   tmp = (slice == CCU40_CC40);
 731:C:/Projekte/Infineon_Dave/eHaJo/FlapFlap/Libraries/XMCLib/inc\xmc_ccu4.h **** #if defined(CCU40_CC41)  
 732:C:/Projekte/Infineon_Dave/eHaJo/FlapFlap/Libraries/XMCLib/inc\xmc_ccu4.h ****   tmp = tmp || (slice == CCU40_CC41);
 733:C:/Projekte/Infineon_Dave/eHaJo/FlapFlap/Libraries/XMCLib/inc\xmc_ccu4.h **** #endif
 734:C:/Projekte/Infineon_Dave/eHaJo/FlapFlap/Libraries/XMCLib/inc\xmc_ccu4.h **** #if defined(CCU40_CC42)  
 735:C:/Projekte/Infineon_Dave/eHaJo/FlapFlap/Libraries/XMCLib/inc\xmc_ccu4.h ****   tmp = tmp || (slice == CCU40_CC42);
 736:C:/Projekte/Infineon_Dave/eHaJo/FlapFlap/Libraries/XMCLib/inc\xmc_ccu4.h **** #endif
 737:C:/Projekte/Infineon_Dave/eHaJo/FlapFlap/Libraries/XMCLib/inc\xmc_ccu4.h **** #if defined(CCU40_CC43)  
 738:C:/Projekte/Infineon_Dave/eHaJo/FlapFlap/Libraries/XMCLib/inc\xmc_ccu4.h ****   tmp = tmp || (slice == CCU40_CC43);
 739:C:/Projekte/Infineon_Dave/eHaJo/FlapFlap/Libraries/XMCLib/inc\xmc_ccu4.h **** #endif
 740:C:/Projekte/Infineon_Dave/eHaJo/FlapFlap/Libraries/XMCLib/inc\xmc_ccu4.h **** #if defined(CCU41)  
 741:C:/Projekte/Infineon_Dave/eHaJo/FlapFlap/Libraries/XMCLib/inc\xmc_ccu4.h ****   tmp = tmp || (slice == CCU41_CC40);
 742:C:/Projekte/Infineon_Dave/eHaJo/FlapFlap/Libraries/XMCLib/inc\xmc_ccu4.h **** #if defined(CCU41_CC41)  
 743:C:/Projekte/Infineon_Dave/eHaJo/FlapFlap/Libraries/XMCLib/inc\xmc_ccu4.h ****   tmp = tmp || (slice == CCU41_CC41);
 744:C:/Projekte/Infineon_Dave/eHaJo/FlapFlap/Libraries/XMCLib/inc\xmc_ccu4.h **** #endif
 745:C:/Projekte/Infineon_Dave/eHaJo/FlapFlap/Libraries/XMCLib/inc\xmc_ccu4.h **** #if defined(CCU41_CC42)  
 746:C:/Projekte/Infineon_Dave/eHaJo/FlapFlap/Libraries/XMCLib/inc\xmc_ccu4.h ****   tmp = tmp || (slice == CCU41_CC42);
 747:C:/Projekte/Infineon_Dave/eHaJo/FlapFlap/Libraries/XMCLib/inc\xmc_ccu4.h **** #endif
 748:C:/Projekte/Infineon_Dave/eHaJo/FlapFlap/Libraries/XMCLib/inc\xmc_ccu4.h **** #if defined(CCU41_CC43)  
 749:C:/Projekte/Infineon_Dave/eHaJo/FlapFlap/Libraries/XMCLib/inc\xmc_ccu4.h ****   tmp = tmp || (slice == CCU41_CC43);
 750:C:/Projekte/Infineon_Dave/eHaJo/FlapFlap/Libraries/XMCLib/inc\xmc_ccu4.h **** #endif
 751:C:/Projekte/Infineon_Dave/eHaJo/FlapFlap/Libraries/XMCLib/inc\xmc_ccu4.h **** #endif 
 752:C:/Projekte/Infineon_Dave/eHaJo/FlapFlap/Libraries/XMCLib/inc\xmc_ccu4.h **** #if defined(CCU42)  
 753:C:/Projekte/Infineon_Dave/eHaJo/FlapFlap/Libraries/XMCLib/inc\xmc_ccu4.h ****   tmp = tmp || (slice == CCU42_CC40);
 754:C:/Projekte/Infineon_Dave/eHaJo/FlapFlap/Libraries/XMCLib/inc\xmc_ccu4.h **** #if defined(CCU42_CC41)  
 755:C:/Projekte/Infineon_Dave/eHaJo/FlapFlap/Libraries/XMCLib/inc\xmc_ccu4.h ****   tmp = tmp || (slice == CCU42_CC41);
 756:C:/Projekte/Infineon_Dave/eHaJo/FlapFlap/Libraries/XMCLib/inc\xmc_ccu4.h **** #endif
 757:C:/Projekte/Infineon_Dave/eHaJo/FlapFlap/Libraries/XMCLib/inc\xmc_ccu4.h **** #if defined(CCU42_CC42)  
 758:C:/Projekte/Infineon_Dave/eHaJo/FlapFlap/Libraries/XMCLib/inc\xmc_ccu4.h ****   tmp = tmp || (slice == CCU42_CC42);
 759:C:/Projekte/Infineon_Dave/eHaJo/FlapFlap/Libraries/XMCLib/inc\xmc_ccu4.h **** #endif
 760:C:/Projekte/Infineon_Dave/eHaJo/FlapFlap/Libraries/XMCLib/inc\xmc_ccu4.h **** #if defined(CCU42_CC43)  
 761:C:/Projekte/Infineon_Dave/eHaJo/FlapFlap/Libraries/XMCLib/inc\xmc_ccu4.h ****   tmp = tmp || (slice == CCU42_CC43);
 762:C:/Projekte/Infineon_Dave/eHaJo/FlapFlap/Libraries/XMCLib/inc\xmc_ccu4.h **** #endif
 763:C:/Projekte/Infineon_Dave/eHaJo/FlapFlap/Libraries/XMCLib/inc\xmc_ccu4.h **** #endif
 764:C:/Projekte/Infineon_Dave/eHaJo/FlapFlap/Libraries/XMCLib/inc\xmc_ccu4.h **** #if defined(CCU43)  
 765:C:/Projekte/Infineon_Dave/eHaJo/FlapFlap/Libraries/XMCLib/inc\xmc_ccu4.h ****   tmp = tmp || (slice == CCU43_CC40);
 766:C:/Projekte/Infineon_Dave/eHaJo/FlapFlap/Libraries/XMCLib/inc\xmc_ccu4.h **** #if defined(CCU43_CC41)  
 767:C:/Projekte/Infineon_Dave/eHaJo/FlapFlap/Libraries/XMCLib/inc\xmc_ccu4.h ****   tmp = tmp || (slice == CCU43_CC41);
 768:C:/Projekte/Infineon_Dave/eHaJo/FlapFlap/Libraries/XMCLib/inc\xmc_ccu4.h **** #endif
 769:C:/Projekte/Infineon_Dave/eHaJo/FlapFlap/Libraries/XMCLib/inc\xmc_ccu4.h **** #if defined(CCU43_CC42)  
 770:C:/Projekte/Infineon_Dave/eHaJo/FlapFlap/Libraries/XMCLib/inc\xmc_ccu4.h ****   tmp = tmp || (slice == CCU43_CC42);
 771:C:/Projekte/Infineon_Dave/eHaJo/FlapFlap/Libraries/XMCLib/inc\xmc_ccu4.h **** #endif
 772:C:/Projekte/Infineon_Dave/eHaJo/FlapFlap/Libraries/XMCLib/inc\xmc_ccu4.h **** #if defined(CCU43_CC43)  
 773:C:/Projekte/Infineon_Dave/eHaJo/FlapFlap/Libraries/XMCLib/inc\xmc_ccu4.h ****   tmp = tmp || (slice == CCU43_CC43);
 774:C:/Projekte/Infineon_Dave/eHaJo/FlapFlap/Libraries/XMCLib/inc\xmc_ccu4.h **** #endif
 775:C:/Projekte/Infineon_Dave/eHaJo/FlapFlap/Libraries/XMCLib/inc\xmc_ccu4.h **** #endif 
 776:C:/Projekte/Infineon_Dave/eHaJo/FlapFlap/Libraries/XMCLib/inc\xmc_ccu4.h ****   
 777:C:/Projekte/Infineon_Dave/eHaJo/FlapFlap/Libraries/XMCLib/inc\xmc_ccu4.h ****   return tmp;  
 778:C:/Projekte/Infineon_Dave/eHaJo/FlapFlap/Libraries/XMCLib/inc\xmc_ccu4.h **** } 
 779:C:/Projekte/Infineon_Dave/eHaJo/FlapFlap/Libraries/XMCLib/inc\xmc_ccu4.h **** 
 780:C:/Projekte/Infineon_Dave/eHaJo/FlapFlap/Libraries/XMCLib/inc\xmc_ccu4.h **** /**
 781:C:/Projekte/Infineon_Dave/eHaJo/FlapFlap/Libraries/XMCLib/inc\xmc_ccu4.h ****  * @param module Constant pointer to CCU4 module
 782:C:/Projekte/Infineon_Dave/eHaJo/FlapFlap/Libraries/XMCLib/inc\xmc_ccu4.h ****  * @param mcs_action multi-channel shadow transfer request configuration
 783:C:/Projekte/Infineon_Dave/eHaJo/FlapFlap/Libraries/XMCLib/inc\xmc_ccu4.h ****  * @return <BR>
 784:C:/Projekte/Infineon_Dave/eHaJo/FlapFlap/Libraries/XMCLib/inc\xmc_ccu4.h ****  *    None<BR>
 785:C:/Projekte/Infineon_Dave/eHaJo/FlapFlap/Libraries/XMCLib/inc\xmc_ccu4.h ****  *
 786:C:/Projekte/Infineon_Dave/eHaJo/FlapFlap/Libraries/XMCLib/inc\xmc_ccu4.h ****  * \par<b>Description:</b><br>
 787:C:/Projekte/Infineon_Dave/eHaJo/FlapFlap/Libraries/XMCLib/inc\xmc_ccu4.h ****  *  Initialization of global register GCTRL.<br>\n
 788:C:/Projekte/Infineon_Dave/eHaJo/FlapFlap/Libraries/XMCLib/inc\xmc_ccu4.h ****  *  As part of module initialization, behaviour of the module upon detection
 789:C:/Projekte/Infineon_Dave/eHaJo/FlapFlap/Libraries/XMCLib/inc\xmc_ccu4.h ****  *  Multi-Channel Mode trigger is configured. Will also invoke the XMC_CCU4_EnableModule().
 790:C:/Projekte/Infineon_Dave/eHaJo/FlapFlap/Libraries/XMCLib/inc\xmc_ccu4.h ****  *  The API call would bring up the required CCU4 module and also initialize the module for
 791:C:/Projekte/Infineon_Dave/eHaJo/FlapFlap/Libraries/XMCLib/inc\xmc_ccu4.h ****  *  the required multi-channel shadow transfer.
 792:C:/Projekte/Infineon_Dave/eHaJo/FlapFlap/Libraries/XMCLib/inc\xmc_ccu4.h ****  *
 793:C:/Projekte/Infineon_Dave/eHaJo/FlapFlap/Libraries/XMCLib/inc\xmc_ccu4.h ****  * \par<b>Related APIs:</b><br>
 794:C:/Projekte/Infineon_Dave/eHaJo/FlapFlap/Libraries/XMCLib/inc\xmc_ccu4.h ****  * XMC_CCU4_SLICE_CompareInit()<BR> XMC_CCU4_SLICE_CaptureInit().
 795:C:/Projekte/Infineon_Dave/eHaJo/FlapFlap/Libraries/XMCLib/inc\xmc_ccu4.h ****  */
 796:C:/Projekte/Infineon_Dave/eHaJo/FlapFlap/Libraries/XMCLib/inc\xmc_ccu4.h **** void XMC_CCU4_Init(XMC_CCU4_MODULE_t *const module, const XMC_CCU4_SLICE_MCMS_ACTION_t mcs_action);
 797:C:/Projekte/Infineon_Dave/eHaJo/FlapFlap/Libraries/XMCLib/inc\xmc_ccu4.h **** 
 798:C:/Projekte/Infineon_Dave/eHaJo/FlapFlap/Libraries/XMCLib/inc\xmc_ccu4.h **** /**
 799:C:/Projekte/Infineon_Dave/eHaJo/FlapFlap/Libraries/XMCLib/inc\xmc_ccu4.h ****  * @param module Constant pointer to CCU4 module
 800:C:/Projekte/Infineon_Dave/eHaJo/FlapFlap/Libraries/XMCLib/inc\xmc_ccu4.h ****  * @param clock Choice of input clock to the module
 801:C:/Projekte/Infineon_Dave/eHaJo/FlapFlap/Libraries/XMCLib/inc\xmc_ccu4.h ****  * @return <BR>
 802:C:/Projekte/Infineon_Dave/eHaJo/FlapFlap/Libraries/XMCLib/inc\xmc_ccu4.h ****  *    None<BR>
 803:C:/Projekte/Infineon_Dave/eHaJo/FlapFlap/Libraries/XMCLib/inc\xmc_ccu4.h ****  *
 804:C:/Projekte/Infineon_Dave/eHaJo/FlapFlap/Libraries/XMCLib/inc\xmc_ccu4.h ****  * \par<b>Description:</b><br>
 805:C:/Projekte/Infineon_Dave/eHaJo/FlapFlap/Libraries/XMCLib/inc\xmc_ccu4.h ****  *  Selects the Module Clock by configuring GCTRL.PCIS bits.<BR>\n
 806:C:/Projekte/Infineon_Dave/eHaJo/FlapFlap/Libraries/XMCLib/inc\xmc_ccu4.h ****  *  There are 3 potential clock sources. This API helps to select the required clock source.
 807:C:/Projekte/Infineon_Dave/eHaJo/FlapFlap/Libraries/XMCLib/inc\xmc_ccu4.h ****  *  Call to this API is valid after the XMC_CCU4_Init().
 808:C:/Projekte/Infineon_Dave/eHaJo/FlapFlap/Libraries/XMCLib/inc\xmc_ccu4.h ****  *
 809:C:/Projekte/Infineon_Dave/eHaJo/FlapFlap/Libraries/XMCLib/inc\xmc_ccu4.h ****  * \par<b>Related APIs:</b><br>
 810:C:/Projekte/Infineon_Dave/eHaJo/FlapFlap/Libraries/XMCLib/inc\xmc_ccu4.h ****  * None.<BR>
 811:C:/Projekte/Infineon_Dave/eHaJo/FlapFlap/Libraries/XMCLib/inc\xmc_ccu4.h ****  */
 812:C:/Projekte/Infineon_Dave/eHaJo/FlapFlap/Libraries/XMCLib/inc\xmc_ccu4.h **** void XMC_CCU4_SetModuleClock(XMC_CCU4_MODULE_t *const module, const XMC_CCU4_CLOCK_t clock);
 813:C:/Projekte/Infineon_Dave/eHaJo/FlapFlap/Libraries/XMCLib/inc\xmc_ccu4.h **** 
 814:C:/Projekte/Infineon_Dave/eHaJo/FlapFlap/Libraries/XMCLib/inc\xmc_ccu4.h **** /**
 815:C:/Projekte/Infineon_Dave/eHaJo/FlapFlap/Libraries/XMCLib/inc\xmc_ccu4.h ****  * @param module Constant pointer to CCU4 module
 816:C:/Projekte/Infineon_Dave/eHaJo/FlapFlap/Libraries/XMCLib/inc\xmc_ccu4.h ****  * @return <BR>
 817:C:/Projekte/Infineon_Dave/eHaJo/FlapFlap/Libraries/XMCLib/inc\xmc_ccu4.h ****  *    None<BR>
 818:C:/Projekte/Infineon_Dave/eHaJo/FlapFlap/Libraries/XMCLib/inc\xmc_ccu4.h ****  *
 819:C:/Projekte/Infineon_Dave/eHaJo/FlapFlap/Libraries/XMCLib/inc\xmc_ccu4.h ****  * \par<b>Description:</b><br>
 820:C:/Projekte/Infineon_Dave/eHaJo/FlapFlap/Libraries/XMCLib/inc\xmc_ccu4.h ****  * Enables the CCU4 module and brings it to active state.<BR>\n
 821:C:/Projekte/Infineon_Dave/eHaJo/FlapFlap/Libraries/XMCLib/inc\xmc_ccu4.h ****  * Also disables the gating of the clock signal (if applicable depending on the device being select
 822:C:/Projekte/Infineon_Dave/eHaJo/FlapFlap/Libraries/XMCLib/inc\xmc_ccu4.h ****  * Invoke this API before any operations are done on the CCU4 module. Invoked from  XMC_CCU4_Init()
 823:C:/Projekte/Infineon_Dave/eHaJo/FlapFlap/Libraries/XMCLib/inc\xmc_ccu4.h ****  *
 824:C:/Projekte/Infineon_Dave/eHaJo/FlapFlap/Libraries/XMCLib/inc\xmc_ccu4.h ****  * \par<b>Related APIs:</b><br>
 825:C:/Projekte/Infineon_Dave/eHaJo/FlapFlap/Libraries/XMCLib/inc\xmc_ccu4.h ****  * XMC_CCU4_SetModuleClock()<BR> XMC_CCU4_DisableModule()<BR> XMC_CCU4_StartPrescaler().
 826:C:/Projekte/Infineon_Dave/eHaJo/FlapFlap/Libraries/XMCLib/inc\xmc_ccu4.h ****  */
 827:C:/Projekte/Infineon_Dave/eHaJo/FlapFlap/Libraries/XMCLib/inc\xmc_ccu4.h **** void XMC_CCU4_EnableModule(XMC_CCU4_MODULE_t *const module);
 828:C:/Projekte/Infineon_Dave/eHaJo/FlapFlap/Libraries/XMCLib/inc\xmc_ccu4.h **** 
 829:C:/Projekte/Infineon_Dave/eHaJo/FlapFlap/Libraries/XMCLib/inc\xmc_ccu4.h **** /**
 830:C:/Projekte/Infineon_Dave/eHaJo/FlapFlap/Libraries/XMCLib/inc\xmc_ccu4.h ****  * @param module Constant pointer to CCU4 module
 831:C:/Projekte/Infineon_Dave/eHaJo/FlapFlap/Libraries/XMCLib/inc\xmc_ccu4.h ****  * @return <BR>
 832:C:/Projekte/Infineon_Dave/eHaJo/FlapFlap/Libraries/XMCLib/inc\xmc_ccu4.h ****  *    None<BR>
 833:C:/Projekte/Infineon_Dave/eHaJo/FlapFlap/Libraries/XMCLib/inc\xmc_ccu4.h ****  *
 834:C:/Projekte/Infineon_Dave/eHaJo/FlapFlap/Libraries/XMCLib/inc\xmc_ccu4.h ****  * \par<b>Description:</b><br>
 835:C:/Projekte/Infineon_Dave/eHaJo/FlapFlap/Libraries/XMCLib/inc\xmc_ccu4.h ****  * Brings the CCU4 module to reset state and enables gating of the clock signal(if applicable depen
 836:C:/Projekte/Infineon_Dave/eHaJo/FlapFlap/Libraries/XMCLib/inc\xmc_ccu4.h ****  * on the device being selected).<BR>\n
 837:C:/Projekte/Infineon_Dave/eHaJo/FlapFlap/Libraries/XMCLib/inc\xmc_ccu4.h ****  * Invoke this API when a CCU4 module needs to be disabled completely.
 838:C:/Projekte/Infineon_Dave/eHaJo/FlapFlap/Libraries/XMCLib/inc\xmc_ccu4.h ****  * Any operation on the CCU4 module will have no effect after this API is called.
 839:C:/Projekte/Infineon_Dave/eHaJo/FlapFlap/Libraries/XMCLib/inc\xmc_ccu4.h ****  *
 840:C:/Projekte/Infineon_Dave/eHaJo/FlapFlap/Libraries/XMCLib/inc\xmc_ccu4.h ****  * \par<b>Related APIs:</b><br>
 841:C:/Projekte/Infineon_Dave/eHaJo/FlapFlap/Libraries/XMCLib/inc\xmc_ccu4.h ****  * XMC_CCU4_EnableModule()<BR> XMC_CCU4_DisableModule().
 842:C:/Projekte/Infineon_Dave/eHaJo/FlapFlap/Libraries/XMCLib/inc\xmc_ccu4.h ****  */
 843:C:/Projekte/Infineon_Dave/eHaJo/FlapFlap/Libraries/XMCLib/inc\xmc_ccu4.h **** void XMC_CCU4_DisableModule(XMC_CCU4_MODULE_t *const module);
 844:C:/Projekte/Infineon_Dave/eHaJo/FlapFlap/Libraries/XMCLib/inc\xmc_ccu4.h **** 
 845:C:/Projekte/Infineon_Dave/eHaJo/FlapFlap/Libraries/XMCLib/inc\xmc_ccu4.h **** /**
 846:C:/Projekte/Infineon_Dave/eHaJo/FlapFlap/Libraries/XMCLib/inc\xmc_ccu4.h ****  * @param module Constant pointer to CCU4 module
 847:C:/Projekte/Infineon_Dave/eHaJo/FlapFlap/Libraries/XMCLib/inc\xmc_ccu4.h ****  * @return <BR>
 848:C:/Projekte/Infineon_Dave/eHaJo/FlapFlap/Libraries/XMCLib/inc\xmc_ccu4.h ****  *    None<BR>
 849:C:/Projekte/Infineon_Dave/eHaJo/FlapFlap/Libraries/XMCLib/inc\xmc_ccu4.h ****  *
 850:C:/Projekte/Infineon_Dave/eHaJo/FlapFlap/Libraries/XMCLib/inc\xmc_ccu4.h ****  * \par<b>Description:</b><br>
 851:C:/Projekte/Infineon_Dave/eHaJo/FlapFlap/Libraries/XMCLib/inc\xmc_ccu4.h ****  *  Starts the prescaler and restores clocks to the timer slices, by setting GIDLC.SPRB bit.<BR>\n
 852:C:/Projekte/Infineon_Dave/eHaJo/FlapFlap/Libraries/XMCLib/inc\xmc_ccu4.h ****  *  Once the input to the prescaler has been chosen and the prescaler divider of all slices program
 853:C:/Projekte/Infineon_Dave/eHaJo/FlapFlap/Libraries/XMCLib/inc\xmc_ccu4.h ****  *  the prescaler itself may be started. Invoke this  API after XMC_CCU4_Init()
 854:C:/Projekte/Infineon_Dave/eHaJo/FlapFlap/Libraries/XMCLib/inc\xmc_ccu4.h ****  *  (Mandatory to fully initialize the module).Directly accessed register is GIDLC.
 855:C:/Projekte/Infineon_Dave/eHaJo/FlapFlap/Libraries/XMCLib/inc\xmc_ccu4.h ****  *
 856:C:/Projekte/Infineon_Dave/eHaJo/FlapFlap/Libraries/XMCLib/inc\xmc_ccu4.h ****  * \par<b>Related APIs:</b><br>
 857:C:/Projekte/Infineon_Dave/eHaJo/FlapFlap/Libraries/XMCLib/inc\xmc_ccu4.h ****  * XMC_CCU4_Init()<BR> XMC_CCU4_EnableClock()<BR> XMC_CCU4_DisableClock()<BR> XMC_CCU4_StartPrescal
 858:C:/Projekte/Infineon_Dave/eHaJo/FlapFlap/Libraries/XMCLib/inc\xmc_ccu4.h ****  * XMC_CCU4_StopPrescaler().
 859:C:/Projekte/Infineon_Dave/eHaJo/FlapFlap/Libraries/XMCLib/inc\xmc_ccu4.h ****  */
 860:C:/Projekte/Infineon_Dave/eHaJo/FlapFlap/Libraries/XMCLib/inc\xmc_ccu4.h **** __STATIC_INLINE void XMC_CCU4_StartPrescaler(XMC_CCU4_MODULE_t *const module)
 861:C:/Projekte/Infineon_Dave/eHaJo/FlapFlap/Libraries/XMCLib/inc\xmc_ccu4.h **** {
 862:C:/Projekte/Infineon_Dave/eHaJo/FlapFlap/Libraries/XMCLib/inc\xmc_ccu4.h ****   XMC_ASSERT("XMC_CCU4_StartPrescaler:Invalid Module Pointer", XMC_CCU4_IsValidModule(module));
 863:C:/Projekte/Infineon_Dave/eHaJo/FlapFlap/Libraries/XMCLib/inc\xmc_ccu4.h ****   module->GIDLC |= (uint32_t) CCU4_GIDLC_SPRB_Msk;
 126              	 .loc 2 863 0
 127 000a E368     	 ldr r3,[r4,#12]
 128 000c 8022     	 mov r2,#128
 129 000e 5200     	 lsl r2,r2,#1
 130 0010 1343     	 orr r3,r2
 131 0012 E360     	 str r3,[r4,#12]
 132              	.LBE15:
 133              	.LBE14:
 326:../Libraries/XMCLib/src/xmc_ccu4.c ****   /* Start the prescaler */
 327:../Libraries/XMCLib/src/xmc_ccu4.c ****   XMC_CCU4_StartPrescaler(module);
 328:../Libraries/XMCLib/src/xmc_ccu4.c ****   
 329:../Libraries/XMCLib/src/xmc_ccu4.c ****   gctrl = module->GCTRL;
 134              	 .loc 1 329 0
 135 0014 2168     	 ldr r1,[r4]
 136              	.LVL10:
 330:../Libraries/XMCLib/src/xmc_ccu4.c ****   gctrl &= ~((uint32_t) CCU4_GCTRL_MSDE_Msk);
 137              	 .loc 1 330 0
 138 0016 034B     	 ldr r3,.L10
 139 0018 0B40     	 and r3,r1
 140              	.LVL11:
 331:../Libraries/XMCLib/src/xmc_ccu4.c ****   gctrl |= ((uint32_t) mcs_action) << CCU4_GCTRL_MSDE_Pos;
 141              	 .loc 1 331 0
 142 001a A903     	 lsl r1,r5,#14
 143 001c 1943     	 orr r1,r3
 144              	.LVL12:
 332:../Libraries/XMCLib/src/xmc_ccu4.c ****   
 333:../Libraries/XMCLib/src/xmc_ccu4.c ****   module->GCTRL = gctrl;
 145              	 .loc 1 333 0
 146 001e 2160     	 str r1,[r4]
 334:../Libraries/XMCLib/src/xmc_ccu4.c **** }
 147              	 .loc 1 334 0
 148              	 
 149              	.LVL13:
 150 0020 38BD     	 pop {r3,r4,r5,pc}
 151              	.L11:
 152 0022 C046     	 .align 2
 153              	.L10:
 154 0024 FF3FFFFF 	 .word -49153
 155              	 .cfi_endproc
 156              	.LFE95:
 158              	 .section .text.XMC_CCU4_SetModuleClock,"ax",%progbits
 159              	 .align 2
 160              	 .global XMC_CCU4_SetModuleClock
 161              	 .code 16
 162              	 .thumb_func
 164              	XMC_CCU4_SetModuleClock:
 165              	.LFB96:
 335:../Libraries/XMCLib/src/xmc_ccu4.c **** 
 336:../Libraries/XMCLib/src/xmc_ccu4.c **** /* API to select CCU4 module clock */
 337:../Libraries/XMCLib/src/xmc_ccu4.c **** void XMC_CCU4_SetModuleClock(XMC_CCU4_MODULE_t *const module, const XMC_CCU4_CLOCK_t clock)
 338:../Libraries/XMCLib/src/xmc_ccu4.c **** {
 166              	 .loc 1 338 0
 167              	 .cfi_startproc
 168              	.LVL14:
 339:../Libraries/XMCLib/src/xmc_ccu4.c ****   uint32_t gctrl;
 340:../Libraries/XMCLib/src/xmc_ccu4.c **** 
 341:../Libraries/XMCLib/src/xmc_ccu4.c ****   XMC_ASSERT("XMC_CCU4_SetModuleClock:Invalid Module Pointer", XMC_CCU4_IsValidModule(module));
 342:../Libraries/XMCLib/src/xmc_ccu4.c ****   XMC_ASSERT("XMC_CCU4_SetModuleClock:Invalid Module Clock", XMC_CCU4_SLICE_CHECK_CLOCK(clock));
 343:../Libraries/XMCLib/src/xmc_ccu4.c **** 
 344:../Libraries/XMCLib/src/xmc_ccu4.c ****   gctrl = module->GCTRL;
 169              	 .loc 1 344 0
 170 0000 0368     	 ldr r3,[r0]
 171              	.LVL15:
 345:../Libraries/XMCLib/src/xmc_ccu4.c ****   gctrl &= ~((uint32_t) CCU4_GCTRL_PCIS_Msk);
 172              	 .loc 1 345 0
 173 0002 3022     	 mov r2,#48
 174 0004 9343     	 bic r3,r2
 175              	.LVL16:
 346:../Libraries/XMCLib/src/xmc_ccu4.c ****   gctrl |= ((uint32_t) clock) << CCU4_GCTRL_PCIS_Pos;
 176              	 .loc 1 346 0
 177 0006 0901     	 lsl r1,r1,#4
 178              	.LVL17:
 179 0008 1943     	 orr r1,r3
 180              	.LVL18:
 347:../Libraries/XMCLib/src/xmc_ccu4.c ****   
 348:../Libraries/XMCLib/src/xmc_ccu4.c ****   module->GCTRL = gctrl;
 181              	 .loc 1 348 0
 182 000a 0160     	 str r1,[r0]
 349:../Libraries/XMCLib/src/xmc_ccu4.c **** }
 183              	 .loc 1 349 0
 184              	 
 185 000c 7047     	 bx lr
 186              	 .cfi_endproc
 187              	.LFE96:
 189 000e C046     	 .section .text.XMC_CCU4_SetMultiChannelShadowTransferMode,"ax",%progbits
 190              	 .align 2
 191              	 .global XMC_CCU4_SetMultiChannelShadowTransferMode
 192              	 .code 16
 193              	 .thumb_func
 195              	XMC_CCU4_SetMultiChannelShadowTransferMode:
 196              	.LFB97:
 350:../Libraries/XMCLib/src/xmc_ccu4.c **** 
 351:../Libraries/XMCLib/src/xmc_ccu4.c **** /* API to configure the multichannel shadow transfer request via SW and via the CCU4x.MCSS input. *
 352:../Libraries/XMCLib/src/xmc_ccu4.c **** void XMC_CCU4_SetMultiChannelShadowTransferMode(XMC_CCU4_MODULE_t *const module, const uint32_t sli
 353:../Libraries/XMCLib/src/xmc_ccu4.c **** {
 197              	 .loc 1 353 0
 198              	 .cfi_startproc
 199              	.LVL19:
 354:../Libraries/XMCLib/src/xmc_ccu4.c ****   uint32_t gctrl;
 355:../Libraries/XMCLib/src/xmc_ccu4.c **** 
 356:../Libraries/XMCLib/src/xmc_ccu4.c ****   XMC_ASSERT("XMC_CCU4_SetMultiChannelShadowTransferMode:Invalid module Pointer", XMC_CCU4_IsValidM
 357:../Libraries/XMCLib/src/xmc_ccu4.c ****   
 358:../Libraries/XMCLib/src/xmc_ccu4.c ****   gctrl = module->GCTRL;
 200              	 .loc 1 358 0
 201 0000 0368     	 ldr r3,[r0]
 202              	.LVL20:
 359:../Libraries/XMCLib/src/xmc_ccu4.c ****   gctrl &= ~((uint32_t)slice_mode_msk >> 16U);
 203              	 .loc 1 359 0
 204 0002 0A0C     	 lsr r2,r1,#16
 205 0004 9343     	 bic r3,r2
 206              	.LVL21:
 360:../Libraries/XMCLib/src/xmc_ccu4.c ****   gctrl |= ((uint32_t)slice_mode_msk & 0xFFFFU);
 207              	 .loc 1 360 0
 208 0006 0904     	 lsl r1,r1,#16
 209              	.LVL22:
 210 0008 090C     	 lsr r1,r1,#16
 211 000a 1943     	 orr r1,r3
 212              	.LVL23:
 361:../Libraries/XMCLib/src/xmc_ccu4.c ****   module->GCTRL = gctrl;
 213              	 .loc 1 361 0
 214 000c 0160     	 str r1,[r0]
 362:../Libraries/XMCLib/src/xmc_ccu4.c **** }
 215              	 .loc 1 362 0
 216              	 
 217 000e 7047     	 bx lr
 218              	 .cfi_endproc
 219              	.LFE97:
 221              	 .section .text.XMC_CCU4_SLICE_CompareInit,"ax",%progbits
 222              	 .align 2
 223              	 .global XMC_CCU4_SLICE_CompareInit
 224              	 .code 16
 225              	 .thumb_func
 227              	XMC_CCU4_SLICE_CompareInit:
 228              	.LFB98:
 363:../Libraries/XMCLib/src/xmc_ccu4.c **** 
 364:../Libraries/XMCLib/src/xmc_ccu4.c **** /* API to configure CC4 Slice as Timer */
 365:../Libraries/XMCLib/src/xmc_ccu4.c **** void XMC_CCU4_SLICE_CompareInit(XMC_CCU4_SLICE_t *const slice,
 366:../Libraries/XMCLib/src/xmc_ccu4.c ****                                 const XMC_CCU4_SLICE_COMPARE_CONFIG_t *const compare_init)
 367:../Libraries/XMCLib/src/xmc_ccu4.c **** {
 229              	 .loc 1 367 0
 230              	 .cfi_startproc
 231              	.LVL24:
 368:../Libraries/XMCLib/src/xmc_ccu4.c ****   XMC_ASSERT("XMC_CCU4_SLICE_CompareInit:Invalid Slice Pointer", XMC_CCU4_IsValidSlice(slice));
 369:../Libraries/XMCLib/src/xmc_ccu4.c ****   XMC_ASSERT("XMC_CCU4_SLICE_CompareInit:Compare Init Pointer is NULL",
 370:../Libraries/XMCLib/src/xmc_ccu4.c ****              (XMC_CCU4_SLICE_COMPARE_CONFIG_t *) NULL != compare_init);
 371:../Libraries/XMCLib/src/xmc_ccu4.c **** 
 372:../Libraries/XMCLib/src/xmc_ccu4.c ****   /* Program the timer mode */
 373:../Libraries/XMCLib/src/xmc_ccu4.c ****   slice->TC = compare_init->tc;
 232              	 .loc 1 373 0
 233 0000 0B68     	 ldr r3,[r1]
 234 0002 4361     	 str r3,[r0,#20]
 374:../Libraries/XMCLib/src/xmc_ccu4.c ****   /* Enable the timer concatenation */
 375:../Libraries/XMCLib/src/xmc_ccu4.c ****   slice->CMC = ((uint32_t) compare_init->timer_concatenation << CCU4_CC4_CMC_TCE_Pos);
 235              	 .loc 1 375 0
 236 0004 4B79     	 ldrb r3,[r1,#5]
 237 0006 9B06     	 lsl r3,r3,#26
 238 0008 DB0F     	 lsr r3,r3,#31
 239 000a 1B05     	 lsl r3,r3,#20
 240 000c 4360     	 str r3,[r0,#4]
 376:../Libraries/XMCLib/src/xmc_ccu4.c ****   /* Program initial prescaler divider value */
 377:../Libraries/XMCLib/src/xmc_ccu4.c ****   slice->PSC = (uint32_t) compare_init->prescaler_initval;
 241              	 .loc 1 377 0
 242 000e 0B79     	 ldrb r3,[r1,#4]
 243 0010 1B07     	 lsl r3,r3,#28
 244 0012 1B0F     	 lsr r3,r3,#28
 245 0014 4362     	 str r3,[r0,#36]
 378:../Libraries/XMCLib/src/xmc_ccu4.c ****   /* Program the dither compare value */
 379:../Libraries/XMCLib/src/xmc_ccu4.c ****   slice->DITS = (uint32_t) compare_init->dither_limit;
 246              	 .loc 1 379 0
 247 0016 4B79     	 ldrb r3,[r1,#5]
 248 0018 1B07     	 lsl r3,r3,#28
 249 001a 1B0F     	 lsr r3,r3,#28
 250 001c 0362     	 str r3,[r0,#32]
 380:../Libraries/XMCLib/src/xmc_ccu4.c ****   /* Program timer output passive level */
 381:../Libraries/XMCLib/src/xmc_ccu4.c ****   slice->PSL = (uint32_t) compare_init->passive_level;
 251              	 .loc 1 381 0
 252 001e 4B79     	 ldrb r3,[r1,#5]
 253 0020 DB06     	 lsl r3,r3,#27
 254 0022 DB0F     	 lsr r3,r3,#31
 255 0024 8361     	 str r3,[r0,#24]
 382:../Libraries/XMCLib/src/xmc_ccu4.c ****   /* Program floating prescaler compare value */
 383:../Libraries/XMCLib/src/xmc_ccu4.c ****   slice->FPCS = (uint32_t) compare_init->float_limit;
 256              	 .loc 1 383 0
 257 0026 0B79     	 ldrb r3,[r1,#4]
 258 0028 1B09     	 lsr r3,r3,#4
 259 002a C362     	 str r3,[r0,#44]
 384:../Libraries/XMCLib/src/xmc_ccu4.c **** }
 260              	 .loc 1 384 0
 261              	 
 262 002c 7047     	 bx lr
 263              	 .cfi_endproc
 264              	.LFE98:
 266 002e C046     	 .section .text.XMC_CCU4_SLICE_CaptureInit,"ax",%progbits
 267              	 .align 2
 268              	 .global XMC_CCU4_SLICE_CaptureInit
 269              	 .code 16
 270              	 .thumb_func
 272              	XMC_CCU4_SLICE_CaptureInit:
 273              	.LFB99:
 385:../Libraries/XMCLib/src/xmc_ccu4.c **** 
 386:../Libraries/XMCLib/src/xmc_ccu4.c **** /* API to configure CC4 Slice for Capture */
 387:../Libraries/XMCLib/src/xmc_ccu4.c **** void XMC_CCU4_SLICE_CaptureInit(XMC_CCU4_SLICE_t *const slice,
 388:../Libraries/XMCLib/src/xmc_ccu4.c ****                             const XMC_CCU4_SLICE_CAPTURE_CONFIG_t *const capture_init)
 389:../Libraries/XMCLib/src/xmc_ccu4.c **** {
 274              	 .loc 1 389 0
 275              	 .cfi_startproc
 276              	.LVL25:
 390:../Libraries/XMCLib/src/xmc_ccu4.c ****   XMC_ASSERT("XMC_CCU4_SLICE_CaptureInit:Invalid Slice Pointer", XMC_CCU4_IsValidSlice(slice));
 391:../Libraries/XMCLib/src/xmc_ccu4.c ****   XMC_ASSERT("XMC_CCU4_SLICE_CaptureInit:Capture Init Pointer is NULL",
 392:../Libraries/XMCLib/src/xmc_ccu4.c ****              (XMC_CCU4_SLICE_CAPTURE_CONFIG_t *) NULL != capture_init);
 393:../Libraries/XMCLib/src/xmc_ccu4.c **** 
 394:../Libraries/XMCLib/src/xmc_ccu4.c ****   /* Program the capture mode */
 395:../Libraries/XMCLib/src/xmc_ccu4.c ****   slice->TC = capture_init->tc;
 277              	 .loc 1 395 0
 278 0000 0B68     	 ldr r3,[r1]
 279 0002 4361     	 str r3,[r0,#20]
 396:../Libraries/XMCLib/src/xmc_ccu4.c ****   /* Enable the timer concatenation */
 397:../Libraries/XMCLib/src/xmc_ccu4.c ****   slice->CMC = ((uint32_t)capture_init->timer_concatenation << CCU4_CC4_CMC_TCE_Pos);
 280              	 .loc 1 397 0
 281 0004 4B79     	 ldrb r3,[r1,#5]
 282 0006 DB07     	 lsl r3,r3,#31
 283 0008 DB0F     	 lsr r3,r3,#31
 284 000a DBB2     	 uxtb r3,r3
 285 000c 1B05     	 lsl r3,r3,#20
 286 000e 4360     	 str r3,[r0,#4]
 398:../Libraries/XMCLib/src/xmc_ccu4.c ****   /* Program initial prescaler divider value */
 399:../Libraries/XMCLib/src/xmc_ccu4.c ****   slice->PSC = (uint32_t) capture_init->prescaler_initval;
 287              	 .loc 1 399 0
 288 0010 0B79     	 ldrb r3,[r1,#4]
 289 0012 1B07     	 lsl r3,r3,#28
 290 0014 1B0F     	 lsr r3,r3,#28
 291 0016 4362     	 str r3,[r0,#36]
 400:../Libraries/XMCLib/src/xmc_ccu4.c ****   /* Program initial floating prescaler compare value */
 401:../Libraries/XMCLib/src/xmc_ccu4.c ****   slice->FPCS = (uint32_t) capture_init->float_limit;
 292              	 .loc 1 401 0
 293 0018 0B79     	 ldrb r3,[r1,#4]
 294 001a 1B09     	 lsr r3,r3,#4
 295 001c C362     	 str r3,[r0,#44]
 402:../Libraries/XMCLib/src/xmc_ccu4.c **** }
 296              	 .loc 1 402 0
 297              	 
 298 001e 7047     	 bx lr
 299              	 .cfi_endproc
 300              	.LFE99:
 302              	 .section .text.XMC_CCU4_SLICE_StartConfig,"ax",%progbits
 303              	 .align 2
 304              	 .global XMC_CCU4_SLICE_StartConfig
 305              	 .code 16
 306              	 .thumb_func
 308              	XMC_CCU4_SLICE_StartConfig:
 309              	.LFB100:
 403:../Libraries/XMCLib/src/xmc_ccu4.c **** 
 404:../Libraries/XMCLib/src/xmc_ccu4.c **** 
 405:../Libraries/XMCLib/src/xmc_ccu4.c **** /* API to configure the Start trigger function of a slice */
 406:../Libraries/XMCLib/src/xmc_ccu4.c **** void XMC_CCU4_SLICE_StartConfig(XMC_CCU4_SLICE_t *const slice,
 407:../Libraries/XMCLib/src/xmc_ccu4.c ****                             const XMC_CCU4_SLICE_EVENT_t event,
 408:../Libraries/XMCLib/src/xmc_ccu4.c ****                                 const XMC_CCU4_SLICE_START_MODE_t start_mode)
 409:../Libraries/XMCLib/src/xmc_ccu4.c **** {
 310              	 .loc 1 409 0
 311              	 .cfi_startproc
 312              	.LVL26:
 313 0000 10B5     	 push {r4,lr}
 314              	.LCFI3:
 315              	 .cfi_def_cfa_offset 8
 316              	 .cfi_offset 4,-8
 317              	 .cfi_offset 14,-4
 410:../Libraries/XMCLib/src/xmc_ccu4.c ****   uint32_t cmc;
 411:../Libraries/XMCLib/src/xmc_ccu4.c ****   uint32_t tc;
 412:../Libraries/XMCLib/src/xmc_ccu4.c ****   
 413:../Libraries/XMCLib/src/xmc_ccu4.c ****   XMC_ASSERT("XMC_CCU4_SLICE_StartConfig:Invalid Slice Pointer", XMC_CCU4_IsValidSlice(slice));
 414:../Libraries/XMCLib/src/xmc_ccu4.c ****   XMC_ASSERT("XMC_CCU4_SLICE_StartConfig:Invalid Event ID", XMC_CCU4_SLICE_CHECK_EVENT_ID(event));
 415:../Libraries/XMCLib/src/xmc_ccu4.c ****   XMC_ASSERT("XMC_CCU4_SLICE_StartConfig:Invalid Start Mode", 
 416:../Libraries/XMCLib/src/xmc_ccu4.c ****              ((start_mode == XMC_CCU4_SLICE_START_MODE_TIMER_START_CLEAR) ||\
 417:../Libraries/XMCLib/src/xmc_ccu4.c ****               (start_mode == XMC_CCU4_SLICE_START_MODE_TIMER_START)));
 418:../Libraries/XMCLib/src/xmc_ccu4.c ****   /* First, Bind the event with the stop function */
 419:../Libraries/XMCLib/src/xmc_ccu4.c ****   cmc = slice->CMC;
 318              	 .loc 1 419 0
 319 0002 4368     	 ldr r3,[r0,#4]
 320              	.LVL27:
 420:../Libraries/XMCLib/src/xmc_ccu4.c ****   cmc &= ~((uint32_t) CCU4_CC4_CMC_STRTS_Msk);
 321              	 .loc 1 420 0
 322 0004 0324     	 mov r4,#3
 323 0006 A343     	 bic r3,r4
 324              	.LVL28:
 421:../Libraries/XMCLib/src/xmc_ccu4.c ****   cmc |= ((uint32_t) event) << CCU4_CC4_CMC_STRTS_Pos;
 325              	 .loc 1 421 0
 326 0008 1943     	 orr r1,r3
 327              	.LVL29:
 422:../Libraries/XMCLib/src/xmc_ccu4.c **** 
 423:../Libraries/XMCLib/src/xmc_ccu4.c ****   slice->CMC = cmc;
 328              	 .loc 1 423 0
 329 000a 4160     	 str r1,[r0,#4]
 424:../Libraries/XMCLib/src/xmc_ccu4.c ****   
 425:../Libraries/XMCLib/src/xmc_ccu4.c ****   tc  = slice->TC;
 330              	 .loc 1 425 0
 331 000c 4369     	 ldr r3,[r0,#20]
 332              	.LVL30:
 426:../Libraries/XMCLib/src/xmc_ccu4.c ****   /* Next, Configure the start mode */
 427:../Libraries/XMCLib/src/xmc_ccu4.c ****   if (start_mode == XMC_CCU4_SLICE_START_MODE_TIMER_START_CLEAR)
 333              	 .loc 1 427 0
 334 000e 012A     	 cmp r2,#1
 335 0010 03D1     	 bne .L17
 428:../Libraries/XMCLib/src/xmc_ccu4.c ****   {
 429:../Libraries/XMCLib/src/xmc_ccu4.c ****     tc |= (uint32_t)CCU4_CC4_TC_STRM_Msk;
 336              	 .loc 1 429 0
 337 0012 8022     	 mov r2,#128
 338              	.LVL31:
 339 0014 D200     	 lsl r2,r2,#3
 340 0016 1343     	 orr r3,r2
 341              	.LVL32:
 342 0018 01E0     	 b .L18
 343              	.LVL33:
 344              	.L17:
 430:../Libraries/XMCLib/src/xmc_ccu4.c ****   }
 431:../Libraries/XMCLib/src/xmc_ccu4.c ****   else
 432:../Libraries/XMCLib/src/xmc_ccu4.c ****   {
 433:../Libraries/XMCLib/src/xmc_ccu4.c ****     tc &= ~((uint32_t)CCU4_CC4_TC_STRM_Msk);
 345              	 .loc 1 433 0
 346 001a 024A     	 ldr r2,.L19
 347              	.LVL34:
 348 001c 1340     	 and r3,r2
 349              	.LVL35:
 350              	.L18:
 434:../Libraries/XMCLib/src/xmc_ccu4.c ****   }
 435:../Libraries/XMCLib/src/xmc_ccu4.c ****   
 436:../Libraries/XMCLib/src/xmc_ccu4.c ****   slice->TC = tc;
 351              	 .loc 1 436 0
 352 001e 4361     	 str r3,[r0,#20]
 437:../Libraries/XMCLib/src/xmc_ccu4.c **** }
 353              	 .loc 1 437 0
 354              	 
 355 0020 10BD     	 pop {r4,pc}
 356              	.L20:
 357 0022 C046     	 .align 2
 358              	.L19:
 359 0024 FFFBFFFF 	 .word -1025
 360              	 .cfi_endproc
 361              	.LFE100:
 363              	 .section .text.XMC_CCU4_SLICE_StopConfig,"ax",%progbits
 364              	 .align 2
 365              	 .global XMC_CCU4_SLICE_StopConfig
 366              	 .code 16
 367              	 .thumb_func
 369              	XMC_CCU4_SLICE_StopConfig:
 370              	.LFB101:
 438:../Libraries/XMCLib/src/xmc_ccu4.c **** 
 439:../Libraries/XMCLib/src/xmc_ccu4.c **** /* API to configure the Stop trigger function of a slice */
 440:../Libraries/XMCLib/src/xmc_ccu4.c **** void XMC_CCU4_SLICE_StopConfig(XMC_CCU4_SLICE_t *const slice,
 441:../Libraries/XMCLib/src/xmc_ccu4.c ****                            const XMC_CCU4_SLICE_EVENT_t event,
 442:../Libraries/XMCLib/src/xmc_ccu4.c ****                                const XMC_CCU4_SLICE_END_MODE_t end_mode)
 443:../Libraries/XMCLib/src/xmc_ccu4.c **** {
 371              	 .loc 1 443 0
 372              	 .cfi_startproc
 373              	.LVL36:
 374 0000 10B5     	 push {r4,lr}
 375              	.LCFI4:
 376              	 .cfi_def_cfa_offset 8
 377              	 .cfi_offset 4,-8
 378              	 .cfi_offset 14,-4
 444:../Libraries/XMCLib/src/xmc_ccu4.c ****   uint32_t cmc;
 445:../Libraries/XMCLib/src/xmc_ccu4.c ****   uint32_t tc;
 446:../Libraries/XMCLib/src/xmc_ccu4.c ****   
 447:../Libraries/XMCLib/src/xmc_ccu4.c ****   XMC_ASSERT("XMC_CCU4_SLICE_StopConfig:Invalid Slice Pointer", XMC_CCU4_IsValidSlice(slice));
 448:../Libraries/XMCLib/src/xmc_ccu4.c ****   XMC_ASSERT("XMC_CCU4_SLICE_StopConfig:Invalid Event ID", XMC_CCU4_SLICE_CHECK_EVENT_ID(event));
 449:../Libraries/XMCLib/src/xmc_ccu4.c ****   XMC_ASSERT("XMC_CCU4_SLICE_StopConfig:Invalid Start Mode", XMC_CCU4_CHECK_END_MODE(end_mode));
 450:../Libraries/XMCLib/src/xmc_ccu4.c ****   
 451:../Libraries/XMCLib/src/xmc_ccu4.c ****   /* First, Bind the event with the stop function */
 452:../Libraries/XMCLib/src/xmc_ccu4.c ****   cmc = slice->CMC;
 379              	 .loc 1 452 0
 380 0002 4368     	 ldr r3,[r0,#4]
 381              	.LVL37:
 453:../Libraries/XMCLib/src/xmc_ccu4.c ****   cmc &= ~((uint32_t) CCU4_CC4_CMC_ENDS_Msk);
 382              	 .loc 1 453 0
 383 0004 0C24     	 mov r4,#12
 384 0006 A343     	 bic r3,r4
 385              	.LVL38:
 454:../Libraries/XMCLib/src/xmc_ccu4.c ****   cmc |= ((uint32_t) event) << CCU4_CC4_CMC_ENDS_Pos;
 386              	 .loc 1 454 0
 387 0008 8900     	 lsl r1,r1,#2
 388              	.LVL39:
 389 000a 1943     	 orr r1,r3
 390              	.LVL40:
 455:../Libraries/XMCLib/src/xmc_ccu4.c **** 
 456:../Libraries/XMCLib/src/xmc_ccu4.c ****   slice->CMC = cmc;
 391              	 .loc 1 456 0
 392 000c 4160     	 str r1,[r0,#4]
 457:../Libraries/XMCLib/src/xmc_ccu4.c ****   
 458:../Libraries/XMCLib/src/xmc_ccu4.c ****   /* Next, Configure the stop mode */
 459:../Libraries/XMCLib/src/xmc_ccu4.c ****   tc = slice->TC;
 393              	 .loc 1 459 0
 394 000e 4169     	 ldr r1,[r0,#20]
 395              	.LVL41:
 460:../Libraries/XMCLib/src/xmc_ccu4.c ****   tc &= ~((uint32_t) CCU4_CC4_TC_ENDM_Msk);
 396              	 .loc 1 460 0
 397 0010 024B     	 ldr r3,.L22
 398 0012 0B40     	 and r3,r1
 399              	.LVL42:
 461:../Libraries/XMCLib/src/xmc_ccu4.c ****   tc |= ((uint32_t) end_mode) << CCU4_CC4_TC_ENDM_Pos;
 400              	 .loc 1 461 0
 401 0014 1202     	 lsl r2,r2,#8
 402              	.LVL43:
 403 0016 1A43     	 orr r2,r3
 404              	.LVL44:
 462:../Libraries/XMCLib/src/xmc_ccu4.c **** 
 463:../Libraries/XMCLib/src/xmc_ccu4.c ****   slice->TC = tc;
 405              	 .loc 1 463 0
 406 0018 4261     	 str r2,[r0,#20]
 407              	.LVL45:
 464:../Libraries/XMCLib/src/xmc_ccu4.c **** }
 408              	 .loc 1 464 0
 409              	 
 410 001a 10BD     	 pop {r4,pc}
 411              	.L23:
 412              	 .align 2
 413              	.L22:
 414 001c FFFCFFFF 	 .word -769
 415              	 .cfi_endproc
 416              	.LFE101:
 418              	 .section .text.XMC_CCU4_SLICE_LoadConfig,"ax",%progbits
 419              	 .align 2
 420              	 .global XMC_CCU4_SLICE_LoadConfig
 421              	 .code 16
 422              	 .thumb_func
 424              	XMC_CCU4_SLICE_LoadConfig:
 425              	.LFB102:
 465:../Libraries/XMCLib/src/xmc_ccu4.c **** 
 466:../Libraries/XMCLib/src/xmc_ccu4.c **** /* API to configure the Load trigger function of a slice */
 467:../Libraries/XMCLib/src/xmc_ccu4.c **** void XMC_CCU4_SLICE_LoadConfig(XMC_CCU4_SLICE_t *const slice, const XMC_CCU4_SLICE_EVENT_t event)
 468:../Libraries/XMCLib/src/xmc_ccu4.c **** {
 426              	 .loc 1 468 0
 427              	 .cfi_startproc
 428              	.LVL46:
 469:../Libraries/XMCLib/src/xmc_ccu4.c ****   uint32_t cmc;
 470:../Libraries/XMCLib/src/xmc_ccu4.c ****   
 471:../Libraries/XMCLib/src/xmc_ccu4.c ****   XMC_ASSERT("XMC_CCU4_SLICE_LoadConfig:Invalid Slice Pointer", XMC_CCU4_IsValidSlice(slice));
 472:../Libraries/XMCLib/src/xmc_ccu4.c ****   XMC_ASSERT("XMC_CCU4_SLICE_LoadConfig:Invalid Event ID", XMC_CCU4_SLICE_CHECK_EVENT_ID(event));
 473:../Libraries/XMCLib/src/xmc_ccu4.c ****   
 474:../Libraries/XMCLib/src/xmc_ccu4.c ****   /* Bind the event with the load function */
 475:../Libraries/XMCLib/src/xmc_ccu4.c ****   cmc = slice->CMC;
 429              	 .loc 1 475 0
 430 0000 4268     	 ldr r2,[r0,#4]
 431              	.LVL47:
 476:../Libraries/XMCLib/src/xmc_ccu4.c ****   cmc &= ~((uint32_t) CCU4_CC4_CMC_LDS_Msk);
 432              	 .loc 1 476 0
 433 0002 034B     	 ldr r3,.L25
 434 0004 1340     	 and r3,r2
 435              	.LVL48:
 477:../Libraries/XMCLib/src/xmc_ccu4.c ****   cmc |= ((uint32_t) event) << CCU4_CC4_CMC_LDS_Pos;
 436              	 .loc 1 477 0
 437 0006 0903     	 lsl r1,r1,#12
 438              	.LVL49:
 439 0008 1943     	 orr r1,r3
 440              	.LVL50:
 478:../Libraries/XMCLib/src/xmc_ccu4.c **** 
 479:../Libraries/XMCLib/src/xmc_ccu4.c ****   slice->CMC = cmc;
 441              	 .loc 1 479 0
 442 000a 4160     	 str r1,[r0,#4]
 480:../Libraries/XMCLib/src/xmc_ccu4.c **** }
 443              	 .loc 1 480 0
 444              	 
 445 000c 7047     	 bx lr
 446              	.L26:
 447 000e C046     	 .align 2
 448              	.L25:
 449 0010 FFCFFFFF 	 .word -12289
 450              	 .cfi_endproc
 451              	.LFE102:
 453              	 .section .text.XMC_CCU4_SLICE_ModulationConfig,"ax",%progbits
 454              	 .align 2
 455              	 .global XMC_CCU4_SLICE_ModulationConfig
 456              	 .code 16
 457              	 .thumb_func
 459              	XMC_CCU4_SLICE_ModulationConfig:
 460              	.LFB103:
 481:../Libraries/XMCLib/src/xmc_ccu4.c **** 
 482:../Libraries/XMCLib/src/xmc_ccu4.c **** /* API to configure the slice modulation function */
 483:../Libraries/XMCLib/src/xmc_ccu4.c **** void XMC_CCU4_SLICE_ModulationConfig(XMC_CCU4_SLICE_t *const slice,
 484:../Libraries/XMCLib/src/xmc_ccu4.c ****                                      const XMC_CCU4_SLICE_EVENT_t event,
 485:../Libraries/XMCLib/src/xmc_ccu4.c ****                                      const XMC_CCU4_SLICE_MODULATION_MODE_t mod_mode,
 486:../Libraries/XMCLib/src/xmc_ccu4.c ****                                      const bool synch_with_pwm)
 487:../Libraries/XMCLib/src/xmc_ccu4.c **** {
 461              	 .loc 1 487 0
 462              	 .cfi_startproc
 463              	.LVL51:
 464 0000 70B5     	 push {r4,r5,r6,lr}
 465              	.LCFI5:
 466              	 .cfi_def_cfa_offset 16
 467              	 .cfi_offset 4,-16
 468              	 .cfi_offset 5,-12
 469              	 .cfi_offset 6,-8
 470              	 .cfi_offset 14,-4
 488:../Libraries/XMCLib/src/xmc_ccu4.c ****   uint32_t cmc;
 489:../Libraries/XMCLib/src/xmc_ccu4.c ****   uint32_t tc;
 490:../Libraries/XMCLib/src/xmc_ccu4.c ****   
 491:../Libraries/XMCLib/src/xmc_ccu4.c ****   XMC_ASSERT("XMC_CCU4_SLICE_ModulationConfig:Invalid Slice Pointer", XMC_CCU4_IsValidSlice(slice))
 492:../Libraries/XMCLib/src/xmc_ccu4.c ****   XMC_ASSERT("XMC_CCU4_SLICE_ModulationConfig:Invalid Event ID", XMC_CCU4_SLICE_CHECK_EVENT_ID(even
 493:../Libraries/XMCLib/src/xmc_ccu4.c ****   XMC_ASSERT("XMC_CCU4_SLICE_ModulationConfig:Invalid Modulation Mode",
 494:../Libraries/XMCLib/src/xmc_ccu4.c ****              ((mod_mode == XMC_CCU4_SLICE_MODULATION_MODE_CLEAR_OUT) ||\
 495:../Libraries/XMCLib/src/xmc_ccu4.c ****               (mod_mode == XMC_CCU4_SLICE_MODULATION_MODE_CLEAR_ST_OUT)));
 496:../Libraries/XMCLib/src/xmc_ccu4.c ****   
 497:../Libraries/XMCLib/src/xmc_ccu4.c ****   tc  = slice->TC;
 471              	 .loc 1 497 0
 472 0002 4469     	 ldr r4,[r0,#20]
 473              	.LVL52:
 498:../Libraries/XMCLib/src/xmc_ccu4.c ****   cmc = slice->CMC;
 474              	 .loc 1 498 0
 475 0004 4668     	 ldr r6,[r0,#4]
 476              	.LVL53:
 499:../Libraries/XMCLib/src/xmc_ccu4.c ****   
 500:../Libraries/XMCLib/src/xmc_ccu4.c ****   /* First, Bind the event with the modulation function */
 501:../Libraries/XMCLib/src/xmc_ccu4.c ****   cmc &= ~((uint32_t) CCU4_CC4_CMC_MOS_Msk);
 477              	 .loc 1 501 0
 478 0006 0B4D     	 ldr r5,.L32
 479 0008 3540     	 and r5,r6
 480              	.LVL54:
 502:../Libraries/XMCLib/src/xmc_ccu4.c ****   cmc |= ((uint32_t) event) << CCU4_CC4_CMC_MOS_Pos;
 481              	 .loc 1 502 0
 482 000a 8904     	 lsl r1,r1,#18
 483              	.LVL55:
 484 000c 2943     	 orr r1,r5
 485              	.LVL56:
 503:../Libraries/XMCLib/src/xmc_ccu4.c ****   slice->CMC = cmc;
 486              	 .loc 1 503 0
 487 000e 4160     	 str r1,[r0,#4]
 504:../Libraries/XMCLib/src/xmc_ccu4.c ****   
 505:../Libraries/XMCLib/src/xmc_ccu4.c ****   /* Next, Modulation mode */
 506:../Libraries/XMCLib/src/xmc_ccu4.c ****   if (mod_mode == XMC_CCU4_SLICE_MODULATION_MODE_CLEAR_OUT)
 488              	 .loc 1 506 0
 489 0010 012A     	 cmp r2,#1
 490 0012 03D1     	 bne .L28
 507:../Libraries/XMCLib/src/xmc_ccu4.c ****   {
 508:../Libraries/XMCLib/src/xmc_ccu4.c ****     tc |= (uint32_t) CCU4_CC4_TC_EMT_Msk;
 491              	 .loc 1 508 0
 492 0014 8022     	 mov r2,#128
 493              	.LVL57:
 494 0016 5204     	 lsl r2,r2,#17
 495 0018 2243     	 orr r2,r4
 496              	.LVL58:
 497 001a 01E0     	 b .L29
 498              	.LVL59:
 499              	.L28:
 509:../Libraries/XMCLib/src/xmc_ccu4.c ****   }
 510:../Libraries/XMCLib/src/xmc_ccu4.c ****   else
 511:../Libraries/XMCLib/src/xmc_ccu4.c ****   {
 512:../Libraries/XMCLib/src/xmc_ccu4.c ****     tc &= ~((uint32_t) CCU4_CC4_TC_EMT_Msk);
 500              	 .loc 1 512 0
 501 001c 064A     	 ldr r2,.L32+4
 502              	.LVL60:
 503 001e 2240     	 and r2,r4
 504              	.LVL61:
 505              	.L29:
 513:../Libraries/XMCLib/src/xmc_ccu4.c ****   }
 514:../Libraries/XMCLib/src/xmc_ccu4.c **** 
 515:../Libraries/XMCLib/src/xmc_ccu4.c ****   /* Synchronization of modulation effect with PWM cycle */
 516:../Libraries/XMCLib/src/xmc_ccu4.c ****   if (synch_with_pwm == (bool) true)
 506              	 .loc 1 516 0
 507 0020 002B     	 cmp r3,#0
 508 0022 03D0     	 beq .L30
 517:../Libraries/XMCLib/src/xmc_ccu4.c ****   {
 518:../Libraries/XMCLib/src/xmc_ccu4.c ****     tc |= (uint32_t) CCU4_CC4_TC_EMS_Msk;
 509              	 .loc 1 518 0
 510 0024 8023     	 mov r3,#128
 511              	.LVL62:
 512 0026 1B04     	 lsl r3,r3,#16
 513 0028 1343     	 orr r3,r2
 514              	.LVL63:
 515 002a 01E0     	 b .L31
 516              	.LVL64:
 517              	.L30:
 519:../Libraries/XMCLib/src/xmc_ccu4.c ****   }
 520:../Libraries/XMCLib/src/xmc_ccu4.c ****   else
 521:../Libraries/XMCLib/src/xmc_ccu4.c ****   {
 522:../Libraries/XMCLib/src/xmc_ccu4.c ****     tc &= ~((uint32_t) CCU4_CC4_TC_EMS_Msk);
 518              	 .loc 1 522 0
 519 002c 034B     	 ldr r3,.L32+8
 520              	.LVL65:
 521 002e 1340     	 and r3,r2
 522              	.LVL66:
 523              	.L31:
 523:../Libraries/XMCLib/src/xmc_ccu4.c ****   }
 524:../Libraries/XMCLib/src/xmc_ccu4.c ****   
 525:../Libraries/XMCLib/src/xmc_ccu4.c ****   slice->TC = tc;
 524              	 .loc 1 525 0
 525 0030 4361     	 str r3,[r0,#20]
 526:../Libraries/XMCLib/src/xmc_ccu4.c **** }
 526              	 .loc 1 526 0
 527              	 
 528 0032 70BD     	 pop {r4,r5,r6,pc}
 529              	.L33:
 530              	 .align 2
 531              	.L32:
 532 0034 FFFFF3FF 	 .word -786433
 533 0038 FFFFFFFE 	 .word -16777217
 534 003c FFFF7FFF 	 .word -8388609
 535              	 .cfi_endproc
 536              	.LFE103:
 538              	 .section .text.XMC_CCU4_SLICE_CountConfig,"ax",%progbits
 539              	 .align 2
 540              	 .global XMC_CCU4_SLICE_CountConfig
 541              	 .code 16
 542              	 .thumb_func
 544              	XMC_CCU4_SLICE_CountConfig:
 545              	.LFB104:
 527:../Libraries/XMCLib/src/xmc_ccu4.c **** 
 528:../Libraries/XMCLib/src/xmc_ccu4.c **** /* API to configure the slice count function */
 529:../Libraries/XMCLib/src/xmc_ccu4.c **** void XMC_CCU4_SLICE_CountConfig(XMC_CCU4_SLICE_t *const slice, const XMC_CCU4_SLICE_EVENT_t event)
 530:../Libraries/XMCLib/src/xmc_ccu4.c **** {
 546              	 .loc 1 530 0
 547              	 .cfi_startproc
 548              	.LVL67:
 531:../Libraries/XMCLib/src/xmc_ccu4.c ****   uint32_t cmc;
 532:../Libraries/XMCLib/src/xmc_ccu4.c ****   
 533:../Libraries/XMCLib/src/xmc_ccu4.c ****   XMC_ASSERT("XMC_CCU4_SLICE_CountConfig:Invalid Slice Pointer", XMC_CCU4_IsValidSlice(slice));
 534:../Libraries/XMCLib/src/xmc_ccu4.c ****   XMC_ASSERT("XMC_CCU4_SLICE_CountConfig:Invalid Event ID", XMC_CCU4_SLICE_CHECK_EVENT_ID(event));
 535:../Libraries/XMCLib/src/xmc_ccu4.c **** 
 536:../Libraries/XMCLib/src/xmc_ccu4.c ****   /* Bind the event with the count function */
 537:../Libraries/XMCLib/src/xmc_ccu4.c ****   cmc = slice->CMC;
 549              	 .loc 1 537 0
 550 0000 4268     	 ldr r2,[r0,#4]
 551              	.LVL68:
 538:../Libraries/XMCLib/src/xmc_ccu4.c ****   cmc &= ~((uint32_t) CCU4_CC4_CMC_CNTS_Msk);
 552              	 .loc 1 538 0
 553 0002 034B     	 ldr r3,.L35
 554 0004 1340     	 and r3,r2
 555              	.LVL69:
 539:../Libraries/XMCLib/src/xmc_ccu4.c ****   cmc |= ((uint32_t) event) << CCU4_CC4_CMC_CNTS_Pos;
 556              	 .loc 1 539 0
 557 0006 8903     	 lsl r1,r1,#14
 558              	.LVL70:
 559 0008 1943     	 orr r1,r3
 560              	.LVL71:
 540:../Libraries/XMCLib/src/xmc_ccu4.c **** 
 541:../Libraries/XMCLib/src/xmc_ccu4.c ****   slice->CMC = cmc;
 561              	 .loc 1 541 0
 562 000a 4160     	 str r1,[r0,#4]
 542:../Libraries/XMCLib/src/xmc_ccu4.c **** }
 563              	 .loc 1 542 0
 564              	 
 565 000c 7047     	 bx lr
 566              	.L36:
 567 000e C046     	 .align 2
 568              	.L35:
 569 0010 FF3FFFFF 	 .word -49153
 570              	 .cfi_endproc
 571              	.LFE104:
 573              	 .section .text.XMC_CCU4_SLICE_GateConfig,"ax",%progbits
 574              	 .align 2
 575              	 .global XMC_CCU4_SLICE_GateConfig
 576              	 .code 16
 577              	 .thumb_func
 579              	XMC_CCU4_SLICE_GateConfig:
 580              	.LFB105:
 543:../Libraries/XMCLib/src/xmc_ccu4.c **** 
 544:../Libraries/XMCLib/src/xmc_ccu4.c **** /* API to configure slice gate function */
 545:../Libraries/XMCLib/src/xmc_ccu4.c **** void XMC_CCU4_SLICE_GateConfig(XMC_CCU4_SLICE_t *const slice, const XMC_CCU4_SLICE_EVENT_t event)
 546:../Libraries/XMCLib/src/xmc_ccu4.c **** {
 581              	 .loc 1 546 0
 582              	 .cfi_startproc
 583              	.LVL72:
 547:../Libraries/XMCLib/src/xmc_ccu4.c ****   uint32_t cmc;
 548:../Libraries/XMCLib/src/xmc_ccu4.c ****   
 549:../Libraries/XMCLib/src/xmc_ccu4.c ****   XMC_ASSERT("XMC_CCU4_SLICE_GateConfig:Invalid Slice Pointer", XMC_CCU4_IsValidSlice(slice));
 550:../Libraries/XMCLib/src/xmc_ccu4.c ****   XMC_ASSERT("XMC_CCU4_SLICE_GateConfig:Invalid Event ID", XMC_CCU4_SLICE_CHECK_EVENT_ID(event));
 551:../Libraries/XMCLib/src/xmc_ccu4.c ****   
 552:../Libraries/XMCLib/src/xmc_ccu4.c ****   /* Bind the event with the gate function */
 553:../Libraries/XMCLib/src/xmc_ccu4.c ****   cmc = slice->CMC;
 584              	 .loc 1 553 0
 585 0000 4268     	 ldr r2,[r0,#4]
 586              	.LVL73:
 554:../Libraries/XMCLib/src/xmc_ccu4.c ****   cmc &= ~((uint32_t) CCU4_CC4_CMC_GATES_Msk);
 587              	 .loc 1 554 0
 588 0002 034B     	 ldr r3,.L38
 589 0004 1340     	 and r3,r2
 590              	.LVL74:
 555:../Libraries/XMCLib/src/xmc_ccu4.c ****   cmc |= ((uint32_t) event) << CCU4_CC4_CMC_GATES_Pos;
 591              	 .loc 1 555 0
 592 0006 0902     	 lsl r1,r1,#8
 593              	.LVL75:
 594 0008 1943     	 orr r1,r3
 595              	.LVL76:
 556:../Libraries/XMCLib/src/xmc_ccu4.c **** 
 557:../Libraries/XMCLib/src/xmc_ccu4.c ****   slice->CMC = cmc;
 596              	 .loc 1 557 0
 597 000a 4160     	 str r1,[r0,#4]
 558:../Libraries/XMCLib/src/xmc_ccu4.c **** }
 598              	 .loc 1 558 0
 599              	 
 600 000c 7047     	 bx lr
 601              	.L39:
 602 000e C046     	 .align 2
 603              	.L38:
 604 0010 FFFCFFFF 	 .word -769
 605              	 .cfi_endproc
 606              	.LFE105:
 608              	 .section .text.XMC_CCU4_SLICE_Capture0Config,"ax",%progbits
 609              	 .align 2
 610              	 .global XMC_CCU4_SLICE_Capture0Config
 611              	 .code 16
 612              	 .thumb_func
 614              	XMC_CCU4_SLICE_Capture0Config:
 615              	.LFB106:
 559:../Libraries/XMCLib/src/xmc_ccu4.c **** 
 560:../Libraries/XMCLib/src/xmc_ccu4.c **** /* API to configure Capture-0 function */
 561:../Libraries/XMCLib/src/xmc_ccu4.c **** void XMC_CCU4_SLICE_Capture0Config(XMC_CCU4_SLICE_t *const slice, const XMC_CCU4_SLICE_EVENT_t even
 562:../Libraries/XMCLib/src/xmc_ccu4.c **** {
 616              	 .loc 1 562 0
 617              	 .cfi_startproc
 618              	.LVL77:
 563:../Libraries/XMCLib/src/xmc_ccu4.c ****   uint32_t cmc;
 564:../Libraries/XMCLib/src/xmc_ccu4.c ****   
 565:../Libraries/XMCLib/src/xmc_ccu4.c ****   XMC_ASSERT("XMC_CCU4_SLICE_Capture0Config:Invalid Slice Pointer", XMC_CCU4_IsValidSlice(slice));
 566:../Libraries/XMCLib/src/xmc_ccu4.c ****   XMC_ASSERT("XMC_CCU4_SLICE_Capture0Config:Invalid Event ID", XMC_CCU4_SLICE_CHECK_EVENT_ID(event)
 567:../Libraries/XMCLib/src/xmc_ccu4.c ****   
 568:../Libraries/XMCLib/src/xmc_ccu4.c ****   /* Bind the event with the gate function */
 569:../Libraries/XMCLib/src/xmc_ccu4.c ****   cmc = slice->CMC;
 619              	 .loc 1 569 0
 620 0000 4368     	 ldr r3,[r0,#4]
 621              	.LVL78:
 570:../Libraries/XMCLib/src/xmc_ccu4.c ****   cmc &= ~((uint32_t) CCU4_CC4_CMC_CAP0S_Msk);
 622              	 .loc 1 570 0
 623 0002 3022     	 mov r2,#48
 624 0004 9343     	 bic r3,r2
 625              	.LVL79:
 571:../Libraries/XMCLib/src/xmc_ccu4.c ****   cmc |= ((uint32_t) event) << CCU4_CC4_CMC_CAP0S_Pos;
 626              	 .loc 1 571 0
 627 0006 0901     	 lsl r1,r1,#4
 628              	.LVL80:
 629 0008 1943     	 orr r1,r3
 630              	.LVL81:
 572:../Libraries/XMCLib/src/xmc_ccu4.c **** 
 573:../Libraries/XMCLib/src/xmc_ccu4.c ****   slice->CMC = cmc;
 631              	 .loc 1 573 0
 632 000a 4160     	 str r1,[r0,#4]
 574:../Libraries/XMCLib/src/xmc_ccu4.c **** }
 633              	 .loc 1 574 0
 634              	 
 635 000c 7047     	 bx lr
 636              	 .cfi_endproc
 637              	.LFE106:
 639 000e C046     	 .section .text.XMC_CCU4_SLICE_Capture1Config,"ax",%progbits
 640              	 .align 2
 641              	 .global XMC_CCU4_SLICE_Capture1Config
 642              	 .code 16
 643              	 .thumb_func
 645              	XMC_CCU4_SLICE_Capture1Config:
 646              	.LFB107:
 575:../Libraries/XMCLib/src/xmc_ccu4.c **** 
 576:../Libraries/XMCLib/src/xmc_ccu4.c **** /* API to configure Capture-1 function */
 577:../Libraries/XMCLib/src/xmc_ccu4.c **** void XMC_CCU4_SLICE_Capture1Config(XMC_CCU4_SLICE_t *const slice, const XMC_CCU4_SLICE_EVENT_t even
 578:../Libraries/XMCLib/src/xmc_ccu4.c **** {
 647              	 .loc 1 578 0
 648              	 .cfi_startproc
 649              	.LVL82:
 579:../Libraries/XMCLib/src/xmc_ccu4.c ****   uint32_t cmc;
 580:../Libraries/XMCLib/src/xmc_ccu4.c ****   
 581:../Libraries/XMCLib/src/xmc_ccu4.c ****   XMC_ASSERT("XMC_CCU4_SLICE_Capture1Config:Invalid Slice Pointer", XMC_CCU4_IsValidSlice(slice));
 582:../Libraries/XMCLib/src/xmc_ccu4.c ****   XMC_ASSERT("XMC_CCU4_SLICE_Capture1Config:Invalid Event ID", XMC_CCU4_SLICE_CHECK_EVENT_ID(event)
 583:../Libraries/XMCLib/src/xmc_ccu4.c ****   
 584:../Libraries/XMCLib/src/xmc_ccu4.c ****   /* Bind the event with the gate function */
 585:../Libraries/XMCLib/src/xmc_ccu4.c ****   cmc = slice->CMC;
 650              	 .loc 1 585 0
 651 0000 4368     	 ldr r3,[r0,#4]
 652              	.LVL83:
 586:../Libraries/XMCLib/src/xmc_ccu4.c ****   cmc &= ~((uint32_t) CCU4_CC4_CMC_CAP1S_Msk);
 653              	 .loc 1 586 0
 654 0002 C022     	 mov r2,#192
 655 0004 9343     	 bic r3,r2
 656              	.LVL84:
 587:../Libraries/XMCLib/src/xmc_ccu4.c ****   cmc |= ((uint32_t) event) << CCU4_CC4_CMC_CAP1S_Pos;
 657              	 .loc 1 587 0
 658 0006 8901     	 lsl r1,r1,#6
 659              	.LVL85:
 660 0008 1943     	 orr r1,r3
 661              	.LVL86:
 588:../Libraries/XMCLib/src/xmc_ccu4.c **** 
 589:../Libraries/XMCLib/src/xmc_ccu4.c ****   slice->CMC = cmc;
 662              	 .loc 1 589 0
 663 000a 4160     	 str r1,[r0,#4]
 590:../Libraries/XMCLib/src/xmc_ccu4.c **** }
 664              	 .loc 1 590 0
 665              	 
 666 000c 7047     	 bx lr
 667              	 .cfi_endproc
 668              	.LFE107:
 670 000e C046     	 .section .text.XMC_CCU4_SLICE_DirectionConfig,"ax",%progbits
 671              	 .align 2
 672              	 .global XMC_CCU4_SLICE_DirectionConfig
 673              	 .code 16
 674              	 .thumb_func
 676              	XMC_CCU4_SLICE_DirectionConfig:
 677              	.LFB108:
 591:../Libraries/XMCLib/src/xmc_ccu4.c **** 
 592:../Libraries/XMCLib/src/xmc_ccu4.c **** /* API to configure direction function */
 593:../Libraries/XMCLib/src/xmc_ccu4.c **** void XMC_CCU4_SLICE_DirectionConfig(XMC_CCU4_SLICE_t *const slice, const XMC_CCU4_SLICE_EVENT_t eve
 594:../Libraries/XMCLib/src/xmc_ccu4.c **** {
 678              	 .loc 1 594 0
 679              	 .cfi_startproc
 680              	.LVL87:
 595:../Libraries/XMCLib/src/xmc_ccu4.c ****   uint32_t cmc;
 596:../Libraries/XMCLib/src/xmc_ccu4.c ****   
 597:../Libraries/XMCLib/src/xmc_ccu4.c ****   XMC_ASSERT("XMC_CCU4_SLICE_DirectionConfig:Invalid Slice Pointer", XMC_CCU4_IsValidSlice(slice));
 598:../Libraries/XMCLib/src/xmc_ccu4.c ****   XMC_ASSERT("XMC_CCU4_SLICE_DirectionConfig:Invalid Event ID", XMC_CCU4_SLICE_CHECK_EVENT_ID(event
 599:../Libraries/XMCLib/src/xmc_ccu4.c ****   
 600:../Libraries/XMCLib/src/xmc_ccu4.c ****   /* Bind the event with the direction function */
 601:../Libraries/XMCLib/src/xmc_ccu4.c ****   cmc = slice->CMC;
 681              	 .loc 1 601 0
 682 0000 4268     	 ldr r2,[r0,#4]
 683              	.LVL88:
 602:../Libraries/XMCLib/src/xmc_ccu4.c ****   cmc &= ~((uint32_t) CCU4_CC4_CMC_UDS_Msk);
 684              	 .loc 1 602 0
 685 0002 034B     	 ldr r3,.L43
 686 0004 1340     	 and r3,r2
 687              	.LVL89:
 603:../Libraries/XMCLib/src/xmc_ccu4.c ****   cmc |= ((uint32_t) event) << CCU4_CC4_CMC_UDS_Pos;
 688              	 .loc 1 603 0
 689 0006 8902     	 lsl r1,r1,#10
 690              	.LVL90:
 691 0008 1943     	 orr r1,r3
 692              	.LVL91:
 604:../Libraries/XMCLib/src/xmc_ccu4.c ****   
 605:../Libraries/XMCLib/src/xmc_ccu4.c ****   slice->CMC = cmc;
 693              	 .loc 1 605 0
 694 000a 4160     	 str r1,[r0,#4]
 606:../Libraries/XMCLib/src/xmc_ccu4.c **** }
 695              	 .loc 1 606 0
 696              	 
 697 000c 7047     	 bx lr
 698              	.L44:
 699 000e C046     	 .align 2
 700              	.L43:
 701 0010 FFF3FFFF 	 .word -3073
 702              	 .cfi_endproc
 703              	.LFE108:
 705              	 .section .text.XMC_CCU4_SLICE_StatusBitOverrideConfig,"ax",%progbits
 706              	 .align 2
 707              	 .global XMC_CCU4_SLICE_StatusBitOverrideConfig
 708              	 .code 16
 709              	 .thumb_func
 711              	XMC_CCU4_SLICE_StatusBitOverrideConfig:
 712              	.LFB109:
 607:../Libraries/XMCLib/src/xmc_ccu4.c **** 
 608:../Libraries/XMCLib/src/xmc_ccu4.c **** /* API to configure slice status bit override function */
 609:../Libraries/XMCLib/src/xmc_ccu4.c **** void XMC_CCU4_SLICE_StatusBitOverrideConfig(XMC_CCU4_SLICE_t *const slice)
 610:../Libraries/XMCLib/src/xmc_ccu4.c **** {
 713              	 .loc 1 610 0
 714              	 .cfi_startproc
 715              	.LVL92:
 611:../Libraries/XMCLib/src/xmc_ccu4.c ****   uint32_t cmc;
 612:../Libraries/XMCLib/src/xmc_ccu4.c ****   
 613:../Libraries/XMCLib/src/xmc_ccu4.c ****   XMC_ASSERT("XMC_CCU4_SLICE_StatusBitOverrideConfig:Invalid Slice Pointer", XMC_CCU4_IsValidSlice(
 614:../Libraries/XMCLib/src/xmc_ccu4.c ****   
 615:../Libraries/XMCLib/src/xmc_ccu4.c ****   /* Bind the event with the override function */
 616:../Libraries/XMCLib/src/xmc_ccu4.c ****   cmc = slice->CMC;
 716              	 .loc 1 616 0
 717 0000 4268     	 ldr r2,[r0,#4]
 718              	.LVL93:
 617:../Libraries/XMCLib/src/xmc_ccu4.c ****   /* Map status bit trigger override to Event 1 & 
 618:../Libraries/XMCLib/src/xmc_ccu4.c ****          status bit value override to Event 2 */
 619:../Libraries/XMCLib/src/xmc_ccu4.c ****   cmc &= ~((uint32_t) CCU4_CC4_CMC_OFS_Msk);
 719              	 .loc 1 619 0
 720 0002 034B     	 ldr r3,.L46
 721 0004 1340     	 and r3,r2
 722              	.LVL94:
 620:../Libraries/XMCLib/src/xmc_ccu4.c ****   cmc |= ((uint32_t) 1) << CCU4_CC4_CMC_OFS_Pos;
 723              	 .loc 1 620 0
 724 0006 8022     	 mov r2,#128
 725 0008 5202     	 lsl r2,r2,#9
 726 000a 1343     	 orr r3,r2
 727              	.LVL95:
 621:../Libraries/XMCLib/src/xmc_ccu4.c **** 
 622:../Libraries/XMCLib/src/xmc_ccu4.c ****   slice->CMC = cmc;
 728              	 .loc 1 622 0
 729 000c 4360     	 str r3,[r0,#4]
 623:../Libraries/XMCLib/src/xmc_ccu4.c **** }
 730              	 .loc 1 623 0
 731              	 
 732 000e 7047     	 bx lr
 733              	.L47:
 734              	 .align 2
 735              	.L46:
 736 0010 FFFFFEFF 	 .word -65537
 737              	 .cfi_endproc
 738              	.LFE109:
 740              	 .section .text.XMC_CCU4_SLICE_TrapConfig,"ax",%progbits
 741              	 .align 2
 742              	 .global XMC_CCU4_SLICE_TrapConfig
 743              	 .code 16
 744              	 .thumb_func
 746              	XMC_CCU4_SLICE_TrapConfig:
 747              	.LFB110:
 624:../Libraries/XMCLib/src/xmc_ccu4.c **** 
 625:../Libraries/XMCLib/src/xmc_ccu4.c **** /* API to configure trap function */
 626:../Libraries/XMCLib/src/xmc_ccu4.c **** void XMC_CCU4_SLICE_TrapConfig(XMC_CCU4_SLICE_t *const slice,
 627:../Libraries/XMCLib/src/xmc_ccu4.c ****                                const XMC_CCU4_SLICE_TRAP_EXIT_MODE_t exit_mode,
 628:../Libraries/XMCLib/src/xmc_ccu4.c ****                                const bool synch_with_pwm)
 629:../Libraries/XMCLib/src/xmc_ccu4.c **** {
 748              	 .loc 1 629 0
 749              	 .cfi_startproc
 750              	.LVL96:
 751 0000 10B5     	 push {r4,lr}
 752              	.LCFI6:
 753              	 .cfi_def_cfa_offset 8
 754              	 .cfi_offset 4,-8
 755              	 .cfi_offset 14,-4
 630:../Libraries/XMCLib/src/xmc_ccu4.c ****   uint32_t cmc;
 631:../Libraries/XMCLib/src/xmc_ccu4.c ****   uint32_t tc;
 632:../Libraries/XMCLib/src/xmc_ccu4.c ****   
 633:../Libraries/XMCLib/src/xmc_ccu4.c ****   XMC_ASSERT("XMC_CCU4_SLICE_TrapConfig:Invalid Slice Pointer", XMC_CCU4_IsValidSlice(slice));
 634:../Libraries/XMCLib/src/xmc_ccu4.c ****   XMC_ASSERT("XMC_CCU4_SLICE_TrapConfig:Invalid Exit Mode", ((exit_mode == XMC_CCU4_SLICE_TRAP_EXIT
 635:../Libraries/XMCLib/src/xmc_ccu4.c ****                                                              (exit_mode == XMC_CCU4_SLICE_TRAP_EXIT
 636:../Libraries/XMCLib/src/xmc_ccu4.c ****     
 637:../Libraries/XMCLib/src/xmc_ccu4.c ****   /* First, Map trap function to Event 2 */
 638:../Libraries/XMCLib/src/xmc_ccu4.c ****   cmc = slice->CMC;
 756              	 .loc 1 638 0
 757 0002 4468     	 ldr r4,[r0,#4]
 758              	.LVL97:
 639:../Libraries/XMCLib/src/xmc_ccu4.c ****   cmc &= ~((uint32_t) CCU4_CC4_CMC_TS_Msk);
 759              	 .loc 1 639 0
 760 0004 0C4B     	 ldr r3,.L53
 761 0006 2340     	 and r3,r4
 762              	.LVL98:
 640:../Libraries/XMCLib/src/xmc_ccu4.c ****   cmc |= ((uint32_t) 1) << CCU4_CC4_CMC_TS_Pos;
 763              	 .loc 1 640 0
 764 0008 8024     	 mov r4,#128
 765 000a A402     	 lsl r4,r4,#10
 766 000c 2343     	 orr r3,r4
 767              	.LVL99:
 641:../Libraries/XMCLib/src/xmc_ccu4.c ****   slice->CMC = cmc;
 768              	 .loc 1 641 0
 769 000e 4360     	 str r3,[r0,#4]
 642:../Libraries/XMCLib/src/xmc_ccu4.c ****   
 643:../Libraries/XMCLib/src/xmc_ccu4.c ****   /* Next, Configure synchronization option */
 644:../Libraries/XMCLib/src/xmc_ccu4.c ****   tc = slice->TC;
 770              	 .loc 1 644 0
 771 0010 4369     	 ldr r3,[r0,#20]
 772              	.LVL100:
 645:../Libraries/XMCLib/src/xmc_ccu4.c **** 
 646:../Libraries/XMCLib/src/xmc_ccu4.c ****   if (synch_with_pwm == (bool) true)
 773              	 .loc 1 646 0
 774 0012 002A     	 cmp r2,#0
 775 0014 03D0     	 beq .L49
 647:../Libraries/XMCLib/src/xmc_ccu4.c ****   {
 648:../Libraries/XMCLib/src/xmc_ccu4.c ****     tc |= (uint32_t) CCU4_CC4_TC_TRPSE_Msk;
 776              	 .loc 1 648 0
 777 0016 8022     	 mov r2,#128
 778              	.LVL101:
 779 0018 9203     	 lsl r2,r2,#14
 780 001a 1343     	 orr r3,r2
 781              	.LVL102:
 782 001c 01E0     	 b .L50
 783              	.LVL103:
 784              	.L49:
 649:../Libraries/XMCLib/src/xmc_ccu4.c ****   }
 650:../Libraries/XMCLib/src/xmc_ccu4.c ****   else
 651:../Libraries/XMCLib/src/xmc_ccu4.c ****   {
 652:../Libraries/XMCLib/src/xmc_ccu4.c ****     tc &= ~((uint32_t) CCU4_CC4_TC_TRPSE_Msk);
 785              	 .loc 1 652 0
 786 001e 074A     	 ldr r2,.L53+4
 787              	.LVL104:
 788 0020 1340     	 and r3,r2
 789              	.LVL105:
 790              	.L50:
 653:../Libraries/XMCLib/src/xmc_ccu4.c ****   }
 654:../Libraries/XMCLib/src/xmc_ccu4.c ****   
 655:../Libraries/XMCLib/src/xmc_ccu4.c ****   /* Configure exit mode */
 656:../Libraries/XMCLib/src/xmc_ccu4.c ****   if (exit_mode == XMC_CCU4_SLICE_TRAP_EXIT_MODE_SW)
 791              	 .loc 1 656 0
 792 0022 0129     	 cmp r1,#1
 793 0024 03D1     	 bne .L51
 657:../Libraries/XMCLib/src/xmc_ccu4.c ****   {
 658:../Libraries/XMCLib/src/xmc_ccu4.c ****     tc |= (uint32_t) CCU4_CC4_TC_TRPSW_Msk;
 794              	 .loc 1 658 0
 795 0026 8022     	 mov r2,#128
 796 0028 D203     	 lsl r2,r2,#15
 797 002a 1343     	 orr r3,r2
 798              	.LVL106:
 799 002c 01E0     	 b .L52
 800              	.L51:
 659:../Libraries/XMCLib/src/xmc_ccu4.c ****   }
 660:../Libraries/XMCLib/src/xmc_ccu4.c ****   else
 661:../Libraries/XMCLib/src/xmc_ccu4.c ****   {
 662:../Libraries/XMCLib/src/xmc_ccu4.c ****     tc &= ~((uint32_t) CCU4_CC4_TC_TRPSW_Msk);
 801              	 .loc 1 662 0
 802 002e 044A     	 ldr r2,.L53+8
 803 0030 1340     	 and r3,r2
 804              	.LVL107:
 805              	.L52:
 663:../Libraries/XMCLib/src/xmc_ccu4.c ****   }
 664:../Libraries/XMCLib/src/xmc_ccu4.c ****   
 665:../Libraries/XMCLib/src/xmc_ccu4.c ****   slice->TC = tc;
 806              	 .loc 1 665 0
 807 0032 4361     	 str r3,[r0,#20]
 808              	.LVL108:
 666:../Libraries/XMCLib/src/xmc_ccu4.c **** }
 809              	 .loc 1 666 0
 810              	 
 811 0034 10BD     	 pop {r4,pc}
 812              	.L54:
 813 0036 C046     	 .align 2
 814              	.L53:
 815 0038 FFFFFDFF 	 .word -131073
 816 003c FFFFDFFF 	 .word -2097153
 817 0040 FFFFBFFF 	 .word -4194305
 818              	 .cfi_endproc
 819              	.LFE110:
 821              	 .section .text.XMC_CCU4_SLICE_ConfigureStatusBitOverrideEvent,"ax",%progbits
 822              	 .align 2
 823              	 .global XMC_CCU4_SLICE_ConfigureStatusBitOverrideEvent
 824              	 .code 16
 825              	 .thumb_func
 827              	XMC_CCU4_SLICE_ConfigureStatusBitOverrideEvent:
 828              	.LFB111:
 667:../Libraries/XMCLib/src/xmc_ccu4.c **** 
 668:../Libraries/XMCLib/src/xmc_ccu4.c **** /* API to configure a slice Status Bit Override event */
 669:../Libraries/XMCLib/src/xmc_ccu4.c **** void XMC_CCU4_SLICE_ConfigureStatusBitOverrideEvent(XMC_CCU4_SLICE_t *const slice,
 670:../Libraries/XMCLib/src/xmc_ccu4.c ****                                                     const XMC_CCU4_SLICE_EVENT_CONFIG_t *const ev1_
 671:../Libraries/XMCLib/src/xmc_ccu4.c ****                                                     const XMC_CCU4_SLICE_EVENT_CONFIG_t *const ev2_
 672:../Libraries/XMCLib/src/xmc_ccu4.c **** {
 829              	 .loc 1 672 0
 830              	 .cfi_startproc
 831              	.LVL109:
 832 0000 F0B5     	 push {r4,r5,r6,r7,lr}
 833              	.LCFI7:
 834              	 .cfi_def_cfa_offset 20
 835              	 .cfi_offset 4,-20
 836              	 .cfi_offset 5,-16
 837              	 .cfi_offset 6,-12
 838              	 .cfi_offset 7,-8
 839              	 .cfi_offset 14,-4
 673:../Libraries/XMCLib/src/xmc_ccu4.c ****   uint32_t ins;
 674:../Libraries/XMCLib/src/xmc_ccu4.c **** 
 675:../Libraries/XMCLib/src/xmc_ccu4.c ****   XMC_ASSERT("XMC_CCU4_SLICE_ConfigureStatusBitOverrideEvent:Invalid Slice Pointer", XMC_CCU4_IsVal
 676:../Libraries/XMCLib/src/xmc_ccu4.c ****   XMC_ASSERT("XMC_CCU4_SLICE_ConfigureStatusBitOverrideEvent:Invalid Input",
 677:../Libraries/XMCLib/src/xmc_ccu4.c ****          XMC_CCU4_SLICE_IsInputvalid(ev1_config->mapped_input));
 678:../Libraries/XMCLib/src/xmc_ccu4.c ****   XMC_ASSERT("XMC_CCU4_SLICE_ConfigureStatusBitOverrideEvent:Invalid Edge Sensitivity",
 679:../Libraries/XMCLib/src/xmc_ccu4.c ****              XMC_CCU4_SLICE_CHECK_EDGE_SENSITIVITY(ev1_config->edge));
 680:../Libraries/XMCLib/src/xmc_ccu4.c ****   XMC_ASSERT("XMC_CCU4_SLICE_ConfigureStatusBitOverrideEvent:Invalid Level Sensitivity",
 681:../Libraries/XMCLib/src/xmc_ccu4.c ****              ((ev1_config->level == XMC_CCU4_SLICE_EVENT_LEVEL_SENSITIVITY_ACTIVE_HIGH) ||\
 682:../Libraries/XMCLib/src/xmc_ccu4.c ****               (ev1_config->level == XMC_CCU4_SLICE_EVENT_LEVEL_SENSITIVITY_ACTIVE_LOW)));
 683:../Libraries/XMCLib/src/xmc_ccu4.c ****   XMC_ASSERT("XMC_CCU4_SLICE_ConfigureStatusBitOverrideEvent:Invalid Debounce Period",
 684:../Libraries/XMCLib/src/xmc_ccu4.c ****              XMC_CCU4_SLICE_CHECK_EVENT_FILTER(ev1_config->duration));
 685:../Libraries/XMCLib/src/xmc_ccu4.c ****   XMC_ASSERT("XMC_CCU4_SLICE_ConfigureStatusBitOverrideEvent:Invalid Input",
 686:../Libraries/XMCLib/src/xmc_ccu4.c ****          XMC_CCU4_SLICE_IsInputvalid(ev2_config->mapped_input));
 687:../Libraries/XMCLib/src/xmc_ccu4.c ****   XMC_ASSERT("XMC_CCU4_SLICE_ConfigureStatusBitOverrideEvent:Invalid Edge Sensitivity",
 688:../Libraries/XMCLib/src/xmc_ccu4.c ****              XMC_CCU4_SLICE_CHECK_EDGE_SENSITIVITY(ev2_config->edge));
 689:../Libraries/XMCLib/src/xmc_ccu4.c ****   XMC_ASSERT("XMC_CCU4_SLICE_ConfigureStatusBitOverrideEvent:Invalid Level Sensitivity",
 690:../Libraries/XMCLib/src/xmc_ccu4.c ****              ((ev2_config->level == XMC_CCU4_SLICE_EVENT_LEVEL_SENSITIVITY_ACTIVE_HIGH) ||\
 691:../Libraries/XMCLib/src/xmc_ccu4.c ****               (ev2_config->level == XMC_CCU4_SLICE_EVENT_LEVEL_SENSITIVITY_ACTIVE_LOW)));
 692:../Libraries/XMCLib/src/xmc_ccu4.c ****   XMC_ASSERT("XMC_CCU4_SLICE_ConfigureStatusBitOverrideEvent:Invalid Debounce Period", 
 693:../Libraries/XMCLib/src/xmc_ccu4.c ****              XMC_CCU4_SLICE_CHECK_EVENT_FILTER(ev2_config->duration));
 694:../Libraries/XMCLib/src/xmc_ccu4.c **** #if defined(CCU4V3) /* Defined for XMC1400 devices only */
 695:../Libraries/XMCLib/src/xmc_ccu4.c ****   ins = slice->INS2;
 696:../Libraries/XMCLib/src/xmc_ccu4.c **** 
 697:../Libraries/XMCLib/src/xmc_ccu4.c ****   /* Configure the edge sensitivity for event 1 */
 698:../Libraries/XMCLib/src/xmc_ccu4.c ****   ins &= ~(((uint32_t) XMC_CCU4_SLICE_EVENT_EDGE_CONFIG_MASK) << CCU4_CC4_INS2_EV1EM_Pos);
 699:../Libraries/XMCLib/src/xmc_ccu4.c ****   ins |= ((uint32_t) ev1_config->edge) << CCU4_CC4_INS2_EV1EM_Pos;
 700:../Libraries/XMCLib/src/xmc_ccu4.c ****   
 701:../Libraries/XMCLib/src/xmc_ccu4.c ****   /* Configure the edge sensitivity for event 2 */
 702:../Libraries/XMCLib/src/xmc_ccu4.c ****   ins &= ~(((uint32_t) XMC_CCU4_SLICE_EVENT_EDGE_CONFIG_MASK) << CCU4_CC4_INS2_EV2EM_Pos);
 703:../Libraries/XMCLib/src/xmc_ccu4.c ****   ins |= ((uint32_t) ev2_config->edge) << CCU4_CC4_INS2_EV2EM_Pos;
 704:../Libraries/XMCLib/src/xmc_ccu4.c ****   
 705:../Libraries/XMCLib/src/xmc_ccu4.c ****   /* Configure the level sensitivity for event 1 */
 706:../Libraries/XMCLib/src/xmc_ccu4.c ****   ins &= ~(((uint32_t) XMC_CCU4_SLICE_EVENT_LEVEL_CONFIG_MASK) << CCU4_CC4_INS2_EV1LM_Pos);
 707:../Libraries/XMCLib/src/xmc_ccu4.c ****   ins |= ((uint32_t) ev1_config->level) << CCU4_CC4_INS2_EV1LM_Pos;
 708:../Libraries/XMCLib/src/xmc_ccu4.c ****   
 709:../Libraries/XMCLib/src/xmc_ccu4.c ****   /* Configure the level sensitivity for event 2 */
 710:../Libraries/XMCLib/src/xmc_ccu4.c ****   ins &= ~(((uint32_t) XMC_CCU4_SLICE_EVENT_LEVEL_CONFIG_MASK) << CCU4_CC4_INS2_EV2LM_Pos);
 711:../Libraries/XMCLib/src/xmc_ccu4.c ****   ins |= ((uint32_t) ev2_config->level) << CCU4_CC4_INS2_EV2LM_Pos;
 712:../Libraries/XMCLib/src/xmc_ccu4.c ****   
 713:../Libraries/XMCLib/src/xmc_ccu4.c ****   /* Configure the debounce filter for event 1 */
 714:../Libraries/XMCLib/src/xmc_ccu4.c ****   ins &= ~(((uint32_t) XMC_CCU4_SLICE_EVENT_FILTER_CONFIG_MASK) << CCU4_CC4_INS2_LPF1M_Pos);
 715:../Libraries/XMCLib/src/xmc_ccu4.c ****   ins |= ((uint32_t) ev1_config->duration) << CCU4_CC4_INS2_LPF1M_Pos;
 716:../Libraries/XMCLib/src/xmc_ccu4.c **** 
 717:../Libraries/XMCLib/src/xmc_ccu4.c ****   /* Configure the debounce filter for event 2 */
 718:../Libraries/XMCLib/src/xmc_ccu4.c ****   ins &= ~(((uint32_t) XMC_CCU4_SLICE_EVENT_FILTER_CONFIG_MASK) << CCU4_CC4_INS2_LPF2M_Pos);
 719:../Libraries/XMCLib/src/xmc_ccu4.c ****   ins |= ((uint32_t) ev2_config->duration) << CCU4_CC4_INS2_LPF2M_Pos;
 720:../Libraries/XMCLib/src/xmc_ccu4.c ****   
 721:../Libraries/XMCLib/src/xmc_ccu4.c ****   slice->INS2 = ins;
 722:../Libraries/XMCLib/src/xmc_ccu4.c ****   
 723:../Libraries/XMCLib/src/xmc_ccu4.c ****   ins = slice->INS1;
 724:../Libraries/XMCLib/src/xmc_ccu4.c ****   
 725:../Libraries/XMCLib/src/xmc_ccu4.c ****   /* Next, the input for Event1 */
 726:../Libraries/XMCLib/src/xmc_ccu4.c ****   ins &= ~(((uint32_t) XMC_CCU4_SLICE_EVENT_INPUT_CONFIG_MASK) << CCU4_CC4_INS1_EV1IS_Pos);
 727:../Libraries/XMCLib/src/xmc_ccu4.c ****   ins |= ((uint32_t) ev1_config->mapped_input) << CCU4_CC4_INS1_EV1IS_Pos;
 728:../Libraries/XMCLib/src/xmc_ccu4.c **** 
 729:../Libraries/XMCLib/src/xmc_ccu4.c ****   /* Finally, the input for Event2 */
 730:../Libraries/XMCLib/src/xmc_ccu4.c ****   ins &= ~(((uint32_t) XMC_CCU4_SLICE_EVENT_INPUT_CONFIG_MASK) << CCU4_CC4_INS1_EV2IS_Pos);
 731:../Libraries/XMCLib/src/xmc_ccu4.c ****   ins |= ((uint32_t) ev2_config->mapped_input) << CCU4_CC4_INS1_EV2IS_Pos;
 732:../Libraries/XMCLib/src/xmc_ccu4.c ****   
 733:../Libraries/XMCLib/src/xmc_ccu4.c ****   slice->INS1 = ins;
 734:../Libraries/XMCLib/src/xmc_ccu4.c **** #else
 735:../Libraries/XMCLib/src/xmc_ccu4.c ****   ins = slice->INS;
 840              	 .loc 1 735 0
 841 0002 0668     	 ldr r6,[r0]
 842              	.LVL110:
 736:../Libraries/XMCLib/src/xmc_ccu4.c **** 
 737:../Libraries/XMCLib/src/xmc_ccu4.c ****   /* Configure the edge sensitivity for event 1 */
 738:../Libraries/XMCLib/src/xmc_ccu4.c ****   ins &= ~(((uint32_t) XMC_CCU4_SLICE_EVENT_EDGE_CONFIG_MASK) << CCU4_CC4_INS_EV1EM_Pos);
 843              	 .loc 1 738 0
 844 0004 174B     	 ldr r3,.L56
 845 0006 1E40     	 and r6,r3
 846              	.LVL111:
 739:../Libraries/XMCLib/src/xmc_ccu4.c ****   ins |= ((uint32_t) ev1_config->edge) << CCU4_CC4_INS_EV1EM_Pos;
 847              	 .loc 1 739 0
 848 0008 4B78     	 ldrb r3,[r1,#1]
 849 000a 9B04     	 lsl r3,r3,#18
 850 000c 3343     	 orr r3,r6
 851              	.LVL112:
 740:../Libraries/XMCLib/src/xmc_ccu4.c ****   
 741:../Libraries/XMCLib/src/xmc_ccu4.c ****   /* Configure the edge sensitivity for event 2 */
 742:../Libraries/XMCLib/src/xmc_ccu4.c ****   ins &= ~(((uint32_t) XMC_CCU4_SLICE_EVENT_EDGE_CONFIG_MASK) << CCU4_CC4_INS_EV2EM_Pos);
 852              	 .loc 1 742 0
 853 000e 164E     	 ldr r6,.L56+4
 854 0010 3340     	 and r3,r6
 855              	.LVL113:
 856 0012 1D1C     	 mov r5,r3
 857              	.LVL114:
 743:../Libraries/XMCLib/src/xmc_ccu4.c ****   ins |= ((uint32_t) ev2_config->edge) << CCU4_CC4_INS_EV2EM_Pos;
 858              	 .loc 1 743 0
 859 0014 5378     	 ldrb r3,[r2,#1]
 860              	.LVL115:
 861 0016 1B05     	 lsl r3,r3,#20
 862 0018 2B43     	 orr r3,r5
 863              	.LVL116:
 744:../Libraries/XMCLib/src/xmc_ccu4.c ****   
 745:../Libraries/XMCLib/src/xmc_ccu4.c ****   /* Configure the level sensitivity for event 1 */
 746:../Libraries/XMCLib/src/xmc_ccu4.c ****   ins &= ~(((uint32_t) XMC_CCU4_SLICE_EVENT_LEVEL_CONFIG_MASK) << CCU4_CC4_INS_EV1LM_Pos);
 864              	 .loc 1 746 0
 865 001a 144D     	 ldr r5,.L56+8
 866 001c 2B40     	 and r3,r5
 867              	.LVL117:
 868 001e 1C1C     	 mov r4,r3
 869              	.LVL118:
 747:../Libraries/XMCLib/src/xmc_ccu4.c ****   ins |= ((uint32_t) ev1_config->level) << CCU4_CC4_INS_EV1LM_Pos;
 870              	 .loc 1 747 0
 871 0020 8B78     	 ldrb r3,[r1,#2]
 872              	.LVL119:
 873 0022 DB05     	 lsl r3,r3,#23
 874 0024 2343     	 orr r3,r4
 875              	.LVL120:
 748:../Libraries/XMCLib/src/xmc_ccu4.c ****   
 749:../Libraries/XMCLib/src/xmc_ccu4.c ****   /* Configure the level sensitivity for event 2 */
 750:../Libraries/XMCLib/src/xmc_ccu4.c ****   ins &= ~(((uint32_t) XMC_CCU4_SLICE_EVENT_LEVEL_CONFIG_MASK) << CCU4_CC4_INS_EV2LM_Pos);
 876              	 .loc 1 750 0
 877 0026 124C     	 ldr r4,.L56+12
 878 0028 2340     	 and r3,r4
 879              	.LVL121:
 880 002a 1F1C     	 mov r7,r3
 881              	.LVL122:
 751:../Libraries/XMCLib/src/xmc_ccu4.c ****   ins |= ((uint32_t) ev2_config->level) << CCU4_CC4_INS_EV2LM_Pos;
 882              	 .loc 1 751 0
 883 002c 9378     	 ldrb r3,[r2,#2]
 884              	.LVL123:
 885 002e 1B06     	 lsl r3,r3,#24
 886 0030 3B43     	 orr r3,r7
 887              	.LVL124:
 752:../Libraries/XMCLib/src/xmc_ccu4.c ****   
 753:../Libraries/XMCLib/src/xmc_ccu4.c ****   /* Configure the debounce filter for event 1 */
 754:../Libraries/XMCLib/src/xmc_ccu4.c ****   ins &= ~(((uint32_t) XMC_CCU4_SLICE_EVENT_FILTER_CONFIG_MASK) << CCU4_CC4_INS_LPF1M_Pos);
 888              	 .loc 1 754 0
 889 0032 104F     	 ldr r7,.L56+16
 890 0034 3B40     	 and r3,r7
 891              	.LVL125:
 892 0036 1E1C     	 mov r6,r3
 893              	.LVL126:
 755:../Libraries/XMCLib/src/xmc_ccu4.c ****   ins |= ((uint32_t) ev1_config->duration) << CCU4_CC4_INS_LPF1M_Pos;
 894              	 .loc 1 755 0
 895 0038 CB78     	 ldrb r3,[r1,#3]
 896              	.LVL127:
 897 003a DB06     	 lsl r3,r3,#27
 898 003c 3343     	 orr r3,r6
 899              	.LVL128:
 756:../Libraries/XMCLib/src/xmc_ccu4.c **** 
 757:../Libraries/XMCLib/src/xmc_ccu4.c ****   /* Configure the debounce filter for event 2 */
 758:../Libraries/XMCLib/src/xmc_ccu4.c ****   ins &= ~(((uint32_t) XMC_CCU4_SLICE_EVENT_FILTER_CONFIG_MASK) << CCU4_CC4_INS_LPF2M_Pos);
 900              	 .loc 1 758 0
 901 003e 0E4E     	 ldr r6,.L56+20
 902 0040 3340     	 and r3,r6
 903              	.LVL129:
 904 0042 1D1C     	 mov r5,r3
 905              	.LVL130:
 759:../Libraries/XMCLib/src/xmc_ccu4.c ****   ins |= ((uint32_t) ev2_config->duration) << CCU4_CC4_INS_LPF2M_Pos;
 906              	 .loc 1 759 0
 907 0044 D378     	 ldrb r3,[r2,#3]
 908              	.LVL131:
 909 0046 5B07     	 lsl r3,r3,#29
 910 0048 2B43     	 orr r3,r5
 911              	.LVL132:
 760:../Libraries/XMCLib/src/xmc_ccu4.c ****   
 761:../Libraries/XMCLib/src/xmc_ccu4.c ****   /* Next, the input for Event1 */
 762:../Libraries/XMCLib/src/xmc_ccu4.c ****   ins &= ~(((uint32_t) XMC_CCU4_SLICE_EVENT_INPUT_CONFIG_MASK) << CCU4_CC4_INS_EV1IS_Pos);
 912              	 .loc 1 762 0
 913 004a F024     	 mov r4,#240
 914 004c A343     	 bic r3,r4
 915              	.LVL133:
 916 004e 1C1C     	 mov r4,r3
 917              	.LVL134:
 763:../Libraries/XMCLib/src/xmc_ccu4.c ****   ins |= ((uint32_t) ev1_config->mapped_input) << CCU4_CC4_INS_EV1IS_Pos;
 918              	 .loc 1 763 0
 919 0050 0B78     	 ldrb r3,[r1]
 920              	.LVL135:
 921 0052 1B01     	 lsl r3,r3,#4
 922 0054 2343     	 orr r3,r4
 923              	.LVL136:
 764:../Libraries/XMCLib/src/xmc_ccu4.c **** 
 765:../Libraries/XMCLib/src/xmc_ccu4.c ****   /* Finally, the input for Event2 */
 766:../Libraries/XMCLib/src/xmc_ccu4.c ****   ins &= ~(((uint32_t) XMC_CCU4_SLICE_EVENT_INPUT_CONFIG_MASK) << CCU4_CC4_INS_EV2IS_Pos);
 924              	 .loc 1 766 0
 925 0056 0949     	 ldr r1,.L56+24
 926              	.LVL137:
 927 0058 0B40     	 and r3,r1
 928              	.LVL138:
 767:../Libraries/XMCLib/src/xmc_ccu4.c ****   ins |= ((uint32_t) ev2_config->mapped_input) << CCU4_CC4_INS_EV2IS_Pos;
 929              	 .loc 1 767 0
 930 005a 1278     	 ldrb r2,[r2]
 931              	.LVL139:
 932 005c 1202     	 lsl r2,r2,#8
 933 005e 1343     	 orr r3,r2
 934              	.LVL140:
 768:../Libraries/XMCLib/src/xmc_ccu4.c ****   
 769:../Libraries/XMCLib/src/xmc_ccu4.c ****   slice->INS = ins;
 935              	 .loc 1 769 0
 936 0060 0360     	 str r3,[r0]
 770:../Libraries/XMCLib/src/xmc_ccu4.c **** #endif
 771:../Libraries/XMCLib/src/xmc_ccu4.c **** }
 937              	 .loc 1 771 0
 938              	 
 939 0062 F0BD     	 pop {r4,r5,r6,r7,pc}
 940              	.L57:
 941              	 .align 2
 942              	.L56:
 943 0064 FFFFF3FF 	 .word -786433
 944 0068 FFFFCFFF 	 .word -3145729
 945 006c FFFF7FFF 	 .word -8388609
 946 0070 FFFFFFFE 	 .word -16777217
 947 0074 FFFFFFE7 	 .word -402653185
 948 0078 FFFFFF9F 	 .word -1610612737
 949 007c FFF0FFFF 	 .word -3841
 950              	 .cfi_endproc
 951              	.LFE111:
 953              	 .section .text.XMC_CCU4_SLICE_ConfigureEvent,"ax",%progbits
 954              	 .align 2
 955              	 .global XMC_CCU4_SLICE_ConfigureEvent
 956              	 .code 16
 957              	 .thumb_func
 959              	XMC_CCU4_SLICE_ConfigureEvent:
 960              	.LFB112:
 772:../Libraries/XMCLib/src/xmc_ccu4.c **** 
 773:../Libraries/XMCLib/src/xmc_ccu4.c **** /* API to configure a slice trigger event */
 774:../Libraries/XMCLib/src/xmc_ccu4.c **** void XMC_CCU4_SLICE_ConfigureEvent(XMC_CCU4_SLICE_t *const slice,
 775:../Libraries/XMCLib/src/xmc_ccu4.c ****                                    const XMC_CCU4_SLICE_EVENT_t event,
 776:../Libraries/XMCLib/src/xmc_ccu4.c ****                                    const XMC_CCU4_SLICE_EVENT_CONFIG_t *const config)
 777:../Libraries/XMCLib/src/xmc_ccu4.c **** {
 961              	 .loc 1 777 0
 962              	 .cfi_startproc
 963              	.LVL141:
 964 0000 F0B5     	 push {r4,r5,r6,r7,lr}
 965              	.LCFI8:
 966              	 .cfi_def_cfa_offset 20
 967              	 .cfi_offset 4,-20
 968              	 .cfi_offset 5,-16
 969              	 .cfi_offset 6,-12
 970              	 .cfi_offset 7,-8
 971              	 .cfi_offset 14,-4
 778:../Libraries/XMCLib/src/xmc_ccu4.c ****   uint32_t ins;
 779:../Libraries/XMCLib/src/xmc_ccu4.c ****   uint8_t  pos;
 780:../Libraries/XMCLib/src/xmc_ccu4.c ****   uint8_t  offset;
 781:../Libraries/XMCLib/src/xmc_ccu4.c **** 
 782:../Libraries/XMCLib/src/xmc_ccu4.c ****   XMC_ASSERT("XMC_CCU4_SLICE_ConfigureEvent:Invalid Slice Pointer", XMC_CCU4_IsValidSlice(slice));
 783:../Libraries/XMCLib/src/xmc_ccu4.c ****   XMC_ASSERT("XMC_CCU4_SLICE_ConfigureEvent:Invalid Event ID", XMC_CCU4_SLICE_CHECK_EVENT_ID(event)
 784:../Libraries/XMCLib/src/xmc_ccu4.c ****   XMC_ASSERT("XMC_CCU4_SLICE_ConfigureEvent:Invalid Input", XMC_CCU4_SLICE_IsInputvalid(config->map
 785:../Libraries/XMCLib/src/xmc_ccu4.c ****   XMC_ASSERT("XMC_CCU4_SLICE_ConfigureEvent:Invalid Edge Sensitivity",
 786:../Libraries/XMCLib/src/xmc_ccu4.c ****              XMC_CCU4_SLICE_CHECK_EDGE_SENSITIVITY(config->edge));
 787:../Libraries/XMCLib/src/xmc_ccu4.c ****   XMC_ASSERT("XMC_CCU4_SLICE_ConfigureEvent:Invalid Level Sensitivity",
 788:../Libraries/XMCLib/src/xmc_ccu4.c ****              ((config->level == XMC_CCU4_SLICE_EVENT_LEVEL_SENSITIVITY_ACTIVE_HIGH) ||\
 789:../Libraries/XMCLib/src/xmc_ccu4.c ****               (config->level == XMC_CCU4_SLICE_EVENT_LEVEL_SENSITIVITY_ACTIVE_LOW)));
 790:../Libraries/XMCLib/src/xmc_ccu4.c ****   XMC_ASSERT("XMC_CCU4_SLICE_ConfigureEvent:Invalid Debounce Period", 
 791:../Libraries/XMCLib/src/xmc_ccu4.c ****              XMC_CCU4_SLICE_CHECK_EVENT_FILTER(config->duration));
 792:../Libraries/XMCLib/src/xmc_ccu4.c ****   /* Calculate offset with reference to event */
 793:../Libraries/XMCLib/src/xmc_ccu4.c ****   offset = ((uint8_t) event) - 1U;
 972              	 .loc 1 793 0
 973 0002 4F1E     	 sub r7,r1,#1
 974 0004 FFB2     	 uxtb r7,r7
 975              	.LVL142:
 794:../Libraries/XMCLib/src/xmc_ccu4.c ****   
 795:../Libraries/XMCLib/src/xmc_ccu4.c **** #if defined(CCU4V3) /* Defined for XMC1400 devices only */
 796:../Libraries/XMCLib/src/xmc_ccu4.c ****   ins = slice->INS2;
 797:../Libraries/XMCLib/src/xmc_ccu4.c **** 
 798:../Libraries/XMCLib/src/xmc_ccu4.c ****   /* First, configure the edge sensitivity */
 799:../Libraries/XMCLib/src/xmc_ccu4.c ****   pos = ((uint8_t) CCU4_CC4_INS2_EV0EM_Pos) + (uint8_t)(offset << 2U);
 800:../Libraries/XMCLib/src/xmc_ccu4.c ****   ins &= ~(((uint32_t) XMC_CCU4_SLICE_EVENT_EDGE_CONFIG_MASK) << pos);
 801:../Libraries/XMCLib/src/xmc_ccu4.c ****   ins |= ((uint32_t) config->edge) << pos;
 802:../Libraries/XMCLib/src/xmc_ccu4.c **** 
 803:../Libraries/XMCLib/src/xmc_ccu4.c ****   /* Next, the level */
 804:../Libraries/XMCLib/src/xmc_ccu4.c ****   pos = ((uint8_t) CCU4_CC4_INS2_EV0LM_Pos) + (uint8_t)(offset << 2U);
 805:../Libraries/XMCLib/src/xmc_ccu4.c ****   ins &= ~(((uint32_t) XMC_CCU4_SLICE_EVENT_LEVEL_CONFIG_MASK) << pos);
 806:../Libraries/XMCLib/src/xmc_ccu4.c ****   ins |= ((uint32_t) config->level) << pos;
 807:../Libraries/XMCLib/src/xmc_ccu4.c **** 
 808:../Libraries/XMCLib/src/xmc_ccu4.c ****   /* Next, the debounce filter */
 809:../Libraries/XMCLib/src/xmc_ccu4.c ****   pos = ((uint8_t) CCU4_CC4_INS2_LPF0M_Pos) + (uint8_t)(offset << 2U);
 810:../Libraries/XMCLib/src/xmc_ccu4.c ****   ins &= ~(((uint32_t) XMC_CCU4_SLICE_EVENT_FILTER_CONFIG_MASK) << pos);
 811:../Libraries/XMCLib/src/xmc_ccu4.c ****   ins |= ((uint32_t) config->duration) << pos;
 812:../Libraries/XMCLib/src/xmc_ccu4.c **** 
 813:../Libraries/XMCLib/src/xmc_ccu4.c ****   slice->INS2 = ins;
 814:../Libraries/XMCLib/src/xmc_ccu4.c **** 
 815:../Libraries/XMCLib/src/xmc_ccu4.c ****   ins = slice->INS1;
 816:../Libraries/XMCLib/src/xmc_ccu4.c **** 
 817:../Libraries/XMCLib/src/xmc_ccu4.c ****   /* Finally the input */
 818:../Libraries/XMCLib/src/xmc_ccu4.c ****   pos = ((uint8_t) CCU4_CC4_INS1_EV0IS_Pos) + (uint8_t)(offset << 3U);
 819:../Libraries/XMCLib/src/xmc_ccu4.c ****   ins &= ~(((uint32_t) XMC_CCU4_SLICE_EVENT_INPUT_CONFIG_MASK) << pos);
 820:../Libraries/XMCLib/src/xmc_ccu4.c ****   ins |= ((uint32_t) config->mapped_input) << pos;
 821:../Libraries/XMCLib/src/xmc_ccu4.c **** 
 822:../Libraries/XMCLib/src/xmc_ccu4.c ****   slice->INS1 = ins;
 823:../Libraries/XMCLib/src/xmc_ccu4.c **** 
 824:../Libraries/XMCLib/src/xmc_ccu4.c **** #else
 825:../Libraries/XMCLib/src/xmc_ccu4.c ****   ins = slice->INS;
 976              	 .loc 1 825 0
 977 0006 0368     	 ldr r3,[r0]
 978              	.LVL143:
 826:../Libraries/XMCLib/src/xmc_ccu4.c ****   
 827:../Libraries/XMCLib/src/xmc_ccu4.c ****   /* First, configure the edge sensitivity */
 828:../Libraries/XMCLib/src/xmc_ccu4.c ****   pos = ((uint8_t) CCU4_CC4_INS_EV0EM_Pos) + (uint8_t)(offset << 1U);
 979              	 .loc 1 828 0
 980 0008 7C00     	 lsl r4,r7,#1
 981 000a E4B2     	 uxtb r4,r4
 982 000c 251C     	 mov r5,r4
 983 000e 1035     	 add r5,r5,#16
 984 0010 EDB2     	 uxtb r5,r5
 985              	.LVL144:
 829:../Libraries/XMCLib/src/xmc_ccu4.c ****   ins &= ~(((uint32_t) XMC_CCU4_SLICE_EVENT_EDGE_CONFIG_MASK) << pos);
 986              	 .loc 1 829 0
 987 0012 0326     	 mov r6,#3
 988 0014 B446     	 mov ip,r6
 989 0016 AE40     	 lsl r6,r6,r5
 990 0018 B343     	 bic r3,r6
 991              	.LVL145:
 992 001a 1E1C     	 mov r6,r3
 993              	.LVL146:
 830:../Libraries/XMCLib/src/xmc_ccu4.c ****   ins |= ((uint32_t) config->edge) << pos;
 994              	 .loc 1 830 0
 995 001c 5378     	 ldrb r3,[r2,#1]
 996              	.LVL147:
 997 001e AB40     	 lsl r3,r3,r5
 998 0020 3343     	 orr r3,r6
 999              	.LVL148:
 831:../Libraries/XMCLib/src/xmc_ccu4.c ****   
 832:../Libraries/XMCLib/src/xmc_ccu4.c ****   /* Next, the level */
 833:../Libraries/XMCLib/src/xmc_ccu4.c ****   pos = ((uint8_t) CCU4_CC4_INS_EV0LM_Pos) + offset;
 1000              	 .loc 1 833 0
 1001 0022 1531     	 add r1,r1,#21
 1002              	.LVL149:
 1003 0024 C9B2     	 uxtb r1,r1
 1004              	.LVL150:
 834:../Libraries/XMCLib/src/xmc_ccu4.c ****   ins &= ~(((uint32_t) XMC_CCU4_SLICE_EVENT_LEVEL_CONFIG_MASK) << pos);
 1005              	 .loc 1 834 0
 1006 0026 0125     	 mov r5,#1
 1007 0028 8D40     	 lsl r5,r5,r1
 1008 002a AB43     	 bic r3,r5
 1009              	.LVL151:
 1010 002c 1D1C     	 mov r5,r3
 1011              	.LVL152:
 835:../Libraries/XMCLib/src/xmc_ccu4.c ****   ins |= ((uint32_t) config->level) << pos;
 1012              	 .loc 1 835 0
 1013 002e 9378     	 ldrb r3,[r2,#2]
 1014              	.LVL153:
 1015 0030 8B40     	 lsl r3,r3,r1
 1016 0032 2B43     	 orr r3,r5
 1017              	.LVL154:
 836:../Libraries/XMCLib/src/xmc_ccu4.c ****   
 837:../Libraries/XMCLib/src/xmc_ccu4.c ****   /* Next, the debounce filter */
 838:../Libraries/XMCLib/src/xmc_ccu4.c ****   pos = ((uint8_t) CCU4_CC4_INS_LPF0M_Pos) + (uint8_t)(offset << 1U);
 1018              	 .loc 1 838 0
 1019 0034 1934     	 add r4,r4,#25
 1020 0036 E1B2     	 uxtb r1,r4
 1021              	.LVL155:
 839:../Libraries/XMCLib/src/xmc_ccu4.c ****   ins &= ~(((uint32_t) XMC_CCU4_SLICE_EVENT_FILTER_CONFIG_MASK) << pos);
 1022              	 .loc 1 839 0
 1023 0038 6446     	 mov r4,ip
 1024 003a 8C40     	 lsl r4,r4,r1
 1025 003c A343     	 bic r3,r4
 1026              	.LVL156:
 1027 003e 1C1C     	 mov r4,r3
 1028              	.LVL157:
 840:../Libraries/XMCLib/src/xmc_ccu4.c ****   ins |= ((uint32_t) config->duration) << pos;
 1029              	 .loc 1 840 0
 1030 0040 D378     	 ldrb r3,[r2,#3]
 1031              	.LVL158:
 1032 0042 8B40     	 lsl r3,r3,r1
 1033 0044 2343     	 orr r3,r4
 1034              	.LVL159:
 841:../Libraries/XMCLib/src/xmc_ccu4.c **** 
 842:../Libraries/XMCLib/src/xmc_ccu4.c ****   /* Finally the input */
 843:../Libraries/XMCLib/src/xmc_ccu4.c ****   pos = ((uint8_t) CCU4_CC4_INS_EV0IS_Pos) + (uint8_t)(offset << 2U);
 1035              	 .loc 1 843 0
 1036 0046 BF00     	 lsl r7,r7,#2
 1037              	.LVL160:
 1038 0048 FCB2     	 uxtb r4,r7
 1039              	.LVL161:
 844:../Libraries/XMCLib/src/xmc_ccu4.c ****   ins &= ~(((uint32_t) XMC_CCU4_SLICE_EVENT_INPUT_CONFIG_MASK) << pos);
 1040              	 .loc 1 844 0
 1041 004a 0F21     	 mov r1,#15
 1042 004c A140     	 lsl r1,r1,r4
 1043 004e 8B43     	 bic r3,r1
 1044              	.LVL162:
 1045 0050 191C     	 mov r1,r3
 1046              	.LVL163:
 845:../Libraries/XMCLib/src/xmc_ccu4.c ****   ins |= ((uint32_t) config->mapped_input) << pos;
 1047              	 .loc 1 845 0
 1048 0052 1378     	 ldrb r3,[r2]
 1049 0054 A340     	 lsl r3,r3,r4
 1050 0056 0B43     	 orr r3,r1
 1051              	.LVL164:
 846:../Libraries/XMCLib/src/xmc_ccu4.c **** 
 847:../Libraries/XMCLib/src/xmc_ccu4.c ****   slice->INS = ins;
 1052              	 .loc 1 847 0
 1053 0058 0360     	 str r3,[r0]
 848:../Libraries/XMCLib/src/xmc_ccu4.c **** #endif
 849:../Libraries/XMCLib/src/xmc_ccu4.c **** }
 1054              	 .loc 1 849 0
 1055              	 
 1056              	.LVL165:
 1057              	.LVL166:
 1058 005a F0BD     	 pop {r4,r5,r6,r7,pc}
 1059              	 .cfi_endproc
 1060              	.LFE112:
 1062              	 .section .text.XMC_CCU4_SLICE_SetInput,"ax",%progbits
 1063              	 .align 2
 1064              	 .global XMC_CCU4_SLICE_SetInput
 1065              	 .code 16
 1066              	 .thumb_func
 1068              	XMC_CCU4_SLICE_SetInput:
 1069              	.LFB113:
 850:../Libraries/XMCLib/src/xmc_ccu4.c **** 
 851:../Libraries/XMCLib/src/xmc_ccu4.c **** /* API to bind an input to a slice trigger event */
 852:../Libraries/XMCLib/src/xmc_ccu4.c **** void XMC_CCU4_SLICE_SetInput(XMC_CCU4_SLICE_t *const slice,
 853:../Libraries/XMCLib/src/xmc_ccu4.c ****                          const XMC_CCU4_SLICE_EVENT_t event,
 854:../Libraries/XMCLib/src/xmc_ccu4.c ****                              const XMC_CCU4_SLICE_INPUT_t input)
 855:../Libraries/XMCLib/src/xmc_ccu4.c **** {
 1070              	 .loc 1 855 0
 1071              	 .cfi_startproc
 1072              	.LVL167:
 1073 0000 10B5     	 push {r4,lr}
 1074              	.LCFI9:
 1075              	 .cfi_def_cfa_offset 8
 1076              	 .cfi_offset 4,-8
 1077              	 .cfi_offset 14,-4
 856:../Libraries/XMCLib/src/xmc_ccu4.c ****   uint32_t ins;
 857:../Libraries/XMCLib/src/xmc_ccu4.c ****   uint8_t  pos;
 858:../Libraries/XMCLib/src/xmc_ccu4.c ****   uint8_t  offset;
 859:../Libraries/XMCLib/src/xmc_ccu4.c **** 
 860:../Libraries/XMCLib/src/xmc_ccu4.c ****   XMC_ASSERT("XMC_CCU4_SLICE_SetInput:Invalid Slice Pointer", XMC_CCU4_IsValidSlice(slice));
 861:../Libraries/XMCLib/src/xmc_ccu4.c ****   XMC_ASSERT("XMC_CCU4_SLICE_SetInput:Invalid Event ID", XMC_CCU4_SLICE_CHECK_EVENT_ID(event));
 862:../Libraries/XMCLib/src/xmc_ccu4.c ****   XMC_ASSERT("XMC_CCU4_SLICE_SetInput:Invalid Input", XMC_CCU4_SLICE_IsInputvalid(input));
 863:../Libraries/XMCLib/src/xmc_ccu4.c ****   
 864:../Libraries/XMCLib/src/xmc_ccu4.c ****   /* Calculate offset with reference to event */
 865:../Libraries/XMCLib/src/xmc_ccu4.c ****   offset = ((uint8_t) event) - 1U;
 1078              	 .loc 1 865 0
 1079 0002 0139     	 sub r1,r1,#1
 1080              	.LVL168:
 1081 0004 C9B2     	 uxtb r1,r1
 1082              	.LVL169:
 866:../Libraries/XMCLib/src/xmc_ccu4.c **** 
 867:../Libraries/XMCLib/src/xmc_ccu4.c **** #if defined(CCU4V3) /* Defined for XMC1400 devices only */
 868:../Libraries/XMCLib/src/xmc_ccu4.c ****   pos = ((uint8_t) CCU4_CC4_INS1_EV0IS_Pos) + (uint8_t) (offset << 3U);
 869:../Libraries/XMCLib/src/xmc_ccu4.c **** 
 870:../Libraries/XMCLib/src/xmc_ccu4.c ****   ins = slice->INS1;
 871:../Libraries/XMCLib/src/xmc_ccu4.c ****   ins &= ~(((uint32_t) XMC_CCU4_SLICE_EVENT_INPUT_CONFIG_MASK) << pos);
 872:../Libraries/XMCLib/src/xmc_ccu4.c ****   ins |= ((uint32_t) input) << pos;
 873:../Libraries/XMCLib/src/xmc_ccu4.c **** 
 874:../Libraries/XMCLib/src/xmc_ccu4.c ****   slice->INS1 = ins;
 875:../Libraries/XMCLib/src/xmc_ccu4.c **** #else
 876:../Libraries/XMCLib/src/xmc_ccu4.c ****   pos = ((uint8_t) CCU4_CC4_INS_EV0IS_Pos) + (uint8_t) (offset << 2U);
 1083              	 .loc 1 876 0
 1084 0006 8900     	 lsl r1,r1,#2
 1085              	.LVL170:
 1086 0008 C9B2     	 uxtb r1,r1
 1087              	.LVL171:
 877:../Libraries/XMCLib/src/xmc_ccu4.c **** 
 878:../Libraries/XMCLib/src/xmc_ccu4.c ****   ins = slice->INS;
 1088              	 .loc 1 878 0
 1089 000a 0368     	 ldr r3,[r0]
 1090              	.LVL172:
 879:../Libraries/XMCLib/src/xmc_ccu4.c ****   ins &= ~(((uint32_t) XMC_CCU4_SLICE_EVENT_INPUT_CONFIG_MASK) << pos);
 1091              	 .loc 1 879 0
 1092 000c 0F24     	 mov r4,#15
 1093 000e 8C40     	 lsl r4,r4,r1
 1094 0010 A343     	 bic r3,r4
 1095              	.LVL173:
 880:../Libraries/XMCLib/src/xmc_ccu4.c ****   ins |= ((uint32_t) input) << pos;
 1096              	 .loc 1 880 0
 1097 0012 8A40     	 lsl r2,r2,r1
 1098              	.LVL174:
 1099 0014 111C     	 mov r1,r2
 1100              	.LVL175:
 1101 0016 1943     	 orr r1,r3
 1102              	.LVL176:
 881:../Libraries/XMCLib/src/xmc_ccu4.c **** 
 882:../Libraries/XMCLib/src/xmc_ccu4.c ****   slice->INS = ins;
 1103              	 .loc 1 882 0
 1104 0018 0160     	 str r1,[r0]
 883:../Libraries/XMCLib/src/xmc_ccu4.c **** #endif
 884:../Libraries/XMCLib/src/xmc_ccu4.c **** }
 1105              	 .loc 1 884 0
 1106              	 
 1107 001a 10BD     	 pop {r4,pc}
 1108              	 .cfi_endproc
 1109              	.LFE113:
 1111              	 .section .text.XMC_CCU4_SLICE_SetTimerRepeatMode,"ax",%progbits
 1112              	 .align 2
 1113              	 .global XMC_CCU4_SLICE_SetTimerRepeatMode
 1114              	 .code 16
 1115              	 .thumb_func
 1117              	XMC_CCU4_SLICE_SetTimerRepeatMode:
 1118              	.LFB114:
 885:../Libraries/XMCLib/src/xmc_ccu4.c **** 
 886:../Libraries/XMCLib/src/xmc_ccu4.c **** /* API to program timer repeat mode - Single shot vs repeat */
 887:../Libraries/XMCLib/src/xmc_ccu4.c **** void XMC_CCU4_SLICE_SetTimerRepeatMode(XMC_CCU4_SLICE_t *const slice, const XMC_CCU4_SLICE_TIMER_RE
 888:../Libraries/XMCLib/src/xmc_ccu4.c **** {
 1119              	 .loc 1 888 0
 1120              	 .cfi_startproc
 1121              	.LVL177:
 889:../Libraries/XMCLib/src/xmc_ccu4.c ****   XMC_ASSERT("XMC_CCU4_SLICE_SetTimerRepeatMode:Invalid Slice Pointer", XMC_CCU4_IsValidSlice(slice
 890:../Libraries/XMCLib/src/xmc_ccu4.c ****   XMC_ASSERT("XMC_CCU4_SLICE_SetTimerRepeatMode:Invalid Timer Repeat Mode",
 891:../Libraries/XMCLib/src/xmc_ccu4.c ****              ((mode == XMC_CCU4_SLICE_TIMER_REPEAT_MODE_REPEAT) ||\
 892:../Libraries/XMCLib/src/xmc_ccu4.c ****           (mode == XMC_CCU4_SLICE_TIMER_REPEAT_MODE_SINGLE)));
 893:../Libraries/XMCLib/src/xmc_ccu4.c ****   
 894:../Libraries/XMCLib/src/xmc_ccu4.c ****   if (XMC_CCU4_SLICE_TIMER_REPEAT_MODE_REPEAT == mode)
 1122              	 .loc 1 894 0
 1123 0000 0029     	 cmp r1,#0
 1124 0002 04D1     	 bne .L61
 895:../Libraries/XMCLib/src/xmc_ccu4.c ****   {
 896:../Libraries/XMCLib/src/xmc_ccu4.c ****     slice->TC &= ~((uint32_t) CCU4_CC4_TC_TSSM_Msk);
 1125              	 .loc 1 896 0
 1126 0004 4369     	 ldr r3,[r0,#20]
 1127 0006 0222     	 mov r2,#2
 1128 0008 9343     	 bic r3,r2
 1129 000a 4361     	 str r3,[r0,#20]
 1130 000c 03E0     	 b .L60
 1131              	.L61:
 897:../Libraries/XMCLib/src/xmc_ccu4.c ****   }
 898:../Libraries/XMCLib/src/xmc_ccu4.c ****   else
 899:../Libraries/XMCLib/src/xmc_ccu4.c ****   {
 900:../Libraries/XMCLib/src/xmc_ccu4.c ****     slice->TC |= (uint32_t) CCU4_CC4_TC_TSSM_Msk;
 1132              	 .loc 1 900 0
 1133 000e 4269     	 ldr r2,[r0,#20]
 1134 0010 0223     	 mov r3,#2
 1135 0012 1343     	 orr r3,r2
 1136 0014 4361     	 str r3,[r0,#20]
 1137              	.L60:
 901:../Libraries/XMCLib/src/xmc_ccu4.c ****   }
 902:../Libraries/XMCLib/src/xmc_ccu4.c **** }
 1138              	 .loc 1 902 0
 1139              	 
 1140 0016 7047     	 bx lr
 1141              	 .cfi_endproc
 1142              	.LFE114:
 1144              	 .section .text.XMC_CCU4_SLICE_SetTimerCountingMode,"ax",%progbits
 1145              	 .align 2
 1146              	 .global XMC_CCU4_SLICE_SetTimerCountingMode
 1147              	 .code 16
 1148              	 .thumb_func
 1150              	XMC_CCU4_SLICE_SetTimerCountingMode:
 1151              	.LFB115:
 903:../Libraries/XMCLib/src/xmc_ccu4.c **** 
 904:../Libraries/XMCLib/src/xmc_ccu4.c **** /* Programs timer counting mode */
 905:../Libraries/XMCLib/src/xmc_ccu4.c **** void XMC_CCU4_SLICE_SetTimerCountingMode(XMC_CCU4_SLICE_t *const slice, const XMC_CCU4_SLICE_TIMER_
 906:../Libraries/XMCLib/src/xmc_ccu4.c **** {
 1152              	 .loc 1 906 0
 1153              	 .cfi_startproc
 1154              	.LVL178:
 907:../Libraries/XMCLib/src/xmc_ccu4.c ****   XMC_ASSERT("XMC_CCU4_SLICE_SetTimerCountingMode:Invalid Slice Pointer", XMC_CCU4_IsValidSlice(sli
 908:../Libraries/XMCLib/src/xmc_ccu4.c ****   XMC_ASSERT("XMC_CCU4_SLICE_SetTimerCountingMode:Invalid Timer Count Mode", ((mode == XMC_CCU4_SLI
 909:../Libraries/XMCLib/src/xmc_ccu4.c ****                                                                               (mode == XMC_CCU4_SLI
 910:../Libraries/XMCLib/src/xmc_ccu4.c ****   
 911:../Libraries/XMCLib/src/xmc_ccu4.c ****   if (XMC_CCU4_SLICE_TIMER_COUNT_MODE_EA == mode)
 1155              	 .loc 1 911 0
 1156 0000 0029     	 cmp r1,#0
 1157 0002 04D1     	 bne .L64
 912:../Libraries/XMCLib/src/xmc_ccu4.c ****   {
 913:../Libraries/XMCLib/src/xmc_ccu4.c ****     slice->TC &= ~((uint32_t) CCU4_CC4_TC_TCM_Msk);
 1158              	 .loc 1 913 0
 1159 0004 4369     	 ldr r3,[r0,#20]
 1160 0006 0122     	 mov r2,#1
 1161 0008 9343     	 bic r3,r2
 1162 000a 4361     	 str r3,[r0,#20]
 1163 000c 03E0     	 b .L63
 1164              	.L64:
 914:../Libraries/XMCLib/src/xmc_ccu4.c ****   }
 915:../Libraries/XMCLib/src/xmc_ccu4.c ****   else
 916:../Libraries/XMCLib/src/xmc_ccu4.c ****   {
 917:../Libraries/XMCLib/src/xmc_ccu4.c ****     slice->TC |= (uint32_t) CCU4_CC4_TC_TCM_Msk;
 1165              	 .loc 1 917 0
 1166 000e 4269     	 ldr r2,[r0,#20]
 1167 0010 0123     	 mov r3,#1
 1168 0012 1343     	 orr r3,r2
 1169 0014 4361     	 str r3,[r0,#20]
 1170              	.L63:
 918:../Libraries/XMCLib/src/xmc_ccu4.c ****   }
 919:../Libraries/XMCLib/src/xmc_ccu4.c **** }
 1171              	 .loc 1 919 0
 1172              	 
 1173 0016 7047     	 bx lr
 1174              	 .cfi_endproc
 1175              	.LFE115:
 1177              	 .section .text.XMC_CCU4_SLICE_GetCaptureRegisterValue,"ax",%progbits
 1178              	 .align 2
 1179              	 .global XMC_CCU4_SLICE_GetCaptureRegisterValue
 1180              	 .code 16
 1181              	 .thumb_func
 1183              	XMC_CCU4_SLICE_GetCaptureRegisterValue:
 1184              	.LFB116:
 920:../Libraries/XMCLib/src/xmc_ccu4.c **** 
 921:../Libraries/XMCLib/src/xmc_ccu4.c **** /* Retrieves desired capture register value */
 922:../Libraries/XMCLib/src/xmc_ccu4.c **** uint32_t XMC_CCU4_SLICE_GetCaptureRegisterValue(const XMC_CCU4_SLICE_t *const slice, const uint8_t 
 923:../Libraries/XMCLib/src/xmc_ccu4.c **** {
 1185              	 .loc 1 923 0
 1186              	 .cfi_startproc
 1187              	.LVL179:
 924:../Libraries/XMCLib/src/xmc_ccu4.c ****   XMC_ASSERT("XMC_CCU4_SLICE_GetCaptureRegisterValue:Invalid Slice Pointer", XMC_CCU4_IsValidSlice(
 925:../Libraries/XMCLib/src/xmc_ccu4.c ****   XMC_ASSERT("XMC_CCU4_SLICE_GetCaptureRegisterValue:Invalid register number", (reg_num < 4U));
 926:../Libraries/XMCLib/src/xmc_ccu4.c ****   return(slice->CV[reg_num]);
 1188              	 .loc 1 926 0
 1189 0000 1C31     	 add r1,r1,#28
 1190              	.LVL180:
 1191 0002 8900     	 lsl r1,r1,#2
 1192 0004 4018     	 add r0,r0,r1
 1193              	.LVL181:
 1194 0006 4068     	 ldr r0,[r0,#4]
 927:../Libraries/XMCLib/src/xmc_ccu4.c **** }
 1195              	 .loc 1 927 0
 1196              	 
 1197 0008 7047     	 bx lr
 1198              	 .cfi_endproc
 1199              	.LFE116:
 1201 000a C046     	 .section .text.XMC_CCU4_SLICE_GetLastCapturedTimerValue,"ax",%progbits
 1202              	 .align 2
 1203              	 .global XMC_CCU4_SLICE_GetLastCapturedTimerValue
 1204              	 .code 16
 1205              	 .thumb_func
 1207              	XMC_CCU4_SLICE_GetLastCapturedTimerValue:
 1208              	.LFB117:
 928:../Libraries/XMCLib/src/xmc_ccu4.c **** 
 929:../Libraries/XMCLib/src/xmc_ccu4.c **** /* @brief Retrieves the latest captured timer value */
 930:../Libraries/XMCLib/src/xmc_ccu4.c **** XMC_CCU4_STATUS_t XMC_CCU4_SLICE_GetLastCapturedTimerValue(const XMC_CCU4_SLICE_t *const slice,
 931:../Libraries/XMCLib/src/xmc_ccu4.c ****                                                            const XMC_CCU4_SLICE_CAP_REG_SET_t set,
 932:../Libraries/XMCLib/src/xmc_ccu4.c ****                                                            uint32_t *val_ptr)
 933:../Libraries/XMCLib/src/xmc_ccu4.c **** {
 1209              	 .loc 1 933 0
 1210              	 .cfi_startproc
 1211              	.LVL182:
 1212 0000 30B5     	 push {r4,r5,lr}
 1213              	.LCFI10:
 1214              	 .cfi_def_cfa_offset 12
 1215              	 .cfi_offset 4,-12
 1216              	 .cfi_offset 5,-8
 1217              	 .cfi_offset 14,-4
 1218              	.LVL183:
 934:../Libraries/XMCLib/src/xmc_ccu4.c ****   XMC_CCU4_STATUS_t retval;
 935:../Libraries/XMCLib/src/xmc_ccu4.c ****   uint8_t i;
 936:../Libraries/XMCLib/src/xmc_ccu4.c ****   uint8_t start;
 937:../Libraries/XMCLib/src/xmc_ccu4.c ****   uint8_t end;
 938:../Libraries/XMCLib/src/xmc_ccu4.c ****   
 939:../Libraries/XMCLib/src/xmc_ccu4.c ****   XMC_ASSERT("XMC_CCU4_SLICE_GetLastCapturedTimerValue:Invalid Slice Pointer", XMC_CCU4_IsValidSlic
 940:../Libraries/XMCLib/src/xmc_ccu4.c ****   XMC_ASSERT("XMC_CCU4_SLICE_GetLastCapturedTimerValue:Invalid Register Set", ((set == XMC_CCU4_SLI
 941:../Libraries/XMCLib/src/xmc_ccu4.c ****                                                                                (set == XMC_CCU4_SLI
 942:../Libraries/XMCLib/src/xmc_ccu4.c ****   
 943:../Libraries/XMCLib/src/xmc_ccu4.c ****   retval = XMC_CCU4_STATUS_ERROR;
 944:../Libraries/XMCLib/src/xmc_ccu4.c **** 
 945:../Libraries/XMCLib/src/xmc_ccu4.c ****   /* First check if extended capture mode is enabled */
 946:../Libraries/XMCLib/src/xmc_ccu4.c ****   if ((slice->TC) & CCU4_CC4_TC_ECM_Msk)
 1219              	 .loc 1 946 0
 1220 0002 4369     	 ldr r3,[r0,#20]
 1221 0004 DB06     	 lsl r3,r3,#27
 1222 0006 04D4     	 bmi .L73
 947:../Libraries/XMCLib/src/xmc_ccu4.c ****   {
 948:../Libraries/XMCLib/src/xmc_ccu4.c ****     /* Extended capture mode has been enabled. So start with the lowest capture register and work y
 949:../Libraries/XMCLib/src/xmc_ccu4.c ****     start = 0U;
 950:../Libraries/XMCLib/src/xmc_ccu4.c ****     end = XMC_CCU4_NUM_SLICES_PER_MODULE;
 951:../Libraries/XMCLib/src/xmc_ccu4.c ****   }
 952:../Libraries/XMCLib/src/xmc_ccu4.c ****   else
 953:../Libraries/XMCLib/src/xmc_ccu4.c ****   {
 954:../Libraries/XMCLib/src/xmc_ccu4.c ****     /* Extended capture mode is not enabled */
 955:../Libraries/XMCLib/src/xmc_ccu4.c ****     if (set == XMC_CCU4_SLICE_CAP_REG_SET_HIGH)
 1223              	 .loc 1 955 0
 1224 0008 0129     	 cmp r1,#1
 1225 000a 05D1     	 bne .L74
 956:../Libraries/XMCLib/src/xmc_ccu4.c ****     {
 957:../Libraries/XMCLib/src/xmc_ccu4.c ****       start = ((uint8_t) XMC_CCU4_NUM_SLICES_PER_MODULE) >> 1U;
 958:../Libraries/XMCLib/src/xmc_ccu4.c ****       end   = (uint8_t) XMC_CCU4_NUM_SLICES_PER_MODULE;
 1226              	 .loc 1 958 0
 1227 000c 0425     	 mov r5,#4
 957:../Libraries/XMCLib/src/xmc_ccu4.c ****       end   = (uint8_t) XMC_CCU4_NUM_SLICES_PER_MODULE;
 1228              	 .loc 1 957 0
 1229 000e 0223     	 mov r3,#2
 1230 0010 16E0     	 b .L69
 1231              	.L73:
 950:../Libraries/XMCLib/src/xmc_ccu4.c ****   }
 1232              	 .loc 1 950 0
 1233 0012 0425     	 mov r5,#4
 949:../Libraries/XMCLib/src/xmc_ccu4.c ****     end = XMC_CCU4_NUM_SLICES_PER_MODULE;
 1234              	 .loc 1 949 0
 1235 0014 0023     	 mov r3,#0
 1236 0016 13E0     	 b .L69
 1237              	.L74:
 959:../Libraries/XMCLib/src/xmc_ccu4.c ****     }
 960:../Libraries/XMCLib/src/xmc_ccu4.c ****     else
 961:../Libraries/XMCLib/src/xmc_ccu4.c ****     {
 962:../Libraries/XMCLib/src/xmc_ccu4.c ****       start = 0U;
 963:../Libraries/XMCLib/src/xmc_ccu4.c ****       end = ((uint8_t) XMC_CCU4_NUM_SLICES_PER_MODULE) >> 1U;
 1238              	 .loc 1 963 0
 1239 0018 0225     	 mov r5,#2
 962:../Libraries/XMCLib/src/xmc_ccu4.c ****       end = ((uint8_t) XMC_CCU4_NUM_SLICES_PER_MODULE) >> 1U;
 1240              	 .loc 1 962 0
 1241 001a 0023     	 mov r3,#0
 1242              	.LVL184:
 964:../Libraries/XMCLib/src/xmc_ccu4.c ****     }
 965:../Libraries/XMCLib/src/xmc_ccu4.c ****   }
 966:../Libraries/XMCLib/src/xmc_ccu4.c **** 
 967:../Libraries/XMCLib/src/xmc_ccu4.c ****   for(i=start; i < end; i++)
 1243              	 .loc 1 967 0
 1244 001c 10E0     	 b .L69
 1245              	.LVL185:
 1246              	.L72:
 968:../Libraries/XMCLib/src/xmc_ccu4.c ****   {
 969:../Libraries/XMCLib/src/xmc_ccu4.c ****     if ( (slice->CV[i]) & CCU4_CC4_CV_FFL_Msk )
 1247              	 .loc 1 969 0
 1248 001e 1C1C     	 mov r4,r3
 1249 0020 191C     	 mov r1,r3
 1250 0022 1C31     	 add r1,r1,#28
 1251 0024 8900     	 lsl r1,r1,#2
 1252 0026 4118     	 add r1,r0,r1
 1253 0028 4968     	 ldr r1,[r1,#4]
 1254 002a C902     	 lsl r1,r1,#11
 1255 002c 06D5     	 bpl .L70
 970:../Libraries/XMCLib/src/xmc_ccu4.c ****     {
 971:../Libraries/XMCLib/src/xmc_ccu4.c ****       *val_ptr = slice->CV[i];
 1256              	 .loc 1 971 0
 1257 002e 1C34     	 add r4,r4,#28
 1258 0030 A400     	 lsl r4,r4,#2
 1259 0032 0019     	 add r0,r0,r4
 1260              	.LVL186:
 1261 0034 4368     	 ldr r3,[r0,#4]
 1262              	.LVL187:
 1263 0036 1360     	 str r3,[r2]
 1264              	.LVL188:
 972:../Libraries/XMCLib/src/xmc_ccu4.c ****       retval = XMC_CCU4_STATUS_OK;
 1265              	 .loc 1 972 0
 1266 0038 0020     	 mov r0,#0
 973:../Libraries/XMCLib/src/xmc_ccu4.c ****       break;
 1267              	 .loc 1 973 0
 1268 003a 04E0     	 b .L71
 1269              	.LVL189:
 1270              	.L70:
 967:../Libraries/XMCLib/src/xmc_ccu4.c ****   {
 1271              	 .loc 1 967 0 discriminator 2
 1272 003c 0133     	 add r3,r3,#1
 1273              	.LVL190:
 1274 003e DBB2     	 uxtb r3,r3
 1275              	.LVL191:
 1276              	.L69:
 967:../Libraries/XMCLib/src/xmc_ccu4.c ****   {
 1277              	 .loc 1 967 0 is_stmt 0 discriminator 1
 1278 0040 AB42     	 cmp r3,r5
 1279 0042 ECD3     	 bcc .L72
 943:../Libraries/XMCLib/src/xmc_ccu4.c **** 
 1280              	 .loc 1 943 0 is_stmt 1
 1281 0044 0120     	 mov r0,#1
 1282              	.LVL192:
 1283              	.L71:
 974:../Libraries/XMCLib/src/xmc_ccu4.c ****     }
 975:../Libraries/XMCLib/src/xmc_ccu4.c ****   }
 976:../Libraries/XMCLib/src/xmc_ccu4.c **** 
 977:../Libraries/XMCLib/src/xmc_ccu4.c ****   return retval;
 978:../Libraries/XMCLib/src/xmc_ccu4.c **** }
 1284              	 .loc 1 978 0
 1285              	 
 1286 0046 30BD     	 pop {r4,r5,pc}
 1287              	 .cfi_endproc
 1288              	.LFE117:
 1290              	 .section .text.XMC_CCU4_SLICE_GetCapturedValueFromFifo,"ax",%progbits
 1291              	 .align 2
 1292              	 .global XMC_CCU4_SLICE_GetCapturedValueFromFifo
 1293              	 .code 16
 1294              	 .thumb_func
 1296              	XMC_CCU4_SLICE_GetCapturedValueFromFifo:
 1297              	.LFB118:
 979:../Libraries/XMCLib/src/xmc_ccu4.c **** 
 980:../Libraries/XMCLib/src/xmc_ccu4.c **** /* Retrieves timer capture value from a FIFO made of capture registers */
 981:../Libraries/XMCLib/src/xmc_ccu4.c **** #if defined(CCU4V1) /* Defined for XMC4500, XMC400, XMC4200, XMC4100 devices only */
 982:../Libraries/XMCLib/src/xmc_ccu4.c **** int32_t XMC_CCU4_GetCapturedValueFromFifo(const XMC_CCU4_MODULE_t *const module, const uint8_t slic
 983:../Libraries/XMCLib/src/xmc_ccu4.c **** {
 984:../Libraries/XMCLib/src/xmc_ccu4.c ****   int32_t   cap;
 985:../Libraries/XMCLib/src/xmc_ccu4.c ****   uint32_t  extracted_slice;
 986:../Libraries/XMCLib/src/xmc_ccu4.c ****   
 987:../Libraries/XMCLib/src/xmc_ccu4.c ****   XMC_ASSERT("XMC_CCU4_GetCapturedValueFromFifo:Invalid Slice Pointer", XMC_CCU4_IsValidModule(modu
 988:../Libraries/XMCLib/src/xmc_ccu4.c **** 
 989:../Libraries/XMCLib/src/xmc_ccu4.c ****   /* First read the global fifo register */
 990:../Libraries/XMCLib/src/xmc_ccu4.c ****   cap = (int32_t) module->ECRD;
 991:../Libraries/XMCLib/src/xmc_ccu4.c **** 
 992:../Libraries/XMCLib/src/xmc_ccu4.c ****   extracted_slice = (((uint32_t) cap) & ((uint32_t) CCU4_ECRD_SPTR_Msk)) >> CCU4_ECRD_SPTR_Pos;
 993:../Libraries/XMCLib/src/xmc_ccu4.c **** 
 994:../Libraries/XMCLib/src/xmc_ccu4.c ****   /* Return captured result only if it were applicable to this slice */
 995:../Libraries/XMCLib/src/xmc_ccu4.c ****   if(extracted_slice != ((uint32_t)slice_number))
 996:../Libraries/XMCLib/src/xmc_ccu4.c ****   {
 997:../Libraries/XMCLib/src/xmc_ccu4.c ****     cap = -1;
 998:../Libraries/XMCLib/src/xmc_ccu4.c ****   }
 999:../Libraries/XMCLib/src/xmc_ccu4.c **** 
1000:../Libraries/XMCLib/src/xmc_ccu4.c ****   return (cap);
1001:../Libraries/XMCLib/src/xmc_ccu4.c **** }
1002:../Libraries/XMCLib/src/xmc_ccu4.c **** #else
1003:../Libraries/XMCLib/src/xmc_ccu4.c **** uint32_t XMC_CCU4_SLICE_GetCapturedValueFromFifo(const XMC_CCU4_SLICE_t *const slice,
1004:../Libraries/XMCLib/src/xmc_ccu4.c ****                                              const XMC_CCU4_SLICE_CAP_REG_SET_t set)
1005:../Libraries/XMCLib/src/xmc_ccu4.c **** {
 1298              	 .loc 1 1005 0
 1299              	 .cfi_startproc
 1300              	.LVL193:
1006:../Libraries/XMCLib/src/xmc_ccu4.c ****   uint32_t cap;
1007:../Libraries/XMCLib/src/xmc_ccu4.c **** 
1008:../Libraries/XMCLib/src/xmc_ccu4.c ****   XMC_ASSERT("XMC_CCU4_SLICE_GetCapturedValueFromFifo:Invalid Slice Pointer", XMC_CCU4_IsValidSlice
1009:../Libraries/XMCLib/src/xmc_ccu4.c ****   XMC_ASSERT("XMC_CCU4_SLICE_GetCapturedValueFromFifo:Invalid Register Set", 
1010:../Libraries/XMCLib/src/xmc_ccu4.c ****       ((set == XMC_CCU4_SLICE_CAP_REG_SET_LOW) ||\
1011:../Libraries/XMCLib/src/xmc_ccu4.c ****        (set == XMC_CCU4_SLICE_CAP_REG_SET_HIGH)));
1012:../Libraries/XMCLib/src/xmc_ccu4.c **** 
1013:../Libraries/XMCLib/src/xmc_ccu4.c ****   if(XMC_CCU4_SLICE_CAP_REG_SET_LOW == set)
 1301              	 .loc 1 1013 0
 1302 0000 0029     	 cmp r1,#0
 1303 0002 02D1     	 bne .L76
1014:../Libraries/XMCLib/src/xmc_ccu4.c ****   {
1015:../Libraries/XMCLib/src/xmc_ccu4.c ****     cap = slice->ECRD0;
 1304              	 .loc 1 1015 0
 1305 0004 B823     	 mov r3,#184
 1306 0006 C058     	 ldr r0,[r0,r3]
 1307              	.LVL194:
 1308 0008 01E0     	 b .L77
 1309              	.LVL195:
 1310              	.L76:
1016:../Libraries/XMCLib/src/xmc_ccu4.c ****   }
1017:../Libraries/XMCLib/src/xmc_ccu4.c ****   else
1018:../Libraries/XMCLib/src/xmc_ccu4.c ****   {
1019:../Libraries/XMCLib/src/xmc_ccu4.c ****     cap = slice->ECRD1;
 1311              	 .loc 1 1019 0
 1312 000a BC23     	 mov r3,#188
 1313 000c C058     	 ldr r0,[r0,r3]
 1314              	.LVL196:
 1315              	.L77:
1020:../Libraries/XMCLib/src/xmc_ccu4.c ****   }
1021:../Libraries/XMCLib/src/xmc_ccu4.c **** 
1022:../Libraries/XMCLib/src/xmc_ccu4.c ****   return cap;
1023:../Libraries/XMCLib/src/xmc_ccu4.c **** }
 1316              	 .loc 1 1023 0
 1317              	 
 1318 000e 7047     	 bx lr
 1319              	 .cfi_endproc
 1320              	.LFE118:
 1322              	 .section .text.XMC_CCU4_SLICE_EnableDithering,"ax",%progbits
 1323              	 .align 2
 1324              	 .global XMC_CCU4_SLICE_EnableDithering
 1325              	 .code 16
 1326              	 .thumb_func
 1328              	XMC_CCU4_SLICE_EnableDithering:
 1329              	.LFB119:
1024:../Libraries/XMCLib/src/xmc_ccu4.c **** #endif
1025:../Libraries/XMCLib/src/xmc_ccu4.c **** 
1026:../Libraries/XMCLib/src/xmc_ccu4.c **** /* Enables PWM dithering feature */
1027:../Libraries/XMCLib/src/xmc_ccu4.c **** void XMC_CCU4_SLICE_EnableDithering(XMC_CCU4_SLICE_t *const slice,
1028:../Libraries/XMCLib/src/xmc_ccu4.c ****                                     const bool period_dither,
1029:../Libraries/XMCLib/src/xmc_ccu4.c ****                                     const bool duty_dither,
1030:../Libraries/XMCLib/src/xmc_ccu4.c ****                                     const uint8_t spread)
1031:../Libraries/XMCLib/src/xmc_ccu4.c **** {
 1330              	 .loc 1 1031 0
 1331              	 .cfi_startproc
 1332              	.LVL197:
 1333 0000 30B5     	 push {r4,r5,lr}
 1334              	.LCFI11:
 1335              	 .cfi_def_cfa_offset 12
 1336              	 .cfi_offset 4,-12
 1337              	 .cfi_offset 5,-8
 1338              	 .cfi_offset 14,-4
1032:../Libraries/XMCLib/src/xmc_ccu4.c ****   uint32_t tc;
1033:../Libraries/XMCLib/src/xmc_ccu4.c **** 
1034:../Libraries/XMCLib/src/xmc_ccu4.c ****   XMC_ASSERT("XMC_CCU4_SLICE_EnableDithering:Invalid Slice Pointer", XMC_CCU4_IsValidSlice(slice));
1035:../Libraries/XMCLib/src/xmc_ccu4.c **** 
1036:../Libraries/XMCLib/src/xmc_ccu4.c ****   tc = slice->TC;
 1339              	 .loc 1 1036 0
 1340 0002 4569     	 ldr r5,[r0,#20]
 1341              	.LVL198:
1037:../Libraries/XMCLib/src/xmc_ccu4.c ****   tc &= ~((uint32_t) CCU4_CC4_TC_DITHE_Msk);
 1342              	 .loc 1 1037 0
 1343 0004 074C     	 ldr r4,.L81
 1344 0006 2C40     	 and r4,r5
 1345              	.LVL199:
1038:../Libraries/XMCLib/src/xmc_ccu4.c **** 
1039:../Libraries/XMCLib/src/xmc_ccu4.c ****   if ((bool) true == period_dither)
 1346              	 .loc 1 1039 0
 1347 0008 0029     	 cmp r1,#0
 1348 000a 02D0     	 beq .L79
1040:../Libraries/XMCLib/src/xmc_ccu4.c ****   {
1041:../Libraries/XMCLib/src/xmc_ccu4.c ****     tc |= (((uint32_t) XMC_CCU4_SLICE_DITHER_PERIOD_MASK) << CCU4_CC4_TC_DITHE_Pos);
 1349              	 .loc 1 1041 0
 1350 000c 8021     	 mov r1,#128
 1351              	.LVL200:
 1352 000e 8901     	 lsl r1,r1,#6
 1353 0010 0C43     	 orr r4,r1
 1354              	.LVL201:
 1355              	.L79:
1042:../Libraries/XMCLib/src/xmc_ccu4.c ****   }
1043:../Libraries/XMCLib/src/xmc_ccu4.c ****   if ((bool) true == duty_dither)
 1356              	 .loc 1 1043 0
 1357 0012 002A     	 cmp r2,#0
 1358 0014 02D0     	 beq .L80
1044:../Libraries/XMCLib/src/xmc_ccu4.c ****   {
1045:../Libraries/XMCLib/src/xmc_ccu4.c ****     tc |= (((uint32_t) XMC_CCU4_SLICE_DITHER_DUTYCYCLE_MASK) << CCU4_CC4_TC_DITHE_Pos);
 1359              	 .loc 1 1045 0
 1360 0016 8022     	 mov r2,#128
 1361              	.LVL202:
 1362 0018 D201     	 lsl r2,r2,#7
 1363 001a 1443     	 orr r4,r2
 1364              	.LVL203:
 1365              	.L80:
1046:../Libraries/XMCLib/src/xmc_ccu4.c ****   }
1047:../Libraries/XMCLib/src/xmc_ccu4.c **** 
1048:../Libraries/XMCLib/src/xmc_ccu4.c ****   slice->TC = tc;
 1366              	 .loc 1 1048 0
 1367 001c 4461     	 str r4,[r0,#20]
 1368              	.LVL204:
 1369              	.LBB16:
 1370              	.LBB17:
 864:C:/Projekte/Infineon_Dave/eHaJo/FlapFlap/Libraries/XMCLib/inc\xmc_ccu4.h **** }
 865:C:/Projekte/Infineon_Dave/eHaJo/FlapFlap/Libraries/XMCLib/inc\xmc_ccu4.h **** 
 866:C:/Projekte/Infineon_Dave/eHaJo/FlapFlap/Libraries/XMCLib/inc\xmc_ccu4.h **** /**
 867:C:/Projekte/Infineon_Dave/eHaJo/FlapFlap/Libraries/XMCLib/inc\xmc_ccu4.h ****  * @param module Constant pointer to CCU4 module
 868:C:/Projekte/Infineon_Dave/eHaJo/FlapFlap/Libraries/XMCLib/inc\xmc_ccu4.h ****  * @return <BR>
 869:C:/Projekte/Infineon_Dave/eHaJo/FlapFlap/Libraries/XMCLib/inc\xmc_ccu4.h ****  *    None<BR>
 870:C:/Projekte/Infineon_Dave/eHaJo/FlapFlap/Libraries/XMCLib/inc\xmc_ccu4.h ****  *
 871:C:/Projekte/Infineon_Dave/eHaJo/FlapFlap/Libraries/XMCLib/inc\xmc_ccu4.h ****  * \par<b>Description:</b><br>
 872:C:/Projekte/Infineon_Dave/eHaJo/FlapFlap/Libraries/XMCLib/inc\xmc_ccu4.h ****  * Stops the prescaler and blocks clocks to the timer slices, by setting GIDLS.CPRB bit.<BR>\n
 873:C:/Projekte/Infineon_Dave/eHaJo/FlapFlap/Libraries/XMCLib/inc\xmc_ccu4.h ****  * Opposite of the StartPrescaler routine.
 874:C:/Projekte/Infineon_Dave/eHaJo/FlapFlap/Libraries/XMCLib/inc\xmc_ccu4.h ****  * Clears the run bit of the prescaler. Ensures that the module clock is not supplied to
 875:C:/Projekte/Infineon_Dave/eHaJo/FlapFlap/Libraries/XMCLib/inc\xmc_ccu4.h ****  * the slices of the module.Registers directly accessed is GIDLS.
 876:C:/Projekte/Infineon_Dave/eHaJo/FlapFlap/Libraries/XMCLib/inc\xmc_ccu4.h ****  *
 877:C:/Projekte/Infineon_Dave/eHaJo/FlapFlap/Libraries/XMCLib/inc\xmc_ccu4.h ****  * \par<b>Related APIs:</b><br>
 878:C:/Projekte/Infineon_Dave/eHaJo/FlapFlap/Libraries/XMCLib/inc\xmc_ccu4.h ****  * XMC_CCU4_EnableClock()<BR> XMC_CCU4_DisableClock()<BR> XMC_CCU4_StartPrescaler()<BR> XMC_CCU4_St
 879:C:/Projekte/Infineon_Dave/eHaJo/FlapFlap/Libraries/XMCLib/inc\xmc_ccu4.h ****  */
 880:C:/Projekte/Infineon_Dave/eHaJo/FlapFlap/Libraries/XMCLib/inc\xmc_ccu4.h **** __STATIC_INLINE void XMC_CCU4_StopPrescaler(XMC_CCU4_MODULE_t *const module)
 881:C:/Projekte/Infineon_Dave/eHaJo/FlapFlap/Libraries/XMCLib/inc\xmc_ccu4.h **** {
 882:C:/Projekte/Infineon_Dave/eHaJo/FlapFlap/Libraries/XMCLib/inc\xmc_ccu4.h ****   XMC_ASSERT("XMC_CCU4_StopPrescaler:Invalid Module Pointer", XMC_CCU4_IsValidModule(module));
 883:C:/Projekte/Infineon_Dave/eHaJo/FlapFlap/Libraries/XMCLib/inc\xmc_ccu4.h ****   module->GIDLS |= (uint32_t) CCU4_GIDLS_CPRB_Msk;
 884:C:/Projekte/Infineon_Dave/eHaJo/FlapFlap/Libraries/XMCLib/inc\xmc_ccu4.h **** }
 885:C:/Projekte/Infineon_Dave/eHaJo/FlapFlap/Libraries/XMCLib/inc\xmc_ccu4.h **** 
 886:C:/Projekte/Infineon_Dave/eHaJo/FlapFlap/Libraries/XMCLib/inc\xmc_ccu4.h **** /**
 887:C:/Projekte/Infineon_Dave/eHaJo/FlapFlap/Libraries/XMCLib/inc\xmc_ccu4.h ****  * @param module Constant pointer to CCU4 module
 888:C:/Projekte/Infineon_Dave/eHaJo/FlapFlap/Libraries/XMCLib/inc\xmc_ccu4.h ****  * @return <BR>
 889:C:/Projekte/Infineon_Dave/eHaJo/FlapFlap/Libraries/XMCLib/inc\xmc_ccu4.h ****  *    None<BR>
 890:C:/Projekte/Infineon_Dave/eHaJo/FlapFlap/Libraries/XMCLib/inc\xmc_ccu4.h ****  *
 891:C:/Projekte/Infineon_Dave/eHaJo/FlapFlap/Libraries/XMCLib/inc\xmc_ccu4.h ****  * \par<b>Description:</b><br>
 892:C:/Projekte/Infineon_Dave/eHaJo/FlapFlap/Libraries/XMCLib/inc\xmc_ccu4.h ****  * Returns the state of the prescaler, by reading GSTAT.PRB bit.<BR>\n
 893:C:/Projekte/Infineon_Dave/eHaJo/FlapFlap/Libraries/XMCLib/inc\xmc_ccu4.h ****  * This will return true if the prescaler is running. If clock is being supplied to the slices of t
 894:C:/Projekte/Infineon_Dave/eHaJo/FlapFlap/Libraries/XMCLib/inc\xmc_ccu4.h ****  * module then returns as true.
 895:C:/Projekte/Infineon_Dave/eHaJo/FlapFlap/Libraries/XMCLib/inc\xmc_ccu4.h ****  *
 896:C:/Projekte/Infineon_Dave/eHaJo/FlapFlap/Libraries/XMCLib/inc\xmc_ccu4.h ****  * \par<b>Related APIs:</b><br>
 897:C:/Projekte/Infineon_Dave/eHaJo/FlapFlap/Libraries/XMCLib/inc\xmc_ccu4.h ****  * XMC_CCU4_StartPrescaler()<BR> XMC_CCU4_StopPrescaler()<BR> XMC_CCU4_EnableClock()<BR> XMC_CCU4_D
 898:C:/Projekte/Infineon_Dave/eHaJo/FlapFlap/Libraries/XMCLib/inc\xmc_ccu4.h ****  */
 899:C:/Projekte/Infineon_Dave/eHaJo/FlapFlap/Libraries/XMCLib/inc\xmc_ccu4.h **** __STATIC_INLINE bool XMC_CCU4_IsPrescalerRunning(XMC_CCU4_MODULE_t *const module)
 900:C:/Projekte/Infineon_Dave/eHaJo/FlapFlap/Libraries/XMCLib/inc\xmc_ccu4.h **** {
 901:C:/Projekte/Infineon_Dave/eHaJo/FlapFlap/Libraries/XMCLib/inc\xmc_ccu4.h ****   XMC_ASSERT("XMC_CCU4_IsPrescalerRunning:Invalid Module Pointer", XMC_CCU4_IsValidModule(module));
 902:C:/Projekte/Infineon_Dave/eHaJo/FlapFlap/Libraries/XMCLib/inc\xmc_ccu4.h ****   return((bool)((module->GSTAT & (uint32_t) CCU4_GSTAT_PRB_Msk) == (uint32_t)CCU4_GSTAT_PRB_Msk));
 903:C:/Projekte/Infineon_Dave/eHaJo/FlapFlap/Libraries/XMCLib/inc\xmc_ccu4.h **** }
 904:C:/Projekte/Infineon_Dave/eHaJo/FlapFlap/Libraries/XMCLib/inc\xmc_ccu4.h **** 
 905:C:/Projekte/Infineon_Dave/eHaJo/FlapFlap/Libraries/XMCLib/inc\xmc_ccu4.h **** /**
 906:C:/Projekte/Infineon_Dave/eHaJo/FlapFlap/Libraries/XMCLib/inc\xmc_ccu4.h ****  * @param module Constant pointer to CCU4 module
 907:C:/Projekte/Infineon_Dave/eHaJo/FlapFlap/Libraries/XMCLib/inc\xmc_ccu4.h ****  * @param clock_mask Slices whose clocks are to be enabled simultaneously.
 908:C:/Projekte/Infineon_Dave/eHaJo/FlapFlap/Libraries/XMCLib/inc\xmc_ccu4.h ****  *                   Bit location 0/1/2/3 represents slice-0/1/2/3 respectively.
 909:C:/Projekte/Infineon_Dave/eHaJo/FlapFlap/Libraries/XMCLib/inc\xmc_ccu4.h ****  *                   Range: [0x1 to 0xF]
 910:C:/Projekte/Infineon_Dave/eHaJo/FlapFlap/Libraries/XMCLib/inc\xmc_ccu4.h ****  * @return <BR>
 911:C:/Projekte/Infineon_Dave/eHaJo/FlapFlap/Libraries/XMCLib/inc\xmc_ccu4.h ****  *    None<BR>
 912:C:/Projekte/Infineon_Dave/eHaJo/FlapFlap/Libraries/XMCLib/inc\xmc_ccu4.h ****  *
 913:C:/Projekte/Infineon_Dave/eHaJo/FlapFlap/Libraries/XMCLib/inc\xmc_ccu4.h ****  * \par<b>Description:</b><br>
 914:C:/Projekte/Infineon_Dave/eHaJo/FlapFlap/Libraries/XMCLib/inc\xmc_ccu4.h ****  * Enables clocks of multiple slices at a time, by configuring GIDLC.CS0I, GIDLC.CS1I, GIDLC.CS2I, 
 915:C:/Projekte/Infineon_Dave/eHaJo/FlapFlap/Libraries/XMCLib/inc\xmc_ccu4.h ****  * GIDLC.CS3I bits.\n\n
 916:C:/Projekte/Infineon_Dave/eHaJo/FlapFlap/Libraries/XMCLib/inc\xmc_ccu4.h ****  * Takes an input clock_mask, which determines the slices that would receive the clock. Bring them 
 917:C:/Projekte/Infineon_Dave/eHaJo/FlapFlap/Libraries/XMCLib/inc\xmc_ccu4.h ****  * of the idle state simultaneously.
 918:C:/Projekte/Infineon_Dave/eHaJo/FlapFlap/Libraries/XMCLib/inc\xmc_ccu4.h ****  *
 919:C:/Projekte/Infineon_Dave/eHaJo/FlapFlap/Libraries/XMCLib/inc\xmc_ccu4.h ****  * \par<b>Related APIs:</b><br>
 920:C:/Projekte/Infineon_Dave/eHaJo/FlapFlap/Libraries/XMCLib/inc\xmc_ccu4.h ****  * XMC_CCU4_EnableClock()<BR> XMC_CCU4_DisableClock().
 921:C:/Projekte/Infineon_Dave/eHaJo/FlapFlap/Libraries/XMCLib/inc\xmc_ccu4.h ****  */
 922:C:/Projekte/Infineon_Dave/eHaJo/FlapFlap/Libraries/XMCLib/inc\xmc_ccu4.h **** __STATIC_INLINE void XMC_CCU4_EnableMultipleClocks(XMC_CCU4_MODULE_t *const module, const uint8_t c
 923:C:/Projekte/Infineon_Dave/eHaJo/FlapFlap/Libraries/XMCLib/inc\xmc_ccu4.h **** {
 924:C:/Projekte/Infineon_Dave/eHaJo/FlapFlap/Libraries/XMCLib/inc\xmc_ccu4.h ****   XMC_ASSERT("XMC_CCU4_EnableMultipleClocks:Invalid Module Pointer", XMC_CCU4_IsValidModule(module)
 925:C:/Projekte/Infineon_Dave/eHaJo/FlapFlap/Libraries/XMCLib/inc\xmc_ccu4.h ****   XMC_ASSERT("XMC_CCU4_EnableMultipleClocks:Wrong clock mask", (clock_mask < 16U));
 926:C:/Projekte/Infineon_Dave/eHaJo/FlapFlap/Libraries/XMCLib/inc\xmc_ccu4.h ****   
 927:C:/Projekte/Infineon_Dave/eHaJo/FlapFlap/Libraries/XMCLib/inc\xmc_ccu4.h ****   module->GIDLC |= (uint32_t) clock_mask;
 928:C:/Projekte/Infineon_Dave/eHaJo/FlapFlap/Libraries/XMCLib/inc\xmc_ccu4.h **** }
 929:C:/Projekte/Infineon_Dave/eHaJo/FlapFlap/Libraries/XMCLib/inc\xmc_ccu4.h **** 
 930:C:/Projekte/Infineon_Dave/eHaJo/FlapFlap/Libraries/XMCLib/inc\xmc_ccu4.h **** /**
